(dp0
I0
Vtow\u014b
p1
sI1
Vdow\u014b
p2
sI2
Vtruw\u014b
p3
sI3
Vdruw\u014b
p4
sI4
Vt\u0255uw\u014b
p5
sI5
Vtr\u2018uw\u014b
p6
sI6
Vd\u0290ow\u014b
p7
sI7
Vsuw\u014b
p8
sI8
V\u0272uw\u014b
p9
sI9
Vkuw\u014b
p10
sI10
Vjuw\u014b
p11
sI11
V\u0263uw\u014b
p12
sI12
Vmuw\u014b
p13
sI13
Vk\u2018uw\u014b
p14
sI14
Vbuw\u014b
p15
sI15
Vpuw\u014b
p16
sI16
Vp\u2018uw\u014b
p17
sI17
Vt\u0255\u2018uw\u014b
p18
sI18
Vluw\u014b
p19
sI19
Vk\u2018ow\u014b
p20
sI20
Vkow\u014b
p21
sI21
Vmow\u014b
p22
sI22
Vlow\u014b
p23
sI23
V\u0263ow\u014b
p24
sI24
Vdzow\u014b
p25
sI25
V\u0294ow\u014b
p26
sI26
Vts\u2018ow\u014b
p27
sI27
Vt\u2018ow\u014b
p28
sI28
Vtsow\u014b
p29
sI29
Vbow\u014b
p30
sI30
Vxow\u014b
p31
sI31
V\u014bow\u014b
p32
sI32
Vsow\u014b
p33
sI33
Vtaw\u014b
p34
sI34
Vdaw\u014b
p35
sI35
Vdzaw\u014b
p36
sI36
Vnaw\u014b
p37
sI37
Vkaw\u014b
p38
sI38
V\u0263aw\u014b
p39
sI39
Vlaw\u014b
p40
sI40
Vtsaw\u014b
p41
sI41
Vsaw\u014b
p42
sI42
Vt\u2018aw\u014b
p43
sI43
Vt\u0255uaw\u014b
p44
sI44
Vluaw\u014b
p45
sI45
V\u0255uaw\u014b
p46
sI46
Vzuaw\u014b
p47
sI47
Vt\u0255\u2018uaw\u014b
p48
sI48
Vjuaw\u014b
p49
sI49
Vpuaw\u014b
p50
sI50
Vxuaw\u014b
p51
sI51
V\u014buaw\u014b
p52
sI52
V\u0294uaw\u014b
p53
sI53
Vnruaw\u014b
p54
sI54
Vdruaw\u014b
p55
sI55
Vdzuaw\u014b
p56
sI56
Vtr\u2018uaw\u014b
p57
sI57
Vbuaw\u014b
p58
sI58
Vp\u2018uaw\u014b
p59
sI59
Vtsuaw\u014b
p60
sI60
V\u0272uaw\u014b
p61
sI61
Vguaw\u014b
p62
sI62
Vd\u0291uaw\u014b
p63
sI63
Vkuaw\u014b
p64
sI64
Vsuaw\u014b
p65
sI65
Vts\u2018uaw\u014b
p66
sI66
Vk\u2018uaw\u014b
p67
sI67
Vkarw\u014b
p68
sI68
Vmarw\u014b
p69
sI69
Vnrarw\u014b
p70
sI70
Vt\u0282\u2018arw\u014b
p71
sI71
Vparw\u014b
p72
sI72
V\u0263arw\u014b
p73
sI73
Vp\u2018arw\u014b
p74
sI74
Vlarw\u014b
p75
sI75
V\u0282arw\u014b
p76
sI76
Vbarw\u014b
p77
sI77
V\u0294arw\u014b
p78
sI78
Vk\u2018arw\u014b
p79
sI79
Vdrarw\u014b
p80
sI80
Vtr\u2018arw\u014b
p81
sI81
Vtrarw\u014b
p82
sI82
V\u014barw\u014b
p83
sI83
Vd\u0290arw\u014b
p84
sI84
Vt\u0255i\u0103
p85
sI85
Vji\u0103
p86
sI86
Vwi\u0103
p87
sI87
Vkwi\u0103
p88
sI88
Vxwi\u0103
p89
sI89
V\u0294wi\u0103
p90
sI90
Vmi\u0103
p91
sI91
Vxjwi\u0103
p92
sI92
Vdwi\u0103
p93
sI93
Vd\u0291wi\u0103
p94
sI94
Vlwi\u0103
p95
sI95
Vt\u0255\u2018wi\u0103
p96
sI96
Vp\u2018i\u0103
p97
sI97
Vpi\u0103
p98
sI98
Vzwi\u0103
p99
sI99
Vk\u2018wi\u0103
p100
sI100
Vk\u2018jwi\u0103
p101
sI101
Vgjwi\u0103
p102
sI102
Vgwi\u0103
p103
sI103
Vxi\u0103
p104
sI104
Vk\u2018i\u0103
p105
sI105
V\u014bi\u0103
p106
sI106
Vbi\u0103
p107
sI107
Vd\u0291i\u0103
p108
sI108
V\u0272i\u0103
p109
sI109
Vli\u0103
p110
sI110
V\u0291i\u0103
p111
sI111
Vtsi\u0103
p112
sI112
Vki\u0103
p113
sI113
Vpji\u0103
p114
sI114
Vbji\u0103
p115
sI115
V\u0255i\u0103
p116
sI116
Vsi\u0103
p117
sI117
Vt\u0282\u2018i\u0103
p118
sI118
Vtr\u2018i\u0103
p119
sI119
Vmji\u0103
p120
sI120
Vts\u2018i\u0103
p121
sI121
Vtri\u0103
p122
sI122
V\u0294i\u0103
p123
sI123
Vdri\u0103
p124
sI124
Vswi\u0103
p125
sI125
V\u014bwi\u0103
p126
sI126
Vxi\u0103
p127
sI127
V\u0282i\u0103
p128
sI128
V\u0255wi\u0103
p129
sI129
V\u0272wi\u0103
p130
sI130
Vts\u2018wi\u0103
p131
sI131
Vkjwi\u0103
p132
sI132
Vtswi\u0103
p133
sI133
Vt\u0282\u2018wi\u0103
p134
sI134
Vtrwi\u0103
p135
sI135
Vt\u0255wi\u0103
p136
sI136
Vt\u0255\u2018i\u0103
p137
sI137
Vt\u0282i\u0103
p138
sI138
Vp\u2018ji\u0103
p139
sI139
Vwji\u0103
p140
sI140
Vd\u0290i\u0103
p141
sI141
Vt\u0255i
p142
sI142
Vji
p143
sI143
V\u0282i
p144
sI144
Vbji
p145
sI145
Vtsi
p146
sI146
Vki
p147
sI147
Vt\u0255\u2018i
p148
sI148
Vtr\u2018i
p149
sI149
Vts\u2018i
p150
sI150
Vdzi
p151
sI151
Vnri
p152
sI152
Vdri
p153
sI153
Vsi
p154
sI154
V\u0255i
p155
sI155
Vgi
p156
sI156
V\u0294ji
p157
sI157
Vli
p158
sI158
Vgjwi
p159
sI159
Vtrwi
p160
sI160
Vkwi
p161
sI161
V\u0272wi
p162
sI162
V\u0282wi
p163
sI163
Vwji
p164
sI164
Vlwi
p165
sI165
Vswi
p166
sI166
Vgwi
p167
sI167
Vmi
p168
sI168
Vpi
p169
sI169
Vt\u0255wi
p170
sI170
Vd\u0291wi
p171
sI171
Vwi
p172
sI172
Vbi
p173
sI173
Vp\u2018i
p174
sI174
Vxi
p175
sI175
Vdrwi
p176
sI176
Vt\u0255\u2018wi
p177
sI177
Vtri
p178
sI178
Vp\u2018ji
p179
sI179
Vtswi
p180
sI180
Vk\u2018wi
p181
sI181
V\u014bi
p182
sI182
Vxji
p183
sI183
Vt\u0255\u0268
p184
sI184
Vj\u0268
p185
sI185
Vd\u0291\u0268
p186
sI186
V\u014b\u0268
p187
sI187
Vs\u0268
p188
sI188
Vt\u0282\u2018\u0268
p189
sI189
Vg\u0268
p190
sI190
V\u0255\u0268
p191
sI191
V\u0272\u0268
p192
sI192
Vk\u2018\u0268
p193
sI193
Vk\u0268
p194
sI194
Vz\u0268
p195
sI195
Vl\u0268
p196
sI196
Vt\u0282\u0268
p197
sI197
Vx\u0268
p198
sI198
V\u0294\u0268
p199
sI199
Vtr\u2018\u0268
p200
sI200
Vdr\u0268
p201
sI201
Vt\u0255\u2018\u0268
p202
sI202
Vdz\u0268
p203
sI203
Vts\u0268
p204
sI204
Vd\u0290\u0268
p205
sI205
V\u0263\u0268
p206
sI206
Vk\u2018\u0268
p207
sI207
V\u0255\u0268
p208
sI208
Vmuj
p209
sI209
Vxuj
p210
sI210
Vwuj
p211
sI211
Vp\u2018uj
p212
sI212
Vpuj
p213
sI213
Vbuj
p214
sI214
V\u0294uj
p215
sI215
Vguj
p216
sI216
Vk\u0268j
p217
sI217
Vx\u0268j
p218
sI218
V\u0294\u0268j
p219
sI219
V\u014b\u0268j
p220
sI220
V\u014buj
p221
sI221
Vkuj
p222
sI222
Vk\u2018uj
p223
sI223
V\u014b\u0268\u0103
p224
sI224
Vt\u0282\u2018\u0268\u0103
p225
sI225
V\u0255\u0268\u0103
p226
sI226
Vk\u0268\u0103
p227
sI227
Vg\u0268\u0103
p228
sI228
Vj\u0268\u0103
p229
sI229
Vs\u0268\u0103
p230
sI230
Vts\u2018\u0268\u0103
p231
sI231
Vd\u0290\u0268\u0103
p232
sI232
Vtr\u2018\u0268\u0103
p233
sI233
V\u0282\u0268\u0103
p234
sI234
Vx\u0268\u0103
p235
sI235
Vz\u0268\u0103
p236
sI236
V\u0294\u0268\u0103
p237
sI237
Vtr\u0268\u0103
p238
sI238
Vl\u0268\u0103
p239
sI239
Vt\u0255\u0268\u0103
p240
sI240
Vdr\u0268\u0103
p241
sI241
V\u0272\u0268\u0103
p242
sI242
Vts\u0268\u0103
p243
sI243
Vk\u2018\u0268\u0103
p244
sI244
Vt\u0282\u0268\u0103
p245
sI245
Vd\u0291\u0268\u0103
p246
sI246
Vnr\u0268\u0103
p247
sI247
V\u014bu\u0103
p248
sI248
Vt\u0282\u2018u\u0103
p249
sI249
Vmu\u0103
p250
sI250
Vwu\u0103
p251
sI251
Vxu\u0103
p252
sI252
Vgu\u0103
p253
sI253
V\u0272u\u0103
p254
sI254
Vsu\u0103
p255
sI255
Vtru\u0103
p256
sI256
Vtr\u2018u\u0103
p257
sI257
Vd\u0291u\u0103
p258
sI258
Vwu\u0103
p259
sI259
Vk\u2018u\u0103
p260
sI260
Vt\u0255u\u0103
p261
sI261
Vts\u2018u\u0103
p262
sI262
Vlu\u0103
p263
sI263
Vbu\u0103
p264
sI264
Vtru\u0103
p265
sI265
Vt\u0282u\u0103
p266
sI266
Vp\u2018u\u0103
p267
sI267
Vtsu\u0103
p268
sI268
Vpu\u0103
p269
sI269
V\u0294u\u0103
p270
sI270
V\u0255u\u0103
p271
sI271
Vt\u0255\u2018u\u0103
p272
sI272
Vdru\u0103
p273
sI273
Vku\u0103
p274
sI274
V\u0282u\u0103
p275
sI275
Vm\u0254
p276
sI276
Vb\u0254
p277
sI277
V\u0263\u0254
p278
sI278
Vk\u0254
p279
sI279
Vd\u0254
p280
sI280
Vn\u0254
p281
sI281
Vx\u0254
p282
sI282
V\u014b\u0254
p283
sI283
Vts\u0254
p284
sI284
Vl\u0254
p285
sI285
Vs\u0254
p286
sI286
Vdz\u0254
p287
sI287
V\u0294\u0254
p288
sI288
Vp\u0254
p289
sI289
Vk\u2018\u0254
p290
sI290
Vts\u2018\u0254
p291
sI291
Vt\u2018\u0254
p292
sI292
Vt\u0254
p293
sI293
Vp\u2018\u0254
p294
sI294
Vdz\u025bj
p295
sI295
Vl\u025bj
p296
sI296
Vts\u2018\u025bj
p297
sI297
Vt\u025bj
p298
sI298
Vd\u025bj
p299
sI299
Vp\u025bj
p300
sI300
Vk\u025bj
p301
sI301
V\u0263\u025bj
p302
sI302
V\u0294\u025bj
p303
sI303
V\u014b\u025bj
p304
sI304
Vx\u025bj
p305
sI305
Vs\u025bj
p306
sI306
Vt\u2018\u025bj
p307
sI307
Vb\u025bj
p308
sI308
Vp\u2018\u025bj
p309
sI309
Vts\u025bj
p310
sI310
Vm\u025bj
p311
sI311
Vn\u025bj
p312
sI312
Vk\u2018\u025bj
p313
sI313
Vkw\u025bj
p314
sI314
Vk\u2018w\u025bj
p315
sI315
V\u0263w\u025bj
p316
sI316
V\u0272\u025bj
p317
sI317
Vd\u0291u\u0103
p318
sI318
V\u0294w\u025bj
p319
sI319
Vxw\u025bj
p320
sI320
Vkarj
p321
sI321
V\u0263arj
p322
sI322
Vbarj
p323
sI323
Vkwarj
p324
sI324
V\u0294warj
p325
sI325
Vk\u2018warj
p326
sI326
Vd\u0290arj
p327
sI327
Vt\u0282\u2018arj
p328
sI328
Vxwarj
p329
sI329
Vnrarj
p330
sI330
V\u014barj
p331
sI331
V\u0294arj
p332
sI332
V\u0282arj
p333
sI333
Vxarj
p334
sI334
Vtr\u2018arj
p335
sI335
Vmarj
p336
sI336
V\u0263warj
p337
sI337
Vk\u025brj
p338
sI338
V\u0294\u025brj
p339
sI339
V\u0263\u025brj
p340
sI340
Vb\u025brj
p341
sI341
Vkw\u025brj
p342
sI342
V\u0263w\u025brj
p343
sI343
Vk\u2018w\u025brj
p344
sI344
Vd\u0290\u025brj
p345
sI345
Vt\u0282\u2018\u025brj
p346
sI346
Vxw\u025brj
p347
sI347
Vdrw\u025brj
p348
sI348
Vm\u025brj
p349
sI349
Vt\u0282\u025brj
p350
sI350
V*\u0294\u025brj
p351
sI351
Vtr\u025brj
p352
sI352
Vl\u025brj
p353
sI353
Vk\u2018\u025brj
p354
sI354
Vnr\u025brj
p355
sI355
V\u0282\u025brj
p356
sI356
V\u014b\u025brj
p357
sI357
Vtr\u2018\u025brj
p358
sI358
Vx\u025brj
p359
sI359
Vlw\u025brj
p360
sI360
Vd\u0290w\u025brj
p361
sI361
Vxw\u01ddj
p362
sI362
Vk\u2018w\u01ddj
p363
sI363
V\u0294w\u01ddj
p364
sI364
V\u0263w\u01ddj
p365
sI365
Vmw\u01ddj
p366
sI366
Vkw\u01ddj
p367
sI367
Vlw\u01ddj
p368
sI368
Vdw\u01ddj
p369
sI369
Vts\u2018w\u01ddj
p370
sI370
Vtw\u01ddj
p371
sI371
Vsw\u01ddj
p372
sI372
Vdzw\u01ddj
p373
sI373
Vbw\u01ddj
p374
sI374
Vpw\u01ddj
p375
sI375
Vp\u2018w\u01ddj
p376
sI376
V\u014bw\u01ddj
p377
sI377
Vt\u2018w\u01ddj
p378
sI378
Vnw\u01ddj
p379
sI379
Vtsw\u01ddj
p380
sI380
Vx\u01ddj
p381
sI381
Vk\u2018\u01ddj
p382
sI382
V\u0294\u01ddj
p383
sI383
Vd\u01ddj
p384
sI384
Vk\u01ddj
p385
sI385
Vdz\u01ddj
p386
sI386
Vl\u01ddj
p387
sI387
Vts\u01ddj
p388
sI388
Vts\u2018\u01ddj
p389
sI389
Vb\u01ddj
p390
sI390
Vt\u2018\u01ddj
p391
sI391
V\u0263\u01ddj
p392
sI392
Vs\u01ddj
p393
sI393
V\u014b\u01ddj
p394
sI394
Vn\u01ddj
p395
sI395
Vt\u01ddj
p396
sI396
V*t\u0255\u2018\u01ddj
p397
sI397
Vp\u2018\u01ddj
p398
sI398
Vt\u0255in
p399
sI399
Vtr\u2018in
p400
sI400
V\u0294jin
p401
sI401
Vsin
p402
sI402
Vd\u0291in
p403
sI403
V\u0272in
p404
sI404
V\u0291in
p405
sI405
V\u0263jin
p406
sI406
V\u0255in
p407
sI407
Vpjin
p408
sI408
Vlin
p409
sI409
Vgin
p410
sI410
Vtrin
p411
sI411
Vdrin
p412
sI412
Vtsin
p413
sI413
Vt\u0255\u2018in
p414
sI414
Vdzin
p415
sI415
Vjin
p416
sI416
Vnrin
p417
sI417
Vp\u2018jin
p418
sI418
Vbjin
p419
sI419
V\u014bin
p420
sI420
Vkin
p421
sI421
Vkwin
p422
sI422
Vwin
p423
sI423
Vk\u2018win
p424
sI424
Vmin
p425
sI425
Vbin
p426
sI426
V\u0294in
p427
sI427
V\u0294win
p428
sI428
Vpin
p429
sI429
Vmjin
p430
sI430
Vt\u0255win
p431
sI431
Vtr\u2018win
p432
sI432
Vdrwin
p433
sI433
Vswin
p434
sI434
Vd\u0291win
p435
sI435
V\u0272win
p436
sI436
V\u0291win
p437
sI437
Vlwin
p438
sI438
Vtrwin
p439
sI439
Vts\u2018win
p440
sI440
Vtswin
p441
sI441
Vt\u0255\u2018win
p442
sI442
Vdzwin
p443
sI443
Vwjin
p444
sI444
Vzwin
p445
sI445
Vkjwin
p446
sI446
V*gin
p447
sI447
Vp\u2018win
p448
sI448
Vt\u0282in
p449
sI449
V\u0282in
p450
sI450
Vd\u0290in
p451
sI451
Vmun
p452
sI452
Vwun
p453
sI453
V\u0294un
p454
sI454
Vbun
p455
sI455
Vpun
p456
sI456
Vgun
p457
sI457
Vxun
p458
sI458
Vkun
p459
sI459
Vp\u2018un
p460
sI460
V*xwin
p461
sI461
V\u0294\u0268n
p462
sI462
Vg\u0268n
p463
sI463
Vk\u0268n
p464
sI464
V\u014b\u0268n
p465
sI465
V\u014buan
p466
sI466
Vwuan
p467
sI467
Vbuan
p468
sI468
Vp\u2018uan
p469
sI469
V\u0255uan
p470
sI470
V\u0294uan
p471
sI471
V\u014b\u0268an
p472
sI472
Vk\u2018\u0268an
p473
sI473
Vx\u0268an
p474
sI474
Vk\u0268an
p475
sI475
V\u0294\u0268an
p476
sI476
Vpuan
p477
sI477
Vg\u0268an
p478
sI478
Vmuan
p479
sI479
V\u0263w\u01ddn
p480
sI480
Vkw\u01ddn
p481
sI481
V\u0294w\u01ddn
p482
sI482
Vmw\u01ddn
p483
sI483
Vsw\u01ddn
p484
sI484
Vtsw\u01ddn
p485
sI485
Vdzw\u01ddn
p486
sI486
Vtw\u01ddn
p487
sI487
Vt\u2018w\u01ddn
p488
sI488
Vdw\u01ddn
p489
sI489
Vts\u2018w\u01ddn
p490
sI490
V\u014bw\u01ddn
p491
sI491
Vbw\u01ddn
p492
sI492
Vpw\u01ddn
p493
sI493
Vlw\u01ddn
p494
sI494
Vk\u2018w\u01ddn
p495
sI495
Vxw\u01ddn
p496
sI496
Vp\u2018w\u01ddn
p497
sI497
Vnw\u01ddn
p498
sI498
V\u0263\u01ddn
p499
sI499
Vk\u01ddn
p500
sI500
V\u0294\u01ddn
p501
sI501
Vt\u2018\u01ddn
p502
sI502
V\u014b\u01ddn
p503
sI503
V\u0263an
p504
sI504
V\u014ban
p505
sI505
Vtan
p506
sI506
V\u0294an
p507
sI507
Vnan
p508
sI508
Vts\u2018an
p509
sI509
Vt\u2018an
p510
sI510
Vsan
p511
sI511
Vdan
p512
sI512
Vdzan
p513
sI513
Vkan
p514
sI514
Vlan
p515
sI515
Vk\u2018an
p516
sI516
Vxan
p517
sI517
V*nwan
p518
sI518
V\u0263wan
p519
sI519
V\u014bwan
p520
sI520
Vtwan
p521
sI521
V\u0294wan
p522
sI522
Vt\u2018wan
p523
sI523
Vswan
p524
sI524
Vdwan
p525
sI525
Vdzwan
p526
sI526
Vkwan
p527
sI527
Vlwan
p528
sI528
Vxwan
p529
sI529
Vk\u2018wan
p530
sI530
Vtswan
p531
sI531
Vbwan
p532
sI532
Vmwan
p533
sI533
Vp\u2018wan
p534
sI534
Vpwan
p535
sI535
V\u0282arn
p536
sI536
Vkwarn
p537
sI537
V\u0294warn
p538
sI538
V\u0282warn
p539
sI539
V\u0263warn
p540
sI540
Vpwarn
p541
sI541
Vmwarn
p542
sI542
V\u014barn
p543
sI543
Vkarn
p544
sI544
Vp\u2018warn
p545
sI545
Vnrwarn
p546
sI546
V\u014bwarn
p547
sI547
Vk\u2018arn
p548
sI548
V*tsarn
p549
sI549
Vt\u0282warn
p550
sI550
V\u0282\u025brn
p551
sI551
Vkw\u025brn
p552
sI552
Vk\u025brn
p553
sI553
V\u0263\u025brn
p554
sI554
Vk\u2018\u025brn
p555
sI555
Vd\u0290\u025brn
p556
sI556
Vx\u025brn
p557
sI557
V\u014b\u025brn
p558
sI558
V\u0294\u025brn
p559
sI559
Vp\u025brn
p560
sI560
Vl\u025brn
p561
sI561
Vnr\u025brn
p562
sI562
Vt\u0282\u2018\u025brn
p563
sI563
V\u0294w\u025brn
p564
sI564
Vdrw\u025brn
p565
sI565
Vlw\u025brn
p566
sI566
Vgw\u025brn
p567
sI567
Vtr\u025brn
p568
sI568
Vdr\u025brn
p569
sI569
V\u0263w\u025brn
p570
sI570
V*dz\u025brn
p571
sI571
Vs\u025bn
p572
sI572
Vdz\u025bn
p573
sI573
Vts\u2018\u025bn
p574
sI574
Vts\u025bn
p575
sI575
Vt\u2018\u025bn
p576
sI576
Vk\u025bn
p577
sI577
V\u0263\u025bn
p578
sI578
V\u0294\u025bn
p579
sI579
Vl\u025bn
p580
sI580
Vd\u025bn
p581
sI581
Vn\u025bn
p582
sI582
Vt\u025bn
p583
sI583
Vk\u2018\u025bn
p584
sI584
V\u014b\u025bn
p585
sI585
Vm\u025bn
p586
sI586
Vb\u025bn
p587
sI587
V\u0294w\u025bn
p588
sI588
Vkw\u025bn
p589
sI589
Vxw\u025bn
p590
sI590
Vpw\u025bn
p591
sI591
V\u0263w\u025bn
p592
sI592
Vx\u025bn
p593
sI593
V*d\u0290w\u025bn
p594
sI594
Vsian
p595
sI595
Vdzian
p596
sI596
Vts\u2018ian
p597
sI597
Vtsian
p598
sI598
V\u0272ian
p599
sI599
Vjian
p600
sI600
Vt\u0255ian
p601
sI601
Vkian
p602
sI602
Vtrian
p603
sI603
V*d\u0290ian
p604
sI604
V\u0255ian
p605
sI605
Vtr\u2018ian
p606
sI606
Vd\u0291ian
p607
sI607
Vdrian
p608
sI608
Vxian
p609
sI609
Vlian
p610
sI610
Vp\u2018jian
p611
sI611
Vbjian
p612
sI612
Vmjian
p613
sI613
Vdzwian
p614
sI614
Vswian
p615
sI615
Vtswian
p616
sI616
Vxjwian
p617
sI617
V\u0272wian
p618
sI618
Vt\u0255\u2018wian
p619
sI619
Vwjian
p620
sI620
Vzwian
p621
sI621
V\u0294jwian
p622
sI622
V\u0291wian
p623
sI623
Vpjian
p624
sI624
Vzian
p625
sI625
Vts\u2018wian
p626
sI626
Vt\u0255wian
p627
sI627
Vd\u0291wian
p628
sI628
Vwjian
p629
sI629
V*t\u0282\u2018wian
p630
sI630
V*\u0282wian
p631
sI631
V*tr\u2018wian
p632
sI632
Vgian
p633
sI633
Vk\u2018ian
p634
sI634
Vgjwian
p635
sI635
Vdrwian
p636
sI636
Vlwian
p637
sI637
Vk\u2018jwian
p638
sI638
V\u0294ian
p639
sI639
Vjian
p640
sI640
V*\u0294ian
p641
sI641
Vt\u0255\u2018ian
p642
sI642
Vtwian
p643
sI643
Vkjwian
p644
sI644
Vs\u025bw
p645
sI645
Vt\u2018\u025bw
p646
sI646
Vt\u025bw
p647
sI647
Vd\u025bw
p648
sI648
Vk\u025bw
p649
sI649
Vl\u025bw
p650
sI650
V\u014b\u025bw
p651
sI651
Vx\u025bw
p652
sI652
V\u0294\u025bw
p653
sI653
Vk\u2018\u025bw
p654
sI654
Vsiaw
p655
sI655
Vtr\u2018iaw
p656
sI656
Vtriaw
p657
sI657
Vdriaw
p658
sI658
Vxiaw
p659
sI659
Vdziaw
p660
sI660
Vkiaw
p661
sI661
Vtsiaw
p662
sI662
V\u0272iaw
p663
sI663
V\u0255iaw
p664
sI664
Vjiaw
p665
sI665
Vd\u0291iaw
p666
sI666
Vt\u0255iaw
p667
sI667
Vpjiaw
p668
sI668
Vpiaw
p669
sI669
Vbjiaw
p670
sI670
Vjiaw
p671
sI671
Vgiaw
p672
sI672
Vts\u2018iaw
p673
sI673
V\u0294iaw
p674
sI674
Vk\u2018jiaw
p675
sI675
Vt\u0255\u2018iaw
p676
sI676
Vp\u2018jiaw
p677
sI677
Vgjiaw
p678
sI678
Vliaw
p679
sI679
Vk\u2018iaw
p680
sI680
V\u0263arw
p681
sI681
Vkarw
p682
sI682
Vd\u0290arw
p683
sI683
Vnrarw
p684
sI684
V\u0282arw
p685
sI685
Vmarw
p686
sI686
Vxarw
p687
sI687
Vparw
p688
sI688
Vp\u2018arw
p689
sI689
Vk\u2018arw
p690
sI690
V\u014barw
p691
sI691
Vt\u0282arw
p692
sI692
Vtrarw
p693
sI693
Vt\u0282\u2018arw
p694
sI694
Vbarw
p695
sI695
V\u0294arw
p696
sI696
Vtr\u2018arw
p697
sI697
Vlarw
p698
sI698
Vdrarw
p699
sI699
V\u0263aw
p700
sI700
Vkaw
p701
sI701
Vlaw
p702
sI702
Vxaw
p703
sI703
Vmaw
p704
sI704
Vt\u2018aw
p705
sI705
Vtaw
p706
sI706
Vsaw
p707
sI707
Vbaw
p708
sI708
Vpaw
p709
sI709
Vdaw
p710
sI710
Vtsaw
p711
sI711
V\u014baw
p712
sI712
Vdzaw
p713
sI713
V\u0294aw
p714
sI714
Vnaw
p715
sI715
Vk\u2018aw
p716
sI716
Vts\u2018aw
p717
sI717
Vp\u2018aw
p718
sI718
Vka\u0103
p719
sI719
Vts\u2018a\u0103
p720
sI720
Vta\u0103
p721
sI721
Vsa\u0103
p722
sI722
Vda\u0103
p723
sI723
Vdza\u0103
p724
sI724
V\u014ba\u0103
p725
sI725
Vt\u2018a\u0103
p726
sI726
Vla\u0103
p727
sI727
Vna\u0103
p728
sI728
V\u0263a\u0103
p729
sI729
Vxa\u0103
p730
sI730
Vk\u2018a\u0103
p731
sI731
V\u0294a\u0103
p732
sI732
Vkwa\u0103
p733
sI733
Vts\u2018wa\u0103
p734
sI734
Vtwa\u0103
p735
sI735
Vswa\u0103
p736
sI736
Vbwa\u0103
p737
sI737
Vdwa\u0103
p738
sI738
Vmwa\u0103
p739
sI739
Vdzwa\u0103
p740
sI740
V\u014bwa\u0103
p741
sI741
Vt\u2018wa\u0103
p742
sI742
Vlwa\u0103
p743
sI743
Vnwa\u0103
p744
sI744
Vpwa\u0103
p745
sI745
Vp\u2018wa\u0103
p746
sI746
V\u0263wa\u0103
p747
sI747
Vk\u2018wa\u0103
p748
sI748
V\u0294wa\u0103
p749
sI749
Vxua\u0103
p750
sI750
V\u0294ua\u0103
p751
sI751
Vk\u2018ua\u0103
p752
sI752
Vg\u0268a\u0103
p753
sI753
Vk\u2018\u0268a\u0103
p754
sI754
Vk\u0268a\u0103
p755
sI755
V*ts\u2018a\u0103
p756
sI756
Vtswa\u0103
p757
sI757
Vgua\u0103
p758
sI758
Vlua\u0103
p759
sI759
Vmar
p760
sI760
Vt\u0255\u2018ia\u0103
p761
sI761
V\u0255ia\u0103
p762
sI762
Vjia\u0103
p763
sI763
Vt\u0255ia\u0103
p764
sI764
Vtsia\u0103
p765
sI765
V\u0291ia\u0103
p766
sI766
V\u0263war
p767
sI767
Vkwar
p768
sI768
Vxwar
p769
sI769
Vk\u2018war
p770
sI770
Vnrar
p771
sI771
Vkar
p772
sI772
V\u0263ar
p773
sI773
Vp\u2018ar
p774
sI774
V\u0294ar
p775
sI775
Vpar
p776
sI776
Vt\u0282\u2018ar
p777
sI777
V\u0282ar
p778
sI778
V\u014bar
p779
sI779
Vt\u0282ar
p780
sI780
Vdrar
p781
sI781
Vzia\u0103
p782
sI782
Vd\u0291ia\u0103
p783
sI783
V\u0294war
p784
sI784
Vt\u0282war
p785
sI785
Vtrwar
p786
sI786
Vbar
p787
sI787
Vd\u0290ar
p788
sI788
Vtr\u2018ar
p789
sI789
Vtrar
p790
sI790
Vxar
p791
sI791
Vk\u2018ar
p792
sI792
Vdzia\u0103
p793
sI793
V\u0272ia\u0103
p794
sI794
Vsia\u0103
p795
sI795
Vtia\u0103
p796
sI796
V\u014bwar
p797
sI797
Vk\u2018ar
p798
sI798
Vj\u0268a\u0103\u014b
p799
sI799
Vz\u0268a\u0103\u014b
p800
sI800
Vl\u0268a\u0103\u014b
p801
sI801
Vx\u0268a\u0103\u014b
p802
sI802
V\u0255\u0268a\u0103\u014b
p803
sI803
Vb\u0268a\u0103\u014b
p804
sI804
Vt\u0255\u0268a\u0103\u014b
p805
sI805
Vt\u0255\u2018\u0268a\u0103\u014b
p806
sI806
Vk\u2018\u0268a\u0103\u014b
p807
sI807
Vk\u0268a\u0103\u014b
p808
sI808
Vdr\u0268a\u0103\u014b
p809
sI809
Vtr\u0268a\u0103\u014b
p810
sI810
V\u0272\u0268a\u0103\u014b
p811
sI811
Vp\u0268a\u0103\u014b
p812
sI812
Vs\u0268a\u0103\u014b
p813
sI813
Vts\u0268a\u0103\u014b
p814
sI814
Vt\u0282\u2018\u0268a\u0103\u014b
p815
sI815
Vm\u0268a\u0103\u014b
p816
sI816
Vnr\u0268a\u0103\u014b
p817
sI817
Vd\u0290\u0268a\u0103\u014b
p818
sI818
Vt\u0282\u0268a\u0103\u014b
p819
sI819
Vd\u0291\u0268a\u0103\u014b
p820
sI820
V\u0282\u0268a\u0103\u014b
p821
sI821
Vdz\u0268a\u0103\u014b
p822
sI822
Vts\u2018\u0268a\u0103\u014b
p823
sI823
Vk\u2018ua\u0103\u014b
p824
sI824
Vwua\u0103\u014b
p825
sI825
V\u0294\u0268a\u0103\u014b
p826
sI826
Vg\u0268a\u0103\u014b
p827
sI827
Vtr\u2018\u0268a\u0103\u014b
p828
sI828
Vp\u2018\u0268a\u0103\u014b
p829
sI829
Vgua\u0103\u014b
p830
sI830
Vda\u0103\u014b
p831
sI831
Vla\u0103\u014b
p832
sI832
Vta\u0103\u014b
p833
sI833
Vts\u2018a\u0103\u014b
p834
sI834
Vka\u0103\u014b
p835
sI835
Vsa\u0103\u014b
p836
sI836
Vk\u2018a\u0103\u014b
p837
sI837
Vxwa\u0103\u014b
p838
sI838
V\u0263wa\u0103\u014b
p839
sI839
Vkwa\u0103\u014b
p840
sI840
Vt\u2018a\u0103\u014b
p841
sI841
Vp\u2018a\u0103\u014b
p842
sI842
V\u0294wa\u0103\u014b
p843
sI843
Vxa\u0103\u014b
p844
sI844
V\u0263a\u0103\u014b
p845
sI845
Vma\u0103\u014b
p846
sI846
Vtsa\u0103\u014b
p847
sI847
Vna\u0103\u014b
p848
sI848
Vba\u0103\u014b
p849
sI849
V\u014ba\u0103\u014b
p850
sI850
Vdza\u0103\u014b
p851
sI851
Vk\u2018wa\u0103\u014b
p852
sI852
Vpa\u0103\u014b
p853
sI853
Vkarj\u014b
p854
sI854
Vk\u2018arj\u014b
p855
sI855
Vmarj\u014b
p856
sI856
V\u0263warj\u014b
p857
sI857
Vparj\u014b
p858
sI858
Vxwarj\u014b
p859
sI859
Vkwarj\u014b
p860
sI860
Vbarj\u014b
p861
sI861
Vxarj\u014b
p862
sI862
Vtr\u2018arj\u014b
p863
sI863
Vt\u0282\u2018arj\u014b
p864
sI864
Vd\u0290arj\u014b
p865
sI865
V\u0294iaj\u014b
p866
sI866
Vp\u2018arj\u014b
p867
sI867
Vbiaj\u014b
p868
sI868
Vkiaj\u014b
p869
sI869
Vmiaj\u014b
p870
sI870
Vdrarj\u014b
p871
sI871
Vtrarj\u014b
p872
sI872
Vwjiaj\u014b
p873
sI873
Vpiaj\u014b
p874
sI874
Vxwiaj\u014b
p875
sI875
Vk\u2018iaj\u014b
p876
sI876
V\u0282arj\u014b
p877
sI877
Vgiaj\u014b
p878
sI878
V\u014biaj\u014b
p879
sI879
V\u0263arj\u014b
p880
sI880
Vnrarj\u014b
p881
sI881
Vk\u025brj\u014b
p882
sI882
Vk\u2018\u025brj\u014b
p883
sI883
Vm\u025brj\u014b
p884
sI884
Vp\u025brj\u014b
p885
sI885
V\u0263w\u025brj\u014b
p886
sI886
V\u0263\u025brj\u014b
p887
sI887
Vtr\u025brj\u014b
p888
sI888
V\u0294\u025brj\u014b
p889
sI889
Vd\u0290\u025brj\u014b
p890
sI890
Vt\u0282\u2018\u025brj\u014b
p891
sI891
Vnr\u025brj\u014b
p892
sI892
Vp\u2018\u025brj\u014b
p893
sI893
Vxw\u025brj\u014b
p894
sI894
Vpw\u025brj\u014b
p895
sI895
Vdr\u025brj\u014b
p896
sI896
V\u0294w\u025brj\u014b
p897
sI897
Vb\u025brj\u014b
p898
sI898
V\u014b\u025brj\u014b
p899
sI899
Vt\u0282\u025brj\u014b
p900
sI900
Vts\u2018iaj\u014b
p901
sI901
Vdziaj\u014b
p902
sI902
Vtsiaj\u014b
p903
sI903
Vjiaj\u014b
p904
sI904
Vwiaj\u014b
p905
sI905
V\u0294jiaj\u014b
p906
sI906
Vtiaj\u014b
p907
sI907
Vt\u2018iaj\u014b
p908
sI908
Vd\u0291iaj\u014b
p909
sI909
Vdiaj\u014b
p910
sI910
V\u0255iaj\u014b
p911
sI911
Vt\u0255iaj\u014b
p912
sI912
Vk\u2018jiaj\u014b
p913
sI913
Vmjiaj\u014b
p914
sI914
Vliaj\u014b
p915
sI915
Vpjiaj\u014b
p916
sI916
Vk\u2018jwiaj\u014b
p917
sI917
Vziaj\u014b
p918
sI918
V\u0294jwiaj\u014b
p919
sI919
Vgjwiaj\u014b
p920
sI920
Vswiaj\u014b
p921
sI921
Vgjiaj\u014b
p922
sI922
Vxjwiaj\u014b
p923
sI923
Vts\u2018\u025bj\u014b
p924
sI924
Vk\u025bj\u014b
p925
sI925
V\u0263\u025bj\u014b
p926
sI926
Vd\u025bj\u014b
p927
sI927
Vt\u025bj\u014b
p928
sI928
Vx\u025bj\u014b
p929
sI929
Vs\u025bj\u014b
p930
sI930
Vp\u2018\u025bj\u014b
p931
sI931
Vl\u025bj\u014b
p932
sI932
Vn\u025bj\u014b
p933
sI933
Vt\u2018\u025bj\u014b
p934
sI934
Vm\u025bj\u014b
p935
sI935
Vb\u025bj\u014b
p936
sI936
V\u0263w\u025bj\u014b
p937
sI937
Vkw\u025bj\u014b
p938
sI938
Vt\u0255i\u014b
p939
sI939
Vd\u0291i\u014b
p940
sI940
Vdri\u014b
p941
sI941
Vli\u014b
p942
sI942
V\u0294i\u014b
p943
sI943
Vbi\u014b
p944
sI944
Vpi\u014b
p945
sI945
Vji\u014b
p946
sI946
V\u0291i\u014b
p947
sI947
V\u0255i\u014b
p948
sI948
V\u0272i\u014b
p949
sI949
Vki\u014b
p950
sI950
Vtri\u014b
p951
sI951
Vdzi\u014b
p952
sI952
V\u014bi\u014b
p953
sI953
Vxi\u014b
p954
sI954
Vt\u0255\u2018i\u014b
p955
sI955
Vgi\u014b
p956
sI956
Vk\u2018i\u014b
p957
sI957
Vtr\u2018i\u014b
p958
sI958
V*d\u0290i\u014b
p959
sI959
Vp\u2018i\u014b
p960
sI960
Vt\u01dd\u014b
p961
sI961
Vl\u01dd\u014b
p962
sI962
Vs\u01dd\u014b
p963
sI963
Vp\u01dd\u014b
p964
sI964
Vts\u01dd\u014b
p965
sI965
Vm\u01dd\u014b
p966
sI966
Vdz\u01dd\u014b
p967
sI967
Vb\u01dd\u014b
p968
sI968
V\u0263w\u01dd\u014b
p969
sI969
Vkw\u01dd\u014b
p970
sI970
Vxw\u01dd\u014b
p971
sI971
Vn\u01dd\u014b
p972
sI972
Vd\u01dd\u014b
p973
sI973
V\u0263\u01dd\u014b
p974
sI974
Vk\u01dd\u014b
p975
sI975
Vt\u2018\u01dd\u014b
p976
sI976
Vp\u2018\u01dd\u014b
p977
sI977
Vjuw
p978
sI978
V\u0294uw
p979
sI979
Vluw
p980
sI980
Vts\u2018uw
p981
sI981
Vjuw
p982
sI982
V\u014buw
p983
sI983
Vdzuw
p984
sI984
V\u0291uw
p985
sI985
Vsuw
p986
sI986
Vtr\u2018uw
p987
sI987
Vk\u2018uw
p988
sI988
Vt\u0255\u2018uw
p989
sI989
Vt\u0255uw
p990
sI990
Vd\u0291uw
p991
sI991
V\u0272uw
p992
sI992
V\u0255uw
p993
sI993
Vk\u2018uw
p994
sI994
Vp\u2018uw
p995
sI995
Vkuw
p996
sI996
Vpuw
p997
sI997
V\u0282uw
p998
sI998
Vt\u0282\u2018uw
p999
sI999
Vt\u0282uw
p1000
sI1000
Vd\u0290uw
p1001
sI1001
Vxuw
p1002
sI1002
Vzuw
p1003
sI1003
Vdruw
p1004
sI1004
Vtruw
p1005
sI1005
Vguw
p1006
sI1006
Vbuw
p1007
sI1007
Vmuw
p1008
sI1008
V\u0263ow
p1009
sI1009
V\u0294ow
p1010
sI1010
Vnow
p1011
sI1011
Vlow
p1012
sI1012
Vsow
p1013
sI1013
Vk\u2018ow
p1014
sI1014
Vxow
p1015
sI1015
Vtsow
p1016
sI1016
Vt\u2018ow
p1017
sI1017
Vdow
p1018
sI1018
Vkow
p1019
sI1019
Vtow
p1020
sI1020
Vdzow
p1021
sI1021
Vbow
p1022
sI1022
Vmow
p1023
sI1023
V\u0294jiw
p1024
sI1024
Vgjiw
p1025
sI1025
Vpjiw
p1026
sI1026
Vliw
p1027
sI1027
Vkjiw
p1028
sI1028
Vbjiw
p1029
sI1029
Vtsiw
p1030
sI1030
V*\u0282iw
p1031
sI1031
V\u014bjiw
p1032
sI1032
Vxjiw
p1033
sI1033
Vmjiw
p1034
sI1034
Vts\u2018im
p1035
sI1035
Vzim
p1036
sI1036
Vlim
p1037
sI1037
Vtr\u2018im
p1038
sI1038
Vt\u0255im
p1039
sI1039
Vdrim
p1040
sI1040
Vtrim
p1041
sI1041
Vd\u0291im
p1042
sI1042
V\u0272im
p1043
sI1043
V\u0255im
p1044
sI1044
Vjim
p1045
sI1045
Vsim
p1046
sI1046
V\u0294jim
p1047
sI1047
Vtsim
p1048
sI1048
Vdzim
p1049
sI1049
Vnrim
p1050
sI1050
Vgim
p1051
sI1051
Vk\u2018im
p1052
sI1052
V\u014bim
p1053
sI1053
Vxim
p1054
sI1054
Vkim
p1055
sI1055
V\u0294im
p1056
sI1056
V\u0282im
p1057
sI1057
Vd\u0290im
p1058
sI1058
Vt\u0282im
p1059
sI1059
Vt\u0282\u2018im
p1060
sI1060
Vt\u0255\u2018im
p1061
sI1061
Vd\u01ddm
p1062
sI1062
Vts\u2018\u01ddm
p1063
sI1063
Vn\u01ddm
p1064
sI1064
V\u0294\u01ddm
p1065
sI1065
V\u0263\u01ddm
p1066
sI1066
Vl\u01ddm
p1067
sI1067
Vdz\u01ddm
p1068
sI1068
Vts\u01ddm
p1069
sI1069
Vt\u2018\u01ddm
p1070
sI1070
Vt\u01ddm
p1071
sI1071
Vk\u2018\u01ddm
p1072
sI1072
Vx\u01ddm
p1073
sI1073
Vs\u01ddm
p1074
sI1074
Vk\u01ddm
p1075
sI1075
V\u014b\u01ddm
p1076
sI1076
Vdam
p1077
sI1077
Vkam
p1078
sI1078
Vtam
p1079
sI1079
Vsam
p1080
sI1080
Vlam
p1081
sI1081
Vk\u2018am
p1082
sI1082
Vt\u2018am
p1083
sI1083
Vdzam
p1084
sI1084
V\u0263am
p1085
sI1085
Vmam
p1086
sI1086
Vdzam
p1087
sI1087
Vxam
p1088
sI1088
Vjiam
p1089
sI1089
Vliam
p1090
sI1090
Vpiam
p1091
sI1091
Vsiam
p1092
sI1092
Vts\u2018iam
p1093
sI1093
Vt\u0255iam
p1094
sI1094
Vd\u0291iam
p1095
sI1095
V\u0255iam
p1096
sI1096
Vt\u0255\u2018iam
p1097
sI1097
V\u0272iam
p1098
sI1098
Vnriam
p1099
sI1099
Vjiam
p1100
sI1100
Vtriam
p1101
sI1101
Vtr\u2018iam
p1102
sI1102
V\u0294iam
p1103
sI1103
Vk\u2018iam
p1104
sI1104
V\u014biam
p1105
sI1105
Vtsiam
p1106
sI1106
Vdziam
p1107
sI1107
Vgiam
p1108
sI1108
V\u0294jiam
p1109
sI1109
Vziam
p1110
sI1110
V*\u0282iam
p1111
sI1111
Vdriam
p1112
sI1112
Vgjiam
p1113
sI1113
Vt\u2018\u025bm
p1114
sI1114
Vt\u025bm
p1115
sI1115
Vd\u025bm
p1116
sI1116
Vl\u025bm
p1117
sI1117
Vk\u2018\u025bm
p1118
sI1118
V*k\u025bm
p1119
sI1119
V\u0263\u025bm
p1120
sI1120
Vn\u025bm
p1121
sI1121
Vx\u025bm
p1122
sI1122
V\u0263\u025brm
p1123
sI1123
Vk\u025brm
p1124
sI1124
V\u0282\u025brm
p1125
sI1125
V\u0294\u025brm
p1126
sI1126
V\u014b\u025brm
p1127
sI1127
Vx\u025brm
p1128
sI1128
Vtr\u025brm
p1129
sI1129
Vnr\u025brm
p1130
sI1130
Vd\u0290\u025brm
p1131
sI1131
Vk\u2018\u025brm
p1132
sI1132
V\u0263arm
p1133
sI1133
Vd\u0290arm
p1134
sI1134
V\u014barm
p1135
sI1135
Vt\u0282\u2018arm
p1136
sI1136
V\u0282arm
p1137
sI1137
Vkarm
p1138
sI1138
Vbarm
p1139
sI1139
Vk\u2018arm
p1140
sI1140
V\u014b\u0268am
p1141
sI1141
Vx\u0268am
p1142
sI1142
V\u0294\u0268am
p1143
sI1143
Vk\u2018\u0268am
p1144
sI1144
Vbuam
p1145
sI1145
Vp\u2018uam
p1146
sI1146
Vtow\u014b\u02c0
p1147
sI1147
Vmow\u014b\u02c0
p1148
sI1148
Vk\u2018ow\u014b\u02c0
p1149
sI1149
Vsow\u014b\u02c0
p1150
sI1150
Vt\u2018ow\u014b\u02c0
p1151
sI1151
Vtsow\u014b\u02c0
p1152
sI1152
V\u0263ow\u014b\u02c0
p1153
sI1153
V\u0294ow\u014b\u02c0
p1154
sI1154
Vnow\u014b\u02c0
p1155
sI1155
Vpow\u014b\u02c0
p1156
sI1156
Vlow\u014b\u02c0
p1157
sI1157
Vxow\u014b\u02c0
p1158
sI1158
Vdow\u014b\u02c0
p1159
sI1159
Vbow\u014b\u02c0
p1160
sI1160
Vt\u0255uaw\u014b\u02c0
p1161
sI1161
Vtr\u2018uaw\u014b\u02c0
p1162
sI1162
Vluaw\u014b\u02c0
p1163
sI1163
V\u0294uaw\u014b\u02c0
p1164
sI1164
V\u0272uaw\u014b\u02c0
p1165
sI1165
Vdruaw\u014b\u02c0
p1166
sI1166
Vtruaw\u014b\u02c0
p1167
sI1167
Vbuaw\u014b\u02c0
p1168
sI1168
Vp\u2018uaw\u014b\u02c0
p1169
sI1169
Vjuaw\u014b\u02c0
p1170
sI1170
Vk\u2018uaw\u014b\u02c0
p1171
sI1171
Vd\u0291uaw\u014b\u02c0
p1172
sI1172
Vkuaw\u014b\u02c0
p1173
sI1173
Vsuaw\u014b\u02c0
p1174
sI1174
Vxuaw\u014b\u02c0
p1175
sI1175
Vpuaw\u014b\u02c0
p1176
sI1176
Vtaw\u014b\u02c0
p1177
sI1177
Vmuaw\u014b\u02c0
p1178
sI1178
Vguaw\u014b\u02c0
p1179
sI1179
Vt\u0255\u2018uaw\u014b\u02c0
p1180
sI1180
Vts\u2018uaw\u014b\u02c0
p1181
sI1181
Vtsuaw\u014b\u02c0
p1182
sI1182
Vkarw\u014b\u02c0
p1183
sI1183
Vbarw\u014b\u02c0
p1184
sI1184
V\u0294arw\u014b\u02c0
p1185
sI1185
Vmarw\u014b\u02c0
p1186
sI1186
V\u0263arw\u014b\u02c0
p1187
sI1187
Vparw\u014b\u02c0
p1188
sI1188
Vxarw\u014b\u02c0
p1189
sI1189
Vt\u0255i\u0103\u02c0
p1190
sI1190
Vd\u0291i\u0103\u02c0
p1191
sI1191
Vmi\u0103\u02c0
p1192
sI1192
Vpi\u0103\u02c0
p1193
sI1193
Vbi\u0103\u02c0
p1194
sI1194
Vxwi\u0103\u02c0
p1195
sI1195
V\u0294wi\u0103\u02c0
p1196
sI1196
Vk\u2018wi\u0103\u02c0
p1197
sI1197
Vkwi\u0103\u02c0
p1198
sI1198
Vswi\u0103\u02c0
p1199
sI1199
Vlwi\u0103\u02c0
p1200
sI1200
Vgi\u0103\u02c0
p1201
sI1201
V\u0294i\u0103\u02c0
p1202
sI1202
Vkji\u0103\u02c0
p1203
sI1203
Vk\u2018i\u0103\u02c0
p1204
sI1204
V\u014bi\u0103\u02c0
p1205
sI1205
Vwi\u0103\u02c0
p1206
sI1206
Vtswi\u0103\u02c0
p1207
sI1207
V\u0272wi\u0103\u02c0
p1208
sI1208
Vts\u2018i\u0103\u02c0
p1209
sI1209
Vdri\u0103\u02c0
p1210
sI1210
Vsi\u0103\u02c0
p1211
sI1211
Vji\u0103\u02c0
p1212
sI1212
Vli\u0103\u02c0
p1213
sI1213
V\u0282i\u0103\u02c0
p1214
sI1214
Vpji\u0103\u02c0
p1215
sI1215
V\u0272i\u0103\u02c0
p1216
sI1216
Vmji\u0103\u02c0
p1217
sI1217
Vbji\u0103\u02c0
p1218
sI1218
Vt\u0255\u2018i\u0103\u02c0
p1219
sI1219
V\u0255i\u0103\u02c0
p1220
sI1220
Vtsi\u0103\u02c0
p1221
sI1221
Vt\u0255wi\u0103\u02c0
p1222
sI1222
Vt\u0255\u2018wi\u0103\u02c0
p1223
sI1223
Vzwi\u0103\u02c0
p1224
sI1224
Vdzi\u0103\u02c0
p1225
sI1225
Vt\u0282i\u0103\u02c0
p1226
sI1226
Vp\u2018i\u0103\u02c0
p1227
sI1227
Vp\u2018ji\u0103\u02c0
p1228
sI1228
Vwji\u0103\u02c0
p1229
sI1229
Vdzwi\u0103\u02c0
p1230
sI1230
Vk\u2018jwi\u0103\u02c0
p1231
sI1231
Vnri\u0103\u02c0
p1232
sI1232
V\u014bwi\u0103\u02c0
p1233
sI1233
Vgwi\u0103\u02c0
p1234
sI1234
Vtr\u2018i\u0103\u02c0
p1235
sI1235
Vtri\u0103\u02c0
p1236
sI1236
Vxwi\u0103\u02c0
p1237
sI1237
Vk\u2018ji\u0103\u02c0
p1238
sI1238
Vd\u0291wi\u0103\u02c0
p1239
sI1239
Vt\u0255i\u0103\u02c0
p1240
sI1240
Vt\u0255i\u02c0
p1241
sI1241
Vd\u0291i\u02c0
p1242
sI1242
Vmi\u02c0
p1243
sI1243
Vpi\u02c0
p1244
sI1244
Vzi\u02c0
p1245
sI1245
Vki\u02c0
p1246
sI1246
Vtsi\u02c0
p1247
sI1247
Vpji\u02c0
p1248
sI1248
Vkwi\u02c0
p1249
sI1249
Vwi\u02c0
p1250
sI1250
V\u0255i\u02c0
p1251
sI1251
Vdri\u02c0
p1252
sI1252
Vsi\u02c0
p1253
sI1253
Vbji\u02c0
p1254
sI1254
Vli\u02c0
p1255
sI1255
V\u0255wi\u02c0
p1256
sI1256
Vlwi\u02c0
p1257
sI1257
Vgjwi\u02c0
p1258
sI1258
Vts\u2018wi\u02c0
p1259
sI1259
Vnri\u02c0
p1260
sI1260
Vkjwi\u02c0
p1261
sI1261
Vbi\u02c0
p1262
sI1262
Vdzwi\u02c0
p1263
sI1263
Vp\u2018i\u02c0
p1264
sI1264
V\u0272wi\u02c0
p1265
sI1265
Vwji\u02c0
p1266
sI1266
V\u0294i\u02c0
p1267
sI1267
Vtswi\u02c0
p1268
sI1268
Vtri\u02c0
p1269
sI1269
Vtr\u2018i\u02c0
p1270
sI1270
Vbi\u02c0
p1271
sI1271
Vxwi\u02c0
p1272
sI1272
Vgwi\u02c0
p1273
sI1273
Vki\u02c0
p1274
sI1274
Vk\u2018wi\u02c0
p1275
sI1275
Vt\u0255\u0268\u02c0
p1276
sI1276
Vd\u0291\u0268\u02c0
p1277
sI1277
Vtr\u0268\u02c0
p1278
sI1278
Vx\u0268\u02c0
p1279
sI1279
Vk\u0268\u02c0
p1280
sI1280
Vj\u0268\u02c0
p1281
sI1281
Vz\u0268\u02c0
p1282
sI1282
V\u0282\u0268\u02c0
p1283
sI1283
V\u0272\u0268\u02c0
p1284
sI1284
Vl\u0268\u02c0
p1285
sI1285
Vs\u0268\u02c0
p1286
sI1286
V\u0255\u0268\u02c0
p1287
sI1287
Vdr\u0268\u02c0
p1288
sI1288
Vk\u2018\u0268\u02c0
p1289
sI1289
Vd\u0290\u0268\u02c0
p1290
sI1290
V\u0290\u0268\u02c0
p1291
sI1291
Vts\u0268\u02c0
p1292
sI1292
Vj\u0268\u02c0
p1293
sI1293
V\u014b\u0268\u02c0
p1294
sI1294
Vt\u0255\u2018\u0268\u02c0
p1295
sI1295
Vtr\u2018\u0268\u02c0
p1296
sI1296
Vt\u0282\u2018\u0268\u02c0
p1297
sI1297
Vt\u0282\u0268\u02c0
p1298
sI1298
V\u0294\u0268\u02c0
p1299
sI1299
Vnr\u0268\u02c0
p1300
sI1300
Vmuj\u02c0
p1301
sI1301
V\u0294\u0268j\u02c0
p1302
sI1302
Vk\u2018\u0268j\u02c0
p1303
sI1303
Vk\u0268j\u02c0
p1304
sI1304
Vp\u2018uj\u02c0
p1305
sI1305
Vpuj\u02c0
p1306
sI1306
Vwuj\u02c0
p1307
sI1307
Vkuj\u02c0
p1308
sI1308
Vxuj\u02c0
p1309
sI1309
V\u014b\u0268j\u02c0
p1310
sI1310
Vx\u0268j\u02c0
p1311
sI1311
V\u0294uj\u02c0
p1312
sI1312
Vbuj\u02c0
p1313
sI1313
V\u014b\u0268\u0103\u02c0
p1314
sI1314
Vl\u0268\u0103\u02c0
p1315
sI1315
Vdr\u0268\u0103\u02c0
p1316
sI1316
Vj\u0268\u0103\u02c0
p1317
sI1317
Vt\u0255\u0268\u0103\u02c0
p1318
sI1318
V\u0272\u0268\u0103\u02c0
p1319
sI1319
V\u0255\u0268\u0103\u02c0
p1320
sI1320
Vt\u0255\u2018\u0268\u0103\u02c0
p1321
sI1321
Vtr\u0268\u0103\u02c0
p1322
sI1322
Vs\u0268\u0103\u02c0
p1323
sI1323
Vtr\u2018\u0268\u0103\u02c0
p1324
sI1324
Vnr\u0268\u0103\u02c0
p1325
sI1325
Vx\u0268\u0103\u02c0
p1326
sI1326
Vg\u0268\u0103\u02c0
p1327
sI1327
V\u0282\u0268\u0103\u02c0
p1328
sI1328
Vt\u0282\u2018\u0268\u0103\u02c0
p1329
sI1329
Vt\u0282\u0268\u0103\u02c0
p1330
sI1330
Vd\u0290\u0268\u0103\u02c0
p1331
sI1331
Vdz\u0268\u0103\u02c0
p1332
sI1332
V\u0294\u0268\u0103\u02c0
p1333
sI1333
Vk\u0268\u0103\u02c0
p1334
sI1334
Vz\u0268\u0103\u02c0
p1335
sI1335
Vk\u2018\u0268\u0103\u02c0
p1336
sI1336
V\u0291\u0268\u0103\u02c0
p1337
sI1337
Vd\u0291\u0268\u0103\u02c0
p1338
sI1338
Vts\u2018\u0268\u0103\u02c0
p1339
sI1339
Vts\u0268\u0103\u02c0
p1340
sI1340
V\u014bu\u0103\u02c0
p1341
sI1341
Vwu\u0103\u02c0
p1342
sI1342
Vdzu\u0103\u02c0
p1343
sI1343
Vpu\u0103\u02c0
p1344
sI1344
Vmu\u0103\u02c0
p1345
sI1345
Vbu\u0103\u02c0
p1346
sI1346
Vp\u2018u\u0103\u02c0
p1347
sI1347
Vdru\u0103\u02c0
p1348
sI1348
Vxu\u0103\u02c0
p1349
sI1349
Vd\u0291u\u0103\u02c0
p1350
sI1350
Vwu\u0103\u02c0
p1351
sI1351
Vt\u0255u\u0103\u02c0
p1352
sI1352
V\u0294u\u0103\u02c0
p1353
sI1353
Vk\u2018u\u0103\u02c0
p1354
sI1354
Vtru\u0103\u02c0
p1355
sI1355
V\u0272u\u0103\u02c0
p1356
sI1356
Vgu\u0103\u02c0
p1357
sI1357
V\u0282u\u0103\u02c0
p1358
sI1358
Vku\u0103\u02c0
p1359
sI1359
Vts\u2018u\u0103\u02c0
p1360
sI1360
Vlu\u0103\u02c0
p1361
sI1361
Vsu\u0103\u02c0
p1362
sI1362
Vd\u0290u\u0103\u02c0
p1363
sI1363
Vm\u0254\u02c0
p1364
sI1364
Vt\u2018\u0254\u02c0
p1365
sI1365
Vd\u0254\u02c0
p1366
sI1366
Vl\u0254\u02c0
p1367
sI1367
Vts\u2018\u0254\u02c0
p1368
sI1368
Vt\u0254\u02c0
p1369
sI1369
Vk\u0254\u02c0
p1370
sI1370
V\u014b\u0254\u02c0
p1371
sI1371
Vb\u0254\u02c0
p1372
sI1372
Vdz\u0254\u02c0
p1373
sI1373
Vts\u0254\u02c0
p1374
sI1374
Vx\u0254\u02c0
p1375
sI1375
V\u0294\u0254\u02c0
p1376
sI1376
Vk\u2018\u0254\u02c0
p1377
sI1377
Vn\u0254\u02c0
p1378
sI1378
V\u0263\u0254\u02c0
p1379
sI1379
Vp\u2018\u0254\u02c0
p1380
sI1380
Vp\u0254\u02c0
p1381
sI1381
Vdz\u025bj\u02c0
p1382
sI1382
Vl\u025bj\u02c0
p1383
sI1383
Vt\u2018\u025bj\u02c0
p1384
sI1384
Vp\u2018\u025bj\u02c0
p1385
sI1385
Vts\u025bj\u02c0
p1386
sI1386
Vt\u025bj\u02c0
p1387
sI1387
Vd\u025bj\u02c0
p1388
sI1388
Vn\u025bj\u02c0
p1389
sI1389
Vs\u025bj\u02c0
p1390
sI1390
Vts\u2018\u025bj\u02c0
p1391
sI1391
Vk\u2018\u025bj\u02c0
p1392
sI1392
V\u0263\u025bj\u02c0
p1393
sI1393
Vm\u025bj\u02c0
p1394
sI1394
Vb\u025bj\u02c0
p1395
sI1395
V\u0294\u025bj\u02c0
p1396
sI1396
V\u014b\u025bj\u02c0
p1397
sI1397
Vp\u025bj\u02c0
p1398
sI1398
V\u0263arj\u02c0
p1399
sI1399
Vmarj\u02c0
p1400
sI1400
Vk\u2018arj\u02c0
p1401
sI1401
Vdrarj\u02c0
p1402
sI1402
Vnrarj\u02c0
p1403
sI1403
Vbarj\u02c0
p1404
sI1404
V\u0294warj\u02c0
p1405
sI1405
Vbarj\u02c0
p1406
sI1406
Vkarj\u02c0
p1407
sI1407
V\u0282arj\u02c0
p1408
sI1408
Vkwarj\u02c0
p1409
sI1409
Vdrwarj\u02c0
p1410
sI1410
V\u0263warj\u02c0
p1411
sI1411
Vxwarj\u02c0
p1412
sI1412
Vgarj\u02c0
p1413
sI1413
V\u0263\u025brj\u02c0
p1414
sI1414
Vk\u2018\u025brj\u02c0
p1415
sI1415
V\u014b\u025brj\u02c0
p1416
sI1416
V\u0294\u025brj\u02c0
p1417
sI1417
V*xw\u01ddj\u02c0
p1418
sI1418
V*\u0294w\u01ddj\u02c0
p1419
sI1419
V*lw\u01ddj\u02c0
p1420
sI1420
V*dw\u01ddj\u02c0
p1421
sI1421
V*dzw\u01ddj\u02c0
p1422
sI1422
V*mw\u01ddj\u02c0
p1423
sI1423
V*t\u2018w\u01ddj\u02c0
p1424
sI1424
V*\u0263w\u01ddj\u02c0
p1425
sI1425
V*k\u2018w\u01ddj\u02c0
p1426
sI1426
V*tw\u01ddj\u02c0
p1427
sI1427
V*nw\u01ddj\u02c0
p1428
sI1428
Vtrw\u01ddj\u02c0
p1429
sI1429
V*\u014bw\u01ddj\u02c0
p1430
sI1430
V*ts\u2018w\u01ddj\u02c0
p1431
sI1431
V*bw\u01ddj\u02c0
p1432
sI1432
V*tsw\u01ddj\u02c0
p1433
sI1433
V*w\u01ddj\u02c0
p1434
sI1434
Vx\u01ddj\u02c0
p1435
sI1435
Vk\u2018\u01ddj\u02c0
p1436
sI1436
Vts\u01ddj\u02c0
p1437
sI1437
Vd\u01ddj\u02c0
p1438
sI1438
Vn\u01ddj\u02c0
p1439
sI1439
Vk\u01ddj\u02c0
p1440
sI1440
V\u0263\u01ddj\u02c0
p1441
sI1441
Vts\u2018\u01ddj\u02c0
p1442
sI1442
V*t\u0255\u2018\u01ddj\u02c0
p1443
sI1443
Vt\u01ddj\u02c0
p1444
sI1444
Vm\u01ddj\u02c0
p1445
sI1445
Vdz\u01ddj\u02c0
p1446
sI1446
Vp\u01ddj\u02c0
p1447
sI1447
V\u0294\u01ddj\u02c0
p1448
sI1448
Vj\u01ddj\u02c0
p1449
sI1449
Vt\u2018\u01ddj\u02c0
p1450
sI1450
V\u0272\u01ddj\u02c0
p1451
sI1451
Vl\u01ddj\u02c0
p1452
sI1452
V*j\u01ddj\u02c0
p1453
sI1453
Vb\u01ddj\u02c0
p1454
sI1454
Vt\u0255in\u02c0
p1455
sI1455
Vtr\u2018in\u02c0
p1456
sI1456
V\u0272in\u02c0
p1457
sI1457
V\u0255in\u02c0
p1458
sI1458
Vlin\u02c0
p1459
sI1459
Vdrin\u02c0
p1460
sI1460
Vkjin\u02c0
p1461
sI1461
Vdzin\u02c0
p1462
sI1462
Vtsin\u02c0
p1463
sI1463
Vbjin\u02c0
p1464
sI1464
V\u014bin\u02c0
p1465
sI1465
Vts\u2018in\u02c0
p1466
sI1466
Vgin\u02c0
p1467
sI1467
Vjin\u02c0
p1468
sI1468
Vmin\u02c0
p1469
sI1469
Vmjin\u02c0
p1470
sI1470
Vjin\u02c0
p1471
sI1471
Vt\u0255win\u02c0
p1472
sI1472
Vwjin\u02c0
p1473
sI1473
Vswin\u02c0
p1474
sI1474
V\u0272win\u02c0
p1475
sI1475
Vt\u0255\u2018win\u02c0
p1476
sI1476
V\u0291win\u02c0
p1477
sI1477
Vtr\u2018win\u02c0
p1478
sI1478
Vlwin\u02c0
p1479
sI1479
V\u0272win\u02c0
p1480
sI1480
Vk\u2018win\u02c0
p1481
sI1481
V*k\u2018in\u02c0
p1482
sI1482
V\u0255win\u02c0
p1483
sI1483
V*xin\u02c0
p1484
sI1484
V*d\u0290in\u02c0
p1485
sI1485
V*trin\u02c0
p1486
sI1486
Vmun\u02c0
p1487
sI1487
Vpun\u02c0
p1488
sI1488
Vbun\u02c0
p1489
sI1489
Vp\u2018un\u02c0
p1490
sI1490
V\u0294un\u02c0
p1491
sI1491
V\u014bun\u02c0
p1492
sI1492
Vwun\u02c0
p1493
sI1493
Vk\u2018un\u02c0
p1494
sI1494
V\u0294\u0268n\u02c0
p1495
sI1495
Vk\u0268n\u02c0
p1496
sI1496
Vt\u0255\u0268n\u02c0
p1497
sI1497
Vk\u2018\u0268n\u02c0
p1498
sI1498
Vg\u0268n\u02c0
p1499
sI1499
Vt\u0255\u2018\u0268n\u02c0
p1500
sI1500
V\u014b\u0268n\u02c0
p1501
sI1501
Vx\u0268n\u02c0
p1502
sI1502
V\u014buan\u02c0
p1503
sI1503
Vwuan\u02c0
p1504
sI1504
V\u0294\u0268an\u02c0
p1505
sI1505
Vk\u0268an\u02c0
p1506
sI1506
Vg\u0268an\u02c0
p1507
sI1507
Vk\u2018\u0268an\u02c0
p1508
sI1508
V\u014b\u0268an\u02c0
p1509
sI1509
Vx\u0268an\u02c0
p1510
sI1510
Vmuan\u02c0
p1511
sI1511
Vpuan\u02c0
p1512
sI1512
Vguan\u02c0
p1513
sI1513
V\u0294uan\u02c0
p1514
sI1514
Vk\u2018uan\u02c0
p1515
sI1515
Vxuan\u02c0
p1516
sI1516
Vbuan\u02c0
p1517
sI1517
V\u0263w\u01ddn\u02c0
p1518
sI1518
Vp\u2018w\u01ddn\u02c0
p1519
sI1519
Vts\u2018w\u01ddn\u02c0
p1520
sI1520
Vpw\u01ddn\u02c0
p1521
sI1521
Vsw\u01ddn\u02c0
p1522
sI1522
Vdw\u01ddn\u02c0
p1523
sI1523
Vdzw\u01ddn\u02c0
p1524
sI1524
Vkw\u01ddn\u02c0
p1525
sI1525
Vt\u2018w\u01ddn\u02c0
p1526
sI1526
Vk\u2018w\u01ddn\u02c0
p1527
sI1527
Vlw\u01ddn\u02c0
p1528
sI1528
Vmw\u01ddn\u02c0
p1529
sI1529
Vnw\u01ddn\u02c0
p1530
sI1530
Vxw\u01ddn\u02c0
p1531
sI1531
V\u0263\u01ddn\u02c0
p1532
sI1532
Vk\u2018\u01ddn\u02c0
p1533
sI1533
Vk\u01ddn\u02c0
p1534
sI1534
V\u0263an\u02c0
p1535
sI1535
Vtan\u02c0
p1536
sI1536
Vt\u2018an\u02c0
p1537
sI1537
Vsan\u02c0
p1538
sI1538
Vdan\u02c0
p1539
sI1539
Vdzan\u02c0
p1540
sI1540
Vkan\u02c0
p1541
sI1541
Vlan\u02c0
p1542
sI1542
Vk\u2018an\u02c0
p1543
sI1543
Vxan\u02c0
p1544
sI1544
Vtsan\u02c0
p1545
sI1545
V\u0263wan\u02c0
p1546
sI1546
V\u0294wan\u02c0
p1547
sI1547
Vswan\u02c0
p1548
sI1548
Vkwan\u02c0
p1549
sI1549
Vlwan\u02c0
p1550
sI1550
Vk\u2018wan\u02c0
p1551
sI1551
Vnwan\u02c0
p1552
sI1552
Vtswan\u02c0
p1553
sI1553
Vbwan\u02c0
p1554
sI1554
Vmwan\u02c0
p1555
sI1555
Vpwan\u02c0
p1556
sI1556
Vdzwan\u02c0
p1557
sI1557
Vdwan\u02c0
p1558
sI1558
V*nan\u02c0
p1559
sI1559
Vp\u2018wan\u02c0
p1560
sI1560
V\u0282arn\u02c0
p1561
sI1561
V\u0294warn\u02c0
p1562
sI1562
Vpwarn\u02c0
p1563
sI1563
Vt\u0282arn\u02c0
p1564
sI1564
Vnrarn\u02c0
p1565
sI1565
V\u0263arn\u02c0
p1566
sI1566
V\u0263warn\u02c0
p1567
sI1567
Vbwarn\u02c0
p1568
sI1568
Vmwarn\u02c0
p1569
sI1569
Vd\u0290arn\u02c0
p1570
sI1570
V\u014barn\u02c0
p1571
sI1571
Vt\u0282\u2018arn\u02c0
p1572
sI1572
Vp\u2018warn\u02c0
p1573
sI1573
Vd\u0290warn\u02c0
p1574
sI1574
V\u0282\u025brn\u02c0
p1575
sI1575
V\u0263\u025brn\u02c0
p1576
sI1576
Vm\u025brn\u02c0
p1577
sI1577
Vk\u025brn\u02c0
p1578
sI1578
Vt\u0282\u2018\u025brn\u02c0
p1579
sI1579
Vd\u0290\u025brn\u02c0
p1580
sI1580
V\u014b\u025brn\u02c0
p1581
sI1581
Vt\u0282\u025brn\u02c0
p1582
sI1582
Vt\u0282\u2018w\u025brn\u02c0
p1583
sI1583
Vk\u2018\u025brn\u02c0
p1584
sI1584
Vs\u025bn\u02c0
p1585
sI1585
Vt\u2018\u025bn\u02c0
p1586
sI1586
Vt\u025bn\u02c0
p1587
sI1587
V\u0294\u025bn\u02c0
p1588
sI1588
Vd\u025bn\u02c0
p1589
sI1589
Vk\u025bn\u02c0
p1590
sI1590
V\u0263\u025bn\u02c0
p1591
sI1591
Vx\u025bn\u02c0
p1592
sI1592
Vm\u025bn\u02c0
p1593
sI1593
Vn\u025bn\u02c0
p1594
sI1594
Vp\u025bn\u02c0
p1595
sI1595
V\u0263w\u025bn\u02c0
p1596
sI1596
Vkw\u025bn\u02c0
p1597
sI1597
Vb\u025bn\u02c0
p1598
sI1598
Vk\u2018w\u025bn\u02c0
p1599
sI1599
Vk\u2018\u025bn\u02c0
p1600
sI1600
V\u014b\u025bn\u02c0
p1601
sI1601
Vsian\u02c0
p1602
sI1602
Vjian\u02c0
p1603
sI1603
Vdzian\u02c0
p1604
sI1604
Vtrian\u02c0
p1605
sI1605
Vt\u0255ian\u02c0
p1606
sI1606
Vnrian\u02c0
p1607
sI1607
Vts\u2018ian\u02c0
p1608
sI1608
Vt\u0255\u2018ian\u02c0
p1609
sI1609
Vk\u2018jian\u02c0
p1610
sI1610
Vkian\u02c0
p1611
sI1611
Vd\u0291ian\u02c0
p1612
sI1612
Vtsian\u02c0
p1613
sI1613
V\u0272ian\u02c0
p1614
sI1614
Vzian\u02c0
p1615
sI1615
Vlian\u02c0
p1616
sI1616
V\u014bian\u02c0
p1617
sI1617
Vgian\u02c0
p1618
sI1618
Vbian\u02c0
p1619
sI1619
Vmjian\u02c0
p1620
sI1620
Vpjian\u02c0
p1621
sI1621
Vtswian\u02c0
p1622
sI1622
Vdzwian\u02c0
p1623
sI1623
Vpian\u02c0
p1624
sI1624
Vwjian\u02c0
p1625
sI1625
Vlwian\u02c0
p1626
sI1626
Vtrwian\u02c0
p1627
sI1627
Vkwian\u02c0
p1628
sI1628
Vgwian\u02c0
p1629
sI1629
V\u0272wian\u02c0
p1630
sI1630
Vt\u0255\u2018wian\u02c0
p1631
sI1631
V\u0255wian\u02c0
p1632
sI1632
Vdrwian\u02c0
p1633
sI1633
Vt\u0255wian\u02c0
p1634
sI1634
Vswian\u02c0
p1635
sI1635
V\u0291ian\u02c0
p1636
sI1636
Vgjwian\u02c0
p1637
sI1637
Vxjwian\u02c0
p1638
sI1638
Vbjian\u02c0
p1639
sI1639
Vmian\u02c0
p1640
sI1640
Vtr\u2018ian\u02c0
p1641
sI1641
Vp\u2018ian\u02c0
p1642
sI1642
V\u0255ian\u02c0
p1643
sI1643
V\u0294ian\u02c0
p1644
sI1644
Vdrian\u02c0
p1645
sI1645
V*d\u0290ian\u02c0
p1646
sI1646
Vs\u025bw\u02c0
p1647
sI1647
Vk\u025bw\u02c0
p1648
sI1648
Vt\u025bw\u02c0
p1649
sI1649
Vl\u025bw\u02c0
p1650
sI1650
Vt\u2018\u025bw\u02c0
p1651
sI1651
Vx\u025bw\u02c0
p1652
sI1652
V\u0294\u025bw\u02c0
p1653
sI1653
Vn\u025bw\u02c0
p1654
sI1654
V\u0263\u025bw\u02c0
p1655
sI1655
Vd\u025bw\u02c0
p1656
sI1656
Vk\u2018\u025bw\u02c0
p1657
sI1657
Vts\u025bw\u02c0
p1658
sI1658
Vsiaw\u02c0
p1659
sI1659
Vdriaw\u02c0
p1660
sI1660
Vt\u0255iaw\u02c0
p1661
sI1661
V\u0294iaw\u02c0
p1662
sI1662
V\u0255iaw\u02c0
p1663
sI1663
V\u0272iaw\u02c0
p1664
sI1664
Vbjiaw\u02c0
p1665
sI1665
Vt\u0255\u2018iaw\u02c0
p1666
sI1666
Vp\u2018jiaw\u02c0
p1667
sI1667
Vmjiaw\u02c0
p1668
sI1668
Vd\u0291iaw\u02c0
p1669
sI1669
Vkjiaw\u02c0
p1670
sI1670
Vpiaw\u02c0
p1671
sI1671
Vpjiaw\u02c0
p1672
sI1672
Vbiaw\u02c0
p1673
sI1673
Vjiaw\u02c0
p1674
sI1674
Vts\u2018iaw\u02c0
p1675
sI1675
Vtsiaw\u02c0
p1676
sI1676
Vgiaw\u02c0
p1677
sI1677
Vliaw\u02c0
p1678
sI1678
Vp\u2018iaw\u02c0
p1679
sI1679
V\u0294jiaw\u02c0
p1680
sI1680
Vk\u2018arw\u02c0
p1681
sI1681
V\u0263arw\u02c0
p1682
sI1682
Vparw\u02c0
p1683
sI1683
Vnrarw\u02c0
p1684
sI1684
Vmarw\u02c0
p1685
sI1685
Vkarw\u02c0
p1686
sI1686
Vt\u0282arw\u02c0
p1687
sI1687
V\u0294arw\u02c0
p1688
sI1688
Vbarw\u02c0
p1689
sI1689
V\u014barw\u02c0
p1690
sI1690
Vd\u0290arw\u02c0
p1691
sI1691
Vt\u0282\u2018arw\u02c0
p1692
sI1692
Vtrarw\u02c0
p1693
sI1693
V\u0282arw\u02c0
p1694
sI1694
V\u0263aw\u02c0
p1695
sI1695
Vbaw\u02c0
p1696
sI1696
Vlaw\u02c0
p1697
sI1697
Vt\u2018aw\u02c0
p1698
sI1698
Vdaw\u02c0
p1699
sI1699
Vnaw\u02c0
p1700
sI1700
Vsaw\u02c0
p1701
sI1701
Vtaw\u02c0
p1702
sI1702
Vts\u2018aw\u02c0
p1703
sI1703
Vtsaw\u02c0
p1704
sI1704
Vdzaw\u02c0
p1705
sI1705
Vkaw\u02c0
p1706
sI1706
Vxaw\u02c0
p1707
sI1707
Vmaw\u02c0
p1708
sI1708
Vpaw\u02c0
p1709
sI1709
V\u0294aw\u02c0
p1710
sI1710
Vk\u2018aw\u02c0
p1711
sI1711
V\u014baw\u02c0
p1712
sI1712
Vka\u0103\u02c0
p1713
sI1713
Vts\u2018a\u0103\u02c0
p1714
sI1714
Vta\u0103\u02c0
p1715
sI1715
Vsa\u0103\u02c0
p1716
sI1716
Vda\u0103\u02c0
p1717
sI1717
V\u014ba\u0103\u02c0
p1718
sI1718
Vt\u2018a\u0103\u02c0
p1719
sI1719
Vla\u0103\u02c0
p1720
sI1720
Vna\u0103\u02c0
p1721
sI1721
V\u0263a\u0103\u02c0
p1722
sI1722
Vxa\u0103\u02c0
p1723
sI1723
Vk\u2018a\u0103\u02c0
p1724
sI1724
V\u0294a\u0103\u02c0
p1725
sI1725
Vtsa\u0103\u02c0
p1726
sI1726
Vkwa\u0103\u02c0
p1727
sI1727
Vtwa\u0103\u02c0
p1728
sI1728
Vswa\u0103\u02c0
p1729
sI1729
Vdwa\u0103\u02c0
p1730
sI1730
Vt\u2018wa\u0103\u02c0
p1731
sI1731
Vmwa\u0103\u02c0
p1732
sI1732
Vdzwa\u0103\u02c0
p1733
sI1733
V\u014bwa\u0103\u02c0
p1734
sI1734
Vlwa\u0103\u02c0
p1735
sI1735
V\u0294wa\u0103\u02c0
p1736
sI1736
Vnwa\u0103\u02c0
p1737
sI1737
Vpwa\u0103\u02c0
p1738
sI1738
Vp\u2018wa\u0103\u02c0
p1739
sI1739
V\u0263wa\u0103\u02c0
p1740
sI1740
Vxwa\u0103\u02c0
p1741
sI1741
Vk\u2018wa\u0103\u02c0
p1742
sI1742
Vbwa\u0103\u02c0
p1743
sI1743
Vts\u2018wa\u0103\u02c0
p1744
sI1744
Vtswa\u0103\u02c0
p1745
sI1745
Vmar\u02c0
p1746
sI1746
Vt\u0255ia\u0103\u02c0
p1747
sI1747
Vjia\u0103\u02c0
p1748
sI1748
V\u014bar\u02c0
p1749
sI1749
Vkar\u02c0
p1750
sI1750
V\u0282ar\u02c0
p1751
sI1751
V\u0294ar\u02c0
p1752
sI1752
Vzia\u0103\u02c0
p1753
sI1753
V\u0263ar\u02c0
p1754
sI1754
Vsia\u0103\u02c0
p1755
sI1755
Vt\u0282war\u02c0
p1756
sI1756
Vmia\u0103\u02c0
p1757
sI1757
Vts\u2018ia\u0103\u02c0
p1758
sI1758
Vxar\u02c0
p1759
sI1759
Vd\u0291ia\u0103\u02c0
p1760
sI1760
Vk\u2018ar\u02c0
p1761
sI1761
Vbar\u02c0
p1762
sI1762
V\u0255ia\u0103\u02c0
p1763
sI1763
Vtsia\u0103\u02c0
p1764
sI1764
Vpar\u02c0
p1765
sI1765
V\u0263war\u02c0
p1766
sI1766
Vkwar\u02c0
p1767
sI1767
V\u014bwar\u02c0
p1768
sI1768
V\u0272ia\u0103\u02c0
p1769
sI1769
Vt\u0282ar\u02c0
p1770
sI1770
Vtrwar\u02c0
p1771
sI1771
Vd\u0290ar\u02c0
p1772
sI1772
Vt\u0255\u2018ia\u0103\u02c0
p1773
sI1773
Vnria\u0103\u02c0
p1774
sI1774
Vnrar\u02c0
p1775
sI1775
Vk\u2018war\u02c0
p1776
sI1776
Vt\u0282\u2018war\u02c0
p1777
sI1777
Vtr\u2018war\u02c0
p1778
sI1778
Vd\u0290war\u02c0
p1779
sI1779
Vtr\u2018ar\u02c0
p1780
sI1780
Vlar\u02c0
p1781
sI1781
Vj\u0268a\u0103\u014b\u02c0
p1782
sI1782
Vz\u0268a\u0103\u014b\u02c0
p1783
sI1783
Vts\u0268a\u0103\u014b\u02c0
p1784
sI1784
Vl\u0268a\u0103\u014b\u02c0
p1785
sI1785
V\u0294\u0268a\u0103\u014b\u02c0
p1786
sI1786
Vg\u0268a\u0103\u014b\u02c0
p1787
sI1787
V\u014b\u0268a\u0103\u014b\u02c0
p1788
sI1788
Vt\u0282\u2018\u0268a\u0103\u014b\u02c0
p1789
sI1789
Vs\u0268a\u0103\u014b\u02c0
p1790
sI1790
Vt\u0255\u0268a\u0103\u014b\u02c0
p1791
sI1791
V\u0282\u0268a\u0103\u014b\u02c0
p1792
sI1792
Vx\u0268a\u0103\u014b\u02c0
p1793
sI1793
Vt\u0255\u2018\u0268a\u0103\u014b\u02c0
p1794
sI1794
Vk\u0268a\u0103\u014b\u02c0
p1795
sI1795
Vdr\u0268a\u0103\u014b\u02c0
p1796
sI1796
Vtr\u2018\u0268a\u0103\u014b\u02c0
p1797
sI1797
Vk\u0268a\u0103\u014b\u02c0
p1798
sI1798
V\u0272\u0268a\u0103\u014b\u02c0
p1799
sI1799
V\u0255\u0268a\u0103\u014b\u02c0
p1800
sI1800
Vp\u2018\u0268a\u0103\u014b\u02c0
p1801
sI1801
Vm\u0268a\u0103\u014b\u02c0
p1802
sI1802
Vp\u0268a\u0103\u014b\u02c0
p1803
sI1803
V\u0294ua\u0103\u014b\u02c0
p1804
sI1804
Vwua\u0103\u014b\u02c0
p1805
sI1805
Vxua\u0103\u014b\u02c0
p1806
sI1806
Vts\u2018\u0268a\u0103\u014b\u02c0
p1807
sI1807
Vtr\u0268a\u0103\u014b\u02c0
p1808
sI1808
Vd\u0291\u0268a\u0103\u014b\u02c0
p1809
sI1809
Vgua\u0103\u014b\u02c0
p1810
sI1810
Vkua\u0103\u014b\u02c0
p1811
sI1811
Vb\u0268a\u0103\u014b\u02c0
p1812
sI1812
Vt\u0282\u2018\u0268a\u0103\u014b\u02c0
p1813
sI1813
Vda\u0103\u014b\u02c0
p1814
sI1814
Vsa\u0103\u014b\u02c0
p1815
sI1815
Vkwa\u0103\u014b\u02c0
p1816
sI1816
Vpa\u0103\u014b\u02c0
p1817
sI1817
Vtsa\u0103\u014b\u02c0
p1818
sI1818
Vna\u0103\u014b\u02c0
p1819
sI1819
V\u0263a\u0103\u014b\u02c0
p1820
sI1820
Vt\u2018a\u0103\u014b\u02c0
p1821
sI1821
Vma\u0103\u014b\u02c0
p1822
sI1822
Vta\u0103\u014b\u02c0
p1823
sI1823
Vla\u0103\u014b\u02c0
p1824
sI1824
V\u0294a\u0103\u014b\u02c0
p1825
sI1825
Vk\u2018a\u0103\u014b\u02c0
p1826
sI1826
V\u0294wa\u0103\u014b\u02c0
p1827
sI1827
V\u0263wa\u0103\u014b\u02c0
p1828
sI1828
Vp\u2018a\u0103\u014b\u02c0
p1829
sI1829
Vxwa\u0103\u014b\u02c0
p1830
sI1830
Vka\u0103\u014b\u02c0
p1831
sI1831
V\u014ba\u0103\u014b\u02c0
p1832
sI1832
Vdza\u0103\u014b\u02c0
p1833
sI1833
Vts\u2018a\u0103\u014b\u02c0
p1834
sI1834
Vxa\u0103\u014b\u02c0
p1835
sI1835
Vk\u2018wa\u0103\u014b\u02c0
p1836
sI1836
Vkarj\u014b\u02c0
p1837
sI1837
Vpiaj\u014b\u02c0
p1838
sI1838
Vkiaj\u014b\u02c0
p1839
sI1839
V\u0294iaj\u014b\u02c0
p1840
sI1840
V\u0282arj\u014b\u02c0
p1841
sI1841
Vwiaj\u014b\u02c0
p1842
sI1842
Vxwiaj\u014b\u02c0
p1843
sI1843
Vmiaj\u014b\u02c0
p1844
sI1844
Vkwiaj\u014b\u02c0
p1845
sI1845
V\u0263arj\u014b\u02c0
p1846
sI1846
Vmarj\u014b\u02c0
p1847
sI1847
Vkwarj\u014b\u02c0
p1848
sI1848
Vparj\u014b\u02c0
p1849
sI1849
Vtrarj\u014b\u02c0
p1850
sI1850
Vdrarj\u014b\u02c0
p1851
sI1851
V\u0294arj\u014b\u02c0
p1852
sI1852
Vtaj\u014b\u02c0
p1853
sI1853
Vlarj\u014b\u02c0
p1854
sI1854
V\u0263warj\u014b\u02c0
p1855
sI1855
Vbarj\u014b\u02c0
p1856
sI1856
Vk\u2018warj\u014b\u02c0
p1857
sI1857
Vzaj\u014b\u02c0
p1858
sI1858
Vk\u025brj\u014b\u02c0
p1859
sI1859
Vm\u025brj\u014b\u02c0
p1860
sI1860
V\u0263\u025brj\u014b\u02c0
p1861
sI1861
Vb\u025brj\u014b\u02c0
p1862
sI1862
Vp\u2018\u025brj\u014b\u02c0
p1863
sI1863
Vdziaj\u014b\u02c0
p1864
sI1864
Vt\u0255iaj\u014b\u02c0
p1865
sI1865
Vtr\u2018iaj\u014b\u02c0
p1866
sI1866
Vjiaj\u014b\u02c0
p1867
sI1867
Vgiaj\u014b\u02c0
p1868
sI1868
Vwjiaj\u014b\u02c0
p1869
sI1869
Vliaj\u014b\u02c0
p1870
sI1870
Vkiaj\u014b\u02c0
p1871
sI1871
Vpjiaj\u014b\u02c0
p1872
sI1872
Vk\u2018jwiaj\u014b\u02c0
p1873
sI1873
Vtsiaj\u014b\u02c0
p1874
sI1874
V\u0294jiaj\u014b\u02c0
p1875
sI1875
Vts\u2018iaj\u014b\u02c0
p1876
sI1876
Vsiaj\u014b\u02c0
p1877
sI1877
Vmjiaj\u014b\u02c0
p1878
sI1878
Vmjiaj\u014b\u02c0
p1879
sI1879
V\u0263w\u025bj\u014b\u02c0
p1880
sI1880
Vkw\u025bj\u014b\u02c0
p1881
sI1881
Vm\u025bj\u014b\u02c0
p1882
sI1882
Vt\u025bj\u014b\u02c0
p1883
sI1883
Vd\u025bj\u014b\u02c0
p1884
sI1884
Vt\u2018\u025bj\u014b\u02c0
p1885
sI1885
Vdz\u025bj\u014b\u02c0
p1886
sI1886
V\u0294w\u025bj\u014b\u02c0
p1887
sI1887
Vk\u2018\u025bj\u014b\u02c0
p1888
sI1888
Vn\u025bj\u014b\u02c0
p1889
sI1889
V\u0263\u025bj\u014b\u02c0
p1890
sI1890
Vs\u025bj\u014b\u02c0
p1891
sI1891
Vp\u025bj\u014b\u02c0
p1892
sI1892
Vk\u2018w\u025bj\u014b\u02c0
p1893
sI1893
Vk\u025bj\u014b\u02c0
p1894
sI1894
Vp\u2018\u025bj\u014b\u02c0
p1895
sI1895
V\u0294\u025bj\u014b\u02c0
p1896
sI1896
Vl\u025bj\u014b\u02c0
p1897
sI1897
Vb\u025bj\u014b\u02c0
p1898
sI1898
Vxw\u025bj\u014b\u02c0
p1899
sI1899
V\u014b\u025bj\u014b\u02c0
p1900
sI1900
Vt\u0255i\u014b\u02c0
p1901
sI1901
Vtr\u2018i\u014b\u02c0
p1902
sI1902
Vk\u2018i\u014b\u02c0
p1903
sI1903
V\u0255i\u014b\u02c0
p1904
sI1904
Vt\u01dd\u014b\u02c0
p1905
sI1905
Vp\u2018\u01dd\u014b\u02c0
p1906
sI1906
Vk\u2018\u01dd\u014b\u02c0
p1907
sI1907
Vn\u01dd\u014b\u02c0
p1908
sI1908
Vjuw\u02c0
p1909
sI1909
Vluw\u02c0
p1910
sI1910
Vnruw\u02c0
p1911
sI1911
Vtr\u2018uw\u02c0
p1912
sI1912
Vtruw\u02c0
p1913
sI1913
Vxuw\u02c0
p1914
sI1914
Vkuw\u02c0
p1915
sI1915
V\u0255uw\u02c0
p1916
sI1916
Vt\u0255\u2018uw\u02c0
p1917
sI1917
Vdzuw\u02c0
p1918
sI1918
Vbuw\u02c0
p1919
sI1919
Vpuw\u02c0
p1920
sI1920
Vk\u2018uw\u02c0
p1921
sI1921
V\u0272uw\u02c0
p1922
sI1922
Vguw\u02c0
p1923
sI1923
Vdruw\u02c0
p1924
sI1924
Vjuw\u02c0
p1925
sI1925
Vd\u0291uw\u02c0
p1926
sI1926
Vsuw\u02c0
p1927
sI1927
V\u0294uw\u02c0
p1928
sI1928
Vtsuw\u02c0
p1929
sI1929
V\u0282uw\u02c0
p1930
sI1930
Vt\u0255uw\u02c0
p1931
sI1931
Vp\u2018uw\u02c0
p1932
sI1932
Vt\u0282uw\u02c0
p1933
sI1933
Vd\u0290uw\u02c0
p1934
sI1934
Vt\u0282\u2018uw\u02c0
p1935
sI1935
Vp\u2018uw\u02c0
p1936
sI1936
V\u0263ow\u02c0
p1937
sI1937
Vmow\u02c0
p1938
sI1938
Vbow\u02c0
p1939
sI1939
Vtow\u02c0
p1940
sI1940
Vt\u2018ow\u02c0
p1941
sI1941
Vkow\u02c0
p1942
sI1942
V\u014bow\u02c0
p1943
sI1943
Vpow\u02c0
p1944
sI1944
Vnow\u02c0
p1945
sI1945
Vsow\u02c0
p1946
sI1946
Vxow\u02c0
p1947
sI1947
Vp\u2018ow\u02c0
p1948
sI1948
V\u0294ow\u02c0
p1949
sI1949
Vlow\u02c0
p1950
sI1950
Vtsow\u02c0
p1951
sI1951
Vk\u2018ow\u02c0
p1952
sI1952
Vdow\u02c0
p1953
sI1953
Vdzow\u02c0
p1954
sI1954
Vts\u2018ow\u02c0
p1955
sI1955
V\u0294jiw\u02c0
p1956
sI1956
Vkjiw\u02c0
p1957
sI1957
Vgjiw\u02c0
p1958
sI1958
Vts\u2018im\u02c0
p1959
sI1959
Vdrim\u02c0
p1960
sI1960
Vk\u2018im\u02c0
p1961
sI1961
Vlim\u02c0
p1962
sI1962
Vsim\u02c0
p1963
sI1963
Vtr\u2018im\u02c0
p1964
sI1964
Vtsim\u02c0
p1965
sI1965
V\u0272im\u02c0
p1966
sI1966
Vt\u0255im\u02c0
p1967
sI1967
V\u0255im\u02c0
p1968
sI1968
V\u0291im\u02c0
p1969
sI1969
Vd\u0291im\u02c0
p1970
sI1970
Vt\u0255\u2018im\u02c0
p1971
sI1971
Vt\u0282\u2018im\u02c0
p1972
sI1972
Vnrim\u02c0
p1973
sI1973
Vgim\u02c0
p1974
sI1974
Vkim\u02c0
p1975
sI1975
Vdzim\u02c0
p1976
sI1976
V\u014bim\u02c0
p1977
sI1977
V\u0282im\u02c0
p1978
sI1978
Vpim\u02c0
p1979
sI1979
V\u0294im\u02c0
p1980
sI1980
Vp\u2018im\u02c0
p1981
sI1981
Vk\u2018jim\u02c0
p1982
sI1982
Vxim\u02c0
p1983
sI1983
Vtrim\u02c0
p1984
sI1984
Vjim\u02c0
p1985
sI1985
Vd\u0290im\u02c0
p1986
sI1986
Vk\u01ddm\u02c0
p1987
sI1987
Vd\u01ddm\u02c0
p1988
sI1988
V\u0294\u01ddm\u02c0
p1989
sI1989
Vn\u01ddm\u02c0
p1990
sI1990
Vt\u2018\u01ddm\u02c0
p1991
sI1991
Vdz\u01ddm\u02c0
p1992
sI1992
Vts\u2018\u01ddm\u02c0
p1993
sI1993
V\u014b\u01ddm\u02c0
p1994
sI1994
Vts\u01ddm\u02c0
p1995
sI1995
Vs\u01ddm\u02c0
p1996
sI1996
Vk\u2018\u01ddm\u02c0
p1997
sI1997
V\u014b\u01ddm\u02c0
p1998
sI1998
Vl\u01ddm\u02c0
p1999
sI1999
Vt\u01ddm\u02c0
p2000
sI2000
Vx\u01ddm\u02c0
p2001
sI2001
Vkam\u02c0
p2002
sI2002
V*\u0255iam\u02c0
p2003
sI2003
Vlam\u02c0
p2004
sI2004
Vt\u2018am\u02c0
p2005
sI2005
Vtam\u02c0
p2006
sI2006
Vdam\u02c0
p2007
sI2007
Vts\u2018am\u02c0
p2008
sI2008
Vmam\u02c0
p2009
sI2009
Vtsam\u02c0
p2010
sI2010
Vdzam\u02c0
p2011
sI2011
Vxam\u02c0
p2012
sI2012
V\u0294am\u02c0
p2013
sI2013
Vk\u2018am\u02c0
p2014
sI2014
Vjiam\u02c0
p2015
sI2015
Vliam\u02c0
p2016
sI2016
Vxiam\u02c0
p2017
sI2017
Vpiam\u02c0
p2018
sI2018
Vt\u0255iam\u02c0
p2019
sI2019
Vk\u2018iam\u02c0
p2020
sI2020
V\u014biam\u02c0
p2021
sI2021
Vgiam\u02c0
p2022
sI2022
Vkiam\u02c0
p2023
sI2023
V\u0294jiam\u02c0
p2024
sI2024
V\u0255iam\u02c0
p2025
sI2025
Vtr\u2018iam\u02c0
p2026
sI2026
V\u0294iam\u02c0
p2027
sI2027
Vdziam\u02c0
p2028
sI2028
Vts\u2018iam\u02c0
p2029
sI2029
Vtsiam\u02c0
p2030
sI2030
Vk\u2018jiam\u02c0
p2031
sI2031
Vd\u0291iam\u02c0
p2032
sI2032
Vt\u2018\u025bm\u02c0
p2033
sI2033
Vn\u025bm\u02c0
p2034
sI2034
Vt\u025bm\u02c0
p2035
sI2035
Vd\u025bm\u02c0
p2036
sI2036
Vk\u2018\u025bm\u02c0
p2037
sI2037
Vl\u025bm\u02c0
p2038
sI2038
V*\u0263\u025bm\u02c0
p2039
sI2039
Vts\u2018\u025bm\u02c0
p2040
sI2040
Vk\u025bm\u02c0
p2041
sI2041
Vm\u025bm\u02c0
p2042
sI2042
V\u0263\u025brm\u02c0
p2043
sI2043
V*k\u2018\u025brm\u02c0
p2044
sI2044
Vk\u2018\u025brm\u02c0
p2045
sI2045
Vk\u025brm\u02c0
p2046
sI2046
Vd\u0290\u025brm\u02c0
p2047
sI2047
Vl\u025brm\u02c0
p2048
sI2048
Vt\u0282\u025brm\u02c0
p2049
sI2049
Vt\u0282\u2018\u025brm\u02c0
p2050
sI2050
V\u0282\u025brm\u02c0
p2051
sI2051
V\u0294\u025brm\u02c0
p2052
sI2052
Vx\u025brm\u02c0
p2053
sI2053
V\u0290\u025brm\u02c0
p2054
sI2054
Vnr\u025brm\u02c0
p2055
sI2055
Vtr\u2018\u025brm\u02c0
p2056
sI2056
V\u0263arm\u02c0
p2057
sI2057
Vk\u2018arm\u02c0
p2058
sI2058
V\u0282arm\u02c0
p2059
sI2059
V\u0294arm\u02c0
p2060
sI2060
Vt\u0282\u2018arm\u02c0
p2061
sI2061
Vxarm\u02c0
p2062
sI2062
Vd\u0290arm\u02c0
p2063
sI2063
V\u014b\u0268am\u02c0
p2064
sI2064
Vk\u2018\u0268am\u02c0
p2065
sI2065
V*d\u0290\u0268am\u02c0
p2066
sI2066
Vbuam\u02c0
p2067
sI2067
Vmuam\u02c0
p2068
sI2068
Vpuam\u02c0
p2069
sI2069
Vk\u2018uam\u02c0
p2070
sI2070
Vp\u2018uam\u02c0
p2071
sI2071
Vtr\u2018uam\u02c0
p2072
sI2072
Vsow\u014b\u02b0
p2073
sI2073
Vbuw\u014b\u02b0
p2074
sI2074
Vkow\u014b\u02b0
p2075
sI2075
Vlow\u014b\u02b0
p2076
sI2076
Vtow\u014b\u02b0
p2077
sI2077
Vk\u2018ow\u014b\u02b0
p2078
sI2078
Vtsow\u014b\u02b0
p2079
sI2079
V\u0294ow\u014b\u02b0
p2080
sI2080
Vts\u2018ow\u014b\u02b0
p2081
sI2081
Vdow\u014b\u02b0
p2082
sI2082
Vt\u2018ow\u014b\u02b0
p2083
sI2083
Vdruw\u014b\u02b0
p2084
sI2084
Vpuw\u014b\u02b0
p2085
sI2085
Vk\u2018uw\u014b\u02b0
p2086
sI2086
Vmow\u014b\u02b0
p2087
sI2087
Vxuw\u014b\u02b0
p2088
sI2088
Vmuw\u014b\u02b0
p2089
sI2089
Vts\u2018uw\u014b\u02b0
p2090
sI2090
Vp\u2018uw\u014b\u02b0
p2091
sI2091
Vdzow\u014b\u02b0
p2092
sI2092
Vtruw\u014b\u02b0
p2093
sI2093
V\u0263ow\u014b\u02b0
p2094
sI2094
Vnow\u014b\u02b0
p2095
sI2095
Vt\u0255uw\u014b\u02b0
p2096
sI2096
Vt\u0255\u2018uw\u014b\u02b0
p2097
sI2097
Vd\u0290ow\u014b\u02b0
p2098
sI2098
Vxow\u014b\u02b0
p2099
sI2099
Vsaw\u014b\u02b0
p2100
sI2100
Vtsaw\u014b\u02b0
p2101
sI2101
Vt\u2018aw\u014b\u02b0
p2102
sI2102
Vmaw\u014b\u02b0
p2103
sI2103
V\u0263aw\u014b\u02b0
p2104
sI2104
Vjuaw\u014b\u02b0
p2105
sI2105
Vzuaw\u014b\u02b0
p2106
sI2106
Vbuaw\u014b\u02b0
p2107
sI2107
Vguaw\u014b\u02b0
p2108
sI2108
Vpuaw\u014b\u02b0
p2109
sI2109
Vkuaw\u014b\u02b0
p2110
sI2110
V\u0294uaw\u014b\u02b0
p2111
sI2111
Vtruaw\u014b\u02b0
p2112
sI2112
Vtsuaw\u014b\u02b0
p2113
sI2113
Vtr\u2018uaw\u014b\u02b0
p2114
sI2114
V\u0272uaw\u014b\u02b0
p2115
sI2115
Vt\u0255uaw\u014b\u02b0
p2116
sI2116
Vdruaw\u014b\u02b0
p2117
sI2117
Vluaw\u014b\u02b0
p2118
sI2118
Vk\u2018uaw\u014b\u02b0
p2119
sI2119
Vdzuaw\u014b\u02b0
p2120
sI2120
Vnruaw\u014b\u02b0
p2121
sI2121
Vkarw\u014b\u02b0
p2122
sI2122
V\u0263arw\u014b\u02b0
p2123
sI2123
Vtrarw\u014b\u02b0
p2124
sI2124
Vdrarw\u014b\u02b0
p2125
sI2125
Vtr\u2018arw\u014b\u02b0
p2126
sI2126
Vd\u0290arw\u014b\u02b0
p2127
sI2127
Vp\u2018arw\u014b\u02b0
p2128
sI2128
Vt\u0282\u2018arw\u014b\u02b0
p2129
sI2129
V\u0282arw\u014b\u02b0
p2130
sI2130
Vt\u0255i\u0103\u02b0
p2131
sI2131
Vtwi\u0103\u02b0
p2132
sI2132
Vt\u0255wi\u0103\u02b0
p2133
sI2133
Vli\u0103\u02b0
p2134
sI2134
Vd\u0291i\u0103\u02b0
p2135
sI2135
Vtsi\u0103\u02b0
p2136
sI2136
Vsi\u0103\u02b0
p2137
sI2137
Vwi\u0103\u02b0
p2138
sI2138
Vkwi\u0103\u02b0
p2139
sI2139
Vp\u2018i\u0103\u02b0
p2140
sI2140
Vpi\u0103\u02b0
p2141
sI2141
Vbi\u0103\u02b0
p2142
sI2142
Vlwi\u0103\u02b0
p2143
sI2143
Vki\u0103\u02b0
p2144
sI2144
Vpji\u0103\u02b0
p2145
sI2145
Vgi\u0103\u02b0
p2146
sI2146
Vts\u2018i\u0103\u02b0
p2147
sI2147
Vji\u0103\u02b0
p2148
sI2148
V\u014bi\u0103\u02b0
p2149
sI2149
Vp\u2018ji\u0103\u02b0
p2150
sI2150
Vdzi\u0103\u02b0
p2151
sI2151
Vtri\u0103\u02b0
p2152
sI2152
V\u0294i\u0103\u02b0
p2153
sI2153
Vdrwi\u0103\u02b0
p2154
sI2154
Vt\u0255\u2018wi\u0103\u02b0
p2155
sI2155
Vxi\u0103\u02b0
p2156
sI2156
Vk\u2018ji\u0103\u02b0
p2157
sI2157
V\u0294ji\u0103\u02b0
p2158
sI2158
V\u0255i\u0103\u02b0
p2159
sI2159
V\u0282i\u0103\u02b0
p2160
sI2160
V\u0294wi\u0103\u02b0
p2161
sI2161
V\u014bwi\u0103\u02b0
p2162
sI2162
Vxwi\u0103\u02b0
p2163
sI2163
V\u0294jwi\u0103\u02b0
p2164
sI2164
Vd\u0291wi\u0103\u02b0
p2165
sI2165
Vkji\u0103\u02b0
p2166
sI2166
V\u0272wi\u0103\u02b0
p2167
sI2167
Vt\u0255\u2018i\u0103\u02b0
p2168
sI2168
Vswi\u0103\u02b0
p2169
sI2169
Vtrwi\u0103\u02b0
p2170
sI2170
Vwji\u0103\u02b0
p2171
sI2171
Vnrwi\u0103\u02b0
p2172
sI2172
Vkjwi\u0103\u02b0
p2173
sI2173
Vt\u0282i\u0103\u02b0
p2174
sI2174
Vxjwi\u0103\u02b0
p2175
sI2175
Vk\u2018i\u0103\u02b0
p2176
sI2176
Vt\u0255i\u02b0
p2177
sI2177
Vwi\u02b0
p2178
sI2178
Vmi\u02b0
p2179
sI2179
Vzwi\u02b0
p2180
sI2180
Vtswi\u02b0
p2181
sI2181
Vswi\u02b0
p2182
sI2182
Vlwi\u02b0
p2183
sI2183
Vpi\u02b0
p2184
sI2184
Vgwi\u02b0
p2185
sI2185
Vp\u2018i\u02b0
p2186
sI2186
Vbi\u02b0
p2187
sI2187
Vkwi\u02b0
p2188
sI2188
V\u0282wi\u02b0
p2189
sI2189
Vk\u2018wi\u02b0
p2190
sI2190
Vxwi\u02b0
p2191
sI2191
Vd\u0291i\u02b0
p2192
sI2192
Vli\u02b0
p2193
sI2193
Vnri\u02b0
p2194
sI2194
Vp\u2018ji\u02b0
p2195
sI2195
Vtri\u02b0
p2196
sI2196
Vk\u2018ji\u02b0
p2197
sI2197
Vdri\u02b0
p2198
sI2198
Vmji\u02b0
p2199
sI2199
Vtr\u2018i\u02b0
p2200
sI2200
Vki\u02b0
p2201
sI2201
Vgi\u02b0
p2202
sI2202
Vgjwi\u02b0
p2203
sI2203
Vts\u2018wi\u02b0
p2204
sI2204
V\u0272i\u02b0
p2205
sI2205
Vtsi\u02b0
p2206
sI2206
Vts\u2018i\u02b0
p2207
sI2207
V\u0294i\u02b0
p2208
sI2208
Vsi\u02b0
p2209
sI2209
Vk\u2018i\u02b0
p2210
sI2210
Vkjwi\u02b0
p2211
sI2211
Vbji\u02b0
p2212
sI2212
V\u014bwi\u02b0
p2213
sI2213
Vpji\u02b0
p2214
sI2214
Vdzwi\u02b0
p2215
sI2215
Vdi\u02b0
p2216
sI2216
Vxji\u02b0
p2217
sI2217
Vji\u02b0
p2218
sI2218
V\u0291i\u02b0
p2219
sI2219
Vdzi\u02b0
p2220
sI2220
Vdrwi\u02b0
p2221
sI2221
Vt\u0255\u2018wi\u02b0
p2222
sI2222
Vwji\u02b0
p2223
sI2223
Vxjwi\u02b0
p2224
sI2224
Vtrwi\u02b0
p2225
sI2225
Vt\u0255\u2018i\u02b0
p2226
sI2226
V\u0255i\u02b0
p2227
sI2227
Vt\u0282\u2018wi\u02b0
p2228
sI2228
V\u0255wi\u02b0
p2229
sI2229
Vt\u0255\u0268\u02b0
p2230
sI2230
Vdr\u0268\u02b0
p2231
sI2231
Vz\u0268\u02b0
p2232
sI2232
Vts\u2018\u0268\u02b0
p2233
sI2233
Vs\u0268\u02b0
p2234
sI2234
V\u0255\u0268\u02b0
p2235
sI2235
Vt\u0282\u0268\u02b0
p2236
sI2236
Vl\u0268\u02b0
p2237
sI2237
Vdz\u0268\u02b0
p2238
sI2238
Vtr\u2018\u0268\u02b0
p2239
sI2239
V\u0272\u0268\u02b0
p2240
sI2240
V\u0282\u0268\u02b0
p2241
sI2241
Vt\u0282\u2018\u0268\u02b0
p2242
sI2242
Vj\u0268\u02b0
p2243
sI2243
Vtr\u0268\u02b0
p2244
sI2244
Vd\u0291\u0268\u02b0
p2245
sI2245
Vd\u0290\u0268\u02b0
p2246
sI2246
Vg\u0268\u02b0
p2247
sI2247
Vt\u0255\u2018\u0268\u02b0
p2248
sI2248
V\u0294\u0268\u02b0
p2249
sI2249
Vk\u0268\u02b0
p2250
sI2250
Vx\u0268\u02b0
p2251
sI2251
V\u014b\u0268\u02b0
p2252
sI2252
Vk\u2018\u0268\u02b0
p2253
sI2253
Vmuj\u02b0
p2254
sI2254
Vkuj\u02b0
p2255
sI2255
Vwuj\u02b0
p2256
sI2256
V\u014buj\u02b0
p2257
sI2257
Vpuj\u02b0
p2258
sI2258
Vp\u2018uj\u02b0
p2259
sI2259
Vk\u2018uj\u02b0
p2260
sI2260
V\u0294uj\u02b0
p2261
sI2261
Vxuj\u02b0
p2262
sI2262
Vbuj\u02b0
p2263
sI2263
Vk\u0268j\u02b0
p2264
sI2264
V\u014b\u0268j\u02b0
p2265
sI2265
Vk\u2018\u0268j\u02b0
p2266
sI2266
Vx\u0268j\u02b0
p2267
sI2267
V\u0294\u0268j\u02b0
p2268
sI2268
V\u0294\u0268j\u02b0
p2269
sI2269
V\u014b\u0268\u0103\u02b0
p2270
sI2270
Vl\u0268\u0103\u02b0
p2271
sI2271
Vk\u0268\u0103\u02b0
p2272
sI2272
Vts\u2018\u0268\u0103\u02b0
p2273
sI2273
Vk\u2018\u0268\u0103\u02b0
p2274
sI2274
Vd\u0291\u0268\u0103\u02b0
p2275
sI2275
V\u0255\u0268\u0103\u02b0
p2276
sI2276
Vtr\u0268\u0103\u02b0
p2277
sI2277
Vt\u0255\u0268\u0103\u02b0
p2278
sI2278
V\u0282\u0268\u0103\u02b0
p2279
sI2279
V\u0294\u0268\u0103\u02b0
p2280
sI2280
Vdr\u0268\u0103\u02b0
p2281
sI2281
Vg\u0268\u0103\u02b0
p2282
sI2282
Vs\u0268\u0103\u02b0
p2283
sI2283
Vd\u0290\u0268\u0103\u02b0
p2284
sI2284
Vts\u0268\u0103\u02b0
p2285
sI2285
Vt\u0282\u0268\u0103\u02b0
p2286
sI2286
V\u0272\u0268\u0103\u02b0
p2287
sI2287
Vj\u0268\u0103\u02b0
p2288
sI2288
Vx\u0268\u0103\u02b0
p2289
sI2289
Vnr\u0268\u0103\u02b0
p2290
sI2290
Vt\u0282\u2018\u0268\u0103\u02b0
p2291
sI2291
Vt\u0255\u2018\u0268\u0103\u02b0
p2292
sI2292
Vtr\u2018\u0268\u0103\u02b0
p2293
sI2293
Vz\u0268\u0103\u02b0
p2294
sI2294
V\u014bu\u0103\u02b0
p2295
sI2295
V\u0294u\u0103\u02b0
p2296
sI2296
Vd\u0291u\u0103\u02b0
p2297
sI2297
Vdru\u0103\u02b0
p2298
sI2298
Vbu\u0103\u02b0
p2299
sI2299
Vku\u0103\u02b0
p2300
sI2300
Vku\u0103\u02b0
p2301
sI2301
Vxu\u0103\u02b0
p2302
sI2302
V\u0255u\u0103\u02b0
p2303
sI2303
Vwu\u0103\u02b0
p2304
sI2304
V\u0272u\u0103\u02b0
p2305
sI2305
Vp\u2018u\u0103\u02b0
p2306
sI2306
Vmu\u0103\u02b0
p2307
sI2307
Vtsu\u0103\u02b0
p2308
sI2308
Vgu\u0103\u02b0
p2309
sI2309
Vwu\u0103\u02b0
p2310
sI2310
Vdzu\u0103\u02b0
p2311
sI2311
V\u0282u\u0103\u02b0
p2312
sI2312
Vpu\u0103\u02b0
p2313
sI2313
Vts\u2018u\u0103\u02b0
p2314
sI2314
Vtru\u0103\u02b0
p2315
sI2315
Vk\u2018u\u0103\u02b0
p2316
sI2316
Vt\u0282\u2018u\u0103\u02b0
p2317
sI2317
Vtr\u2018u\u0103\u02b0
p2318
sI2318
Vsu\u0103\u02b0
p2319
sI2319
Vlu\u0103\u02b0
p2320
sI2320
Vm\u0254\u02b0
p2321
sI2321
Vd\u0254\u02b0
p2322
sI2322
Vl\u0254\u02b0
p2323
sI2323
Vt\u0254\u02b0
p2324
sI2324
Vt\u2018\u0254\u02b0
p2325
sI2325
Vk\u0254\u02b0
p2326
sI2326
V\u014b\u0254\u02b0
p2327
sI2327
V\u0263\u0254\u02b0
p2328
sI2328
Vs\u0254\u02b0
p2329
sI2329
Vdz\u0254\u02b0
p2330
sI2330
Vn\u0254\u02b0
p2331
sI2331
Vp\u0254\u02b0
p2332
sI2332
V\u0294\u0254\u02b0
p2333
sI2333
Vp\u2018\u0254\u02b0
p2334
sI2334
Vts\u2018\u0254\u02b0
p2335
sI2335
Vk\u2018\u0254\u02b0
p2336
sI2336
Vb\u0254\u02b0
p2337
sI2337
Vx\u0254\u02b0
p2338
sI2338
Vts\u0254\u02b0
p2339
sI2339
Vts\u025bj\u02b0
p2340
sI2340
Vt\u025bj\u02b0
p2341
sI2341
Vdz\u025bj\u02b0
p2342
sI2342
Vt\u2018\u025bj\u02b0
p2343
sI2343
Vd\u025bj\u02b0
p2344
sI2344
Vts\u2018\u025bj\u02b0
p2345
sI2345
Vs\u025bj\u02b0
p2346
sI2346
V\u014b\u025bj\u02b0
p2347
sI2347
Vk\u025bj\u02b0
p2348
sI2348
V\u0263\u025bj\u02b0
p2349
sI2349
Vk\u2018\u025bj\u02b0
p2350
sI2350
V\u0294\u025bj\u02b0
p2351
sI2351
Vm\u025bj\u02b0
p2352
sI2352
Vp\u025bj\u02b0
p2353
sI2353
V\u0263w\u025bj\u02b0
p2354
sI2354
Vkw\u025bj\u02b0
p2355
sI2355
Vxw\u025bj\u02b0
p2356
sI2356
Vp\u2018\u025bj\u02b0
p2357
sI2357
Vb\u025bj\u02b0
p2358
sI2358
Vl\u025bj\u02b0
p2359
sI2359
Vtr\u2018\u025brj\u02b0
p2360
sI2360
Vx\u025bj\u02b0
p2361
sI2361
Vt\u0255iaj\u02b0
p2362
sI2362
Vniaj\u02b0
p2363
sI2363
Vswiaj\u02b0
p2364
sI2364
Vwiaj\u02b0
p2365
sI2365
V\u0272wiaj\u02b0
p2366
sI2366
Vwiaj\u02b0
p2367
sI2367
Vwiaj\u02b0
p2368
sI2368
Vts\u2018wiaj\u02b0
p2369
sI2369
Vwjiaj\u02b0
p2370
sI2370
Vtrwiaj\u02b0
p2371
sI2371
V\u0255wiaj\u02b0
p2372
sI2372
Vbjiaj\u02b0
p2373
sI2373
Vt\u0255\u2018wiaj\u02b0
p2374
sI2374
Vzwiaj\u02b0
p2375
sI2375
Vpjiaj\u02b0
p2376
sI2376
Vkwiaj\u02b0
p2377
sI2377
Vmjiaj\u02b0
p2378
sI2378
V*\u0282iaj\u02b0
p2379
sI2379
Vt\u0255\u2018iaj\u02b0
p2380
sI2380
Vt\u0255iaj\u02b0
p2381
sI2381
Vd\u0291iaj\u02b0
p2382
sI2382
Vjiaj\u02b0
p2383
sI2383
V\u0294jiaj\u02b0
p2384
sI2384
V\u014bjiaj\u02b0
p2385
sI2385
Vdriaj\u02b0
p2386
sI2386
Vliaj\u02b0
p2387
sI2387
Vk\u2018iaj\u02b0
p2388
sI2388
V\u0255iaj\u02b0
p2389
sI2389
Vkjwiaj\u02b0
p2390
sI2390
Vtriaj\u02b0
p2391
sI2391
Vd\u0291wiaj\u02b0
p2392
sI2392
Vd\u0291wiaj\u02b0
p2393
sI2393
Vdrwiaj\u02b0
p2394
sI2394
Vdrwiaj\u02b0
p2395
sI2395
V\u014biaj\u02b0
p2396
sI2396
Vtswiaj\u02b0
p2397
sI2397
Vp\u2018jiaj\u02b0
p2398
sI2398
Vk\u2018wiaj\u02b0
p2399
sI2399
Vxwiaj\u02b0
p2400
sI2400
Vt\u2018aj\u02b0
p2401
sI2401
Vkaj\u02b0
p2402
sI2402
V\u014baj\u02b0
p2403
sI2403
V\u0294aj\u02b0
p2404
sI2404
Vnaj\u02b0
p2405
sI2405
Vdaj\u02b0
p2406
sI2406
V\u0263aj\u02b0
p2407
sI2407
Vtaj\u02b0
p2408
sI2408
Vpaj\u02b0
p2409
sI2409
Vp\u2018aj\u02b0
p2410
sI2410
V\u0263waj\u02b0
p2411
sI2411
Vdwaj\u02b0
p2412
sI2412
Vkwaj\u02b0
p2413
sI2413
Vtswaj\u02b0
p2414
sI2414
Vk\u2018waj\u02b0
p2415
sI2415
Vk\u2018waj\u02b0
p2416
sI2416
Vlwaj\u02b0
p2417
sI2417
V\u014bwaj\u02b0
p2418
sI2418
Vtwaj\u02b0
p2419
sI2419
V\u0294waj\u02b0
p2420
sI2420
Vdzwaj\u02b0
p2421
sI2421
Vswaj\u02b0
p2422
sI2422
Vts\u2018waj\u02b0
p2423
sI2423
Vbaj\u02b0
p2424
sI2424
Vk\u2018aj\u02b0
p2425
sI2425
Vts\u2018aj\u02b0
p2426
sI2426
Vlaj\u02b0
p2427
sI2427
Vxaj\u02b0
p2428
sI2428
Vt\u2018waj\u02b0
p2429
sI2429
Vts\u2018waj\u02b0
p2430
sI2430
Vmaj\u02b0
p2431
sI2431
Vkwarj\u02b0
p2432
sI2432
Vkarj\u02b0
p2433
sI2433
V\u0294arj\u02b0
p2434
sI2434
V\u0263arj\u02b0
p2435
sI2435
V\u0263warj\u02b0
p2436
sI2436
V\u0263warj\u02b0
p2437
sI2437
Vt\u0282\u2018arj\u02b0
p2438
sI2438
V\u014barj\u02b0
p2439
sI2439
Vxarj\u02b0
p2440
sI2440
Vpwarj\u02b0
p2441
sI2441
Vbwarj\u02b0
p2442
sI2442
Vd\u0290arj\u02b0
p2443
sI2443
Vp\u2018warj\u02b0
p2444
sI2444
Vt\u0282arj\u02b0
p2445
sI2445
Vk\u2018arj\u02b0
p2446
sI2446
Vxwarj\u02b0
p2447
sI2447
Vxwarj\u02b0
p2448
sI2448
Vparj\u02b0
p2449
sI2449
Vtrwarj\u02b0
p2450
sI2450
Vkw\u025brj\u02b0
p2451
sI2451
V\u0294\u025brj\u02b0
p2452
sI2452
Vt\u0282\u025brj\u02b0
p2453
sI2453
Vk\u025brj\u02b0
p2454
sI2454
Vnr\u025brj\u02b0
p2455
sI2455
Vx\u025brj\u02b0
p2456
sI2456
V\u0263\u025brj\u02b0
p2457
sI2457
V\u014b\u025brj\u02b0
p2458
sI2458
Vk\u2018w\u025brj\u02b0
p2459
sI2459
Vpw\u025brj\u02b0
p2460
sI2460
Vp\u2018w\u025brj\u02b0
p2461
sI2461
V\u0263w\u025brj\u02b0
p2462
sI2462
V\u014bw\u025brj\u02b0
p2463
sI2463
Vbw\u025brj\u02b0
p2464
sI2464
Vmw\u025brj\u02b0
p2465
sI2465
Vxw\u025brj\u02b0
p2466
sI2466
Vt\u0282\u2018w\u025brj\u02b0
p2467
sI2467
Vtr\u2018w\u025brj\u02b0
p2468
sI2468
Vtr\u2018w\u025brj\u02b0
p2469
sI2469
Vkwarj\u02b0
p2470
sI2470
Vk\u2018warj\u02b0
p2471
sI2471
Vmwarj\u02b0
p2472
sI2472
V\u0263warj\u02b0
p2473
sI2473
Vbwarj\u02b0
p2474
sI2474
V\u0294warj\u02b0
p2475
sI2475
Vt\u0282\u2018warj\u02b0
p2476
sI2476
Vkarj\u02b0
p2477
sI2477
Vtr\u2018arj\u02b0
p2478
sI2478
V\u0294arj\u02b0
p2479
sI2479
V\u0282arj\u02b0
p2480
sI2480
Vdrarj\u02b0
p2481
sI2481
Vxarj\u02b0
p2482
sI2482
Vxwarj\u02b0
p2483
sI2483
Vpwarj\u02b0
p2484
sI2484
Vt\u0282\u2018arj\u02b0
p2485
sI2485
Vd\u0290arj\u02b0
p2486
sI2486
V\u0263arj\u02b0
p2487
sI2487
Vdw\u01ddj\u02b0
p2488
sI2488
Vbw\u01ddj\u02b0
p2489
sI2489
Vmw\u01ddj\u02b0
p2490
sI2490
Vp\u2018w\u01ddj\u02b0
p2491
sI2491
Vxw\u01ddj\u02b0
p2492
sI2492
Vtw\u01ddj\u02b0
p2493
sI2493
Vts\u2018w\u01ddj\u02b0
p2494
sI2494
Vtsw\u01ddj\u02b0
p2495
sI2495
V\u0294w\u01ddj\u02b0
p2496
sI2496
Vt\u2018w\u01ddj\u02b0
p2497
sI2497
Vkw\u01ddj\u02b0
p2498
sI2498
V\u0263w\u01ddj\u02b0
p2499
sI2499
Vk\u2018w\u01ddj\u02b0
p2500
sI2500
Vsw\u01ddj\u02b0
p2501
sI2501
Vnw\u01ddj\u02b0
p2502
sI2502
Vlw\u01ddj\u02b0
p2503
sI2503
Vpw\u01ddj\u02b0
p2504
sI2504
V\u014bw\u01ddj\u02b0
p2505
sI2505
V*\u0263w\u01ddj\u02b0
p2506
sI2506
Vd\u01ddj\u02b0
p2507
sI2507
Vts\u01ddj\u02b0
p2508
sI2508
Vm\u01ddj\u02b0
p2509
sI2509
Vs\u01ddj\u02b0
p2510
sI2510
Vt\u2018\u01ddj\u02b0
p2511
sI2511
Vk\u01ddj\u02b0
p2512
sI2512
Vk\u2018\u01ddj\u02b0
p2513
sI2513
V\u014b\u01ddj\u02b0
p2514
sI2514
V\u0294\u01ddj\u02b0
p2515
sI2515
V\u0263\u01ddj\u02b0
p2516
sI2516
Vn\u01ddj\u02b0
p2517
sI2517
Vt\u01ddj\u02b0
p2518
sI2518
Vl\u01ddj\u02b0
p2519
sI2519
Vdz\u01ddj\u02b0
p2520
sI2520
Vdz\u01ddj\u02b0
p2521
sI2521
Vx\u01ddj\u02b0
p2522
sI2522
Vpuaj\u02b0
p2523
sI2523
Vp\u0268aj\u02b0
p2524
sI2524
V\u0294uaj\u02b0
p2525
sI2525
Vbuaj\u02b0
p2526
sI2526
Vxuaj\u02b0
p2527
sI2527
Vguaj\u02b0
p2528
sI2528
V\u014b\u0268aj\u02b0
p2529
sI2529
Vt\u0255in\u02b0
p2530
sI2530
Vsin\u02b0
p2531
sI2531
V\u0272in\u02b0
p2532
sI2532
Vjin\u02b0
p2533
sI2533
Vlin\u02b0
p2534
sI2534
Vpjin\u02b0
p2535
sI2535
Vdrin\u02b0
p2536
sI2536
Vd\u0291in\u02b0
p2537
sI2537
V\u0255in\u02b0
p2538
sI2538
Vk\u2018in\u02b0
p2539
sI2539
Vzin\u02b0
p2540
sI2540
V\u014bin\u02b0
p2541
sI2541
Vtsin\u02b0
p2542
sI2542
Vxjin\u02b0
p2543
sI2543
Vtrin\u02b0
p2544
sI2544
Vgin\u02b0
p2545
sI2545
V*t\u0282\u2018in\u02b0
p2546
sI2546
V\u0294jin\u02b0
p2547
sI2547
Vtr\u2018in\u02b0
p2548
sI2548
Vp\u2018jin\u02b0
p2549
sI2549
Vts\u2018in\u02b0
p2550
sI2550
Vk\u2018jin\u02b0
p2551
sI2551
Vkjin\u02b0
p2552
sI2552
Vt\u0255win\u02b0
p2553
sI2553
Vswin\u02b0
p2554
sI2554
Vzwin\u02b0
p2555
sI2555
Vtswin\u02b0
p2556
sI2556
V\u0255win\u02b0
p2557
sI2557
V\u0272win\u02b0
p2558
sI2558
Vd\u0291win\u02b0
p2559
sI2559
Vmun\u02b0
p2560
sI2560
Vwun\u02b0
p2561
sI2561
Vxun\u02b0
p2562
sI2562
Vbun\u02b0
p2563
sI2563
Vpun\u02b0
p2564
sI2564
V\u0294un\u02b0
p2565
sI2565
Vkun\u02b0
p2566
sI2566
Vgun\u02b0
p2567
sI2567
Vbun\u02b0
p2568
sI2568
Vx\u0268n\u02b0
p2569
sI2569
Vk\u0268n\u02b0
p2570
sI2570
Vg\u0268n\u02b0
p2571
sI2571
V\u0294\u0268n\u02b0
p2572
sI2572
V\u014b\u0268n\u02b0
p2573
sI2573
V\u014buan\u02b0
p2574
sI2574
V\u0294uan\u02b0
p2575
sI2575
Vpuan\u02b0
p2576
sI2576
Vk\u2018uan\u02b0
p2577
sI2577
Vmuan\u02b0
p2578
sI2578
Vbuan\u02b0
p2579
sI2579
Vp\u2018uan\u02b0
p2580
sI2580
Vk\u0268an\u02b0
p2581
sI2581
V\u0294\u0268an\u02b0
p2582
sI2582
Vx\u0268an\u02b0
p2583
sI2583
Vxuan\u02b0
p2584
sI2584
Vp\u2018\u0268an\u02b0
p2585
sI2585
Vp\u2018\u0268an\u02b0
p2586
sI2586
V\u014b\u0268an\u02b0
p2587
sI2587
V\u014b\u0268an\u02b0
p2588
sI2588
Vguan\u02b0
p2589
sI2589
Vkuan\u02b0
p2590
sI2590
V\u0263w\u01ddn\u02b0
p2591
sI2591
Vtw\u01ddn\u02b0
p2592
sI2592
Vsw\u01ddn\u02b0
p2593
sI2593
Vk\u2018w\u01ddn\u02b0
p2594
sI2594
Vnw\u01ddn\u02b0
p2595
sI2595
V\u0294w\u01ddn\u02b0
p2596
sI2596
Vmw\u01ddn\u02b0
p2597
sI2597
Vdzw\u01ddn\u02b0
p2598
sI2598
Vkw\u01ddn\u02b0
p2599
sI2599
Vp\u2018w\u01ddn\u02b0
p2600
sI2600
Vdw\u01ddn\u02b0
p2601
sI2601
Vts\u2018w\u01ddn\u02b0
p2602
sI2602
Vbw\u01ddn\u02b0
p2603
sI2603
V\u014bw\u01ddn\u02b0
p2604
sI2604
Vlw\u01ddn\u02b0
p2605
sI2605
Vpw\u01ddn\u02b0
p2606
sI2606
Vxw\u01ddn\u02b0
p2607
sI2607
Vtsw\u01ddn\u02b0
p2608
sI2608
V\u0263\u01ddn\u02b0
p2609
sI2609
V\u014b\u01ddn\u02b0
p2610
sI2610
V\u014b\u01ddn\u02b0
p2611
sI2611
V\u0294\u01ddn\u02b0
p2612
sI2612
V\u0263an\u02b0
p2613
sI2613
Vt\u2018an\u02b0
p2614
sI2614
V\u0294an\u02b0
p2615
sI2615
Vtan\u02b0
p2616
sI2616
Vdan\u02b0
p2617
sI2617
Vkan\u02b0
p2618
sI2618
V\u014ban\u02b0
p2619
sI2619
Vk\u2018an\u02b0
p2620
sI2620
Vxan\u02b0
p2621
sI2621
Vlan\u02b0
p2622
sI2622
Vnan\u02b0
p2623
sI2623
Vts\u2018an\u02b0
p2624
sI2624
Vsan\u02b0
p2625
sI2625
Vtsan\u02b0
p2626
sI2626
Vgan\u02b0
p2627
sI2627
V\u0263wan\u02b0
p2628
sI2628
Vtswan\u02b0
p2629
sI2629
V\u0294wan\u02b0
p2630
sI2630
Vkwan\u02b0
p2631
sI2631
Vts\u2018wan\u02b0
p2632
sI2632
V\u014bwan\u02b0
p2633
sI2633
Vdwan\u02b0
p2634
sI2634
Vlwan\u02b0
p2635
sI2635
Vtwan\u02b0
p2636
sI2636
Vt\u2018wan\u02b0
p2637
sI2637
Vxwan\u02b0
p2638
sI2638
Vswan\u02b0
p2639
sI2639
Vmwan\u02b0
p2640
sI2640
Vpwan\u02b0
p2641
sI2641
Vp\u2018wan\u02b0
p2642
sI2642
Vbwan\u02b0
p2643
sI2643
Vnwan\u02b0
p2644
sI2644
Vdzwan\u02b0
p2645
sI2645
Vk\u2018wan\u02b0
p2646
sI2646
Vkarn\u02b0
p2647
sI2647
V\u014barn\u02b0
p2648
sI2648
V\u0294arn\u02b0
p2649
sI2649
V\u0263warn\u02b0
p2650
sI2650
V\u014bwarn\u02b0
p2651
sI2651
Vmwarn\u02b0
p2652
sI2652
V\u0294warn\u02b0
p2653
sI2653
V\u0263warn\u02b0
p2654
sI2654
Vkwarn\u02b0
p2655
sI2655
V\u0282warn\u02b0
p2656
sI2656
Vkwarn\u02b0
p2657
sI2657
Vt\u0282\u2018warn\u02b0
p2658
sI2658
Vd\u0290arn\u02b0
p2659
sI2659
Vp\u2018warn\u02b0
p2660
sI2660
Vnrwarn\u02b0
p2661
sI2661
Vt\u0282\u2018warn\u02b0
p2662
sI2662
Vtr\u2018arn\u02b0
p2663
sI2663
Vk\u025brn\u02b0
p2664
sI2664
V\u0263\u025brn\u02b0
p2665
sI2665
Vb\u025brn\u02b0
p2666
sI2666
Vp\u2018\u025brn\u02b0
p2667
sI2667
V\u0263w\u025brn\u02b0
p2668
sI2668
Vm\u025brn\u02b0
p2669
sI2669
Vdr\u025brn\u02b0
p2670
sI2670
Vp\u025brn\u02b0
p2671
sI2671
Vkw\u025brn\u02b0
p2672
sI2672
Vs\u025bn\u02b0
p2673
sI2673
Vts\u2018\u025bn\u02b0
p2674
sI2674
Vxw\u025bn\u02b0
p2675
sI2675
V*\u0263w\u025bn\u02b0
p2676
sI2676
Vkw\u025bn\u02b0
p2677
sI2677
Vd\u025bn\u02b0
p2678
sI2678
Vt\u2018\u025bn\u02b0
p2679
sI2679
Vl\u025bn\u02b0
p2680
sI2680
Vk\u025bn\u02b0
p2681
sI2681
Vn\u025bn\u02b0
p2682
sI2682
Vk\u2018\u025bn\u02b0
p2683
sI2683
V\u0263\u025bn\u02b0
p2684
sI2684
V\u014b\u025bn\u02b0
p2685
sI2685
V\u0294\u025bn\u02b0
p2686
sI2686
Vts\u025bn\u02b0
p2687
sI2687
Vm\u025bn\u02b0
p2688
sI2688
Vp\u2018\u025bn\u02b0
p2689
sI2689
Vdz\u025bn\u02b0
p2690
sI2690
V\u0294w\u025bn\u02b0
p2691
sI2691
Vt\u025bn\u02b0
p2692
sI2692
Vx\u025bn\u02b0
p2693
sI2693
Vsian\u02b0
p2694
sI2694
Vt\u0255ian\u02b0
p2695
sI2695
Vd\u0291ian\u02b0
p2696
sI2696
V\u014bian\u02b0
p2697
sI2697
Vk\u2018jian\u02b0
p2698
sI2698
Vkjwian\u02b0
p2699
sI2699
Vwian\u02b0
p2700
sI2700
Vmjian\u02b0
p2701
sI2701
Vt\u0255\u2018wian\u02b0
p2702
sI2702
Vtrian\u02b0
p2703
sI2703
Vtrian\u02b0
p2704
sI2704
V\u0272wian\u02b0
p2705
sI2705
Vtsian\u02b0
p2706
sI2706
Vt\u0255\u2018ian\u02b0
p2707
sI2707
V\u0255ian\u02b0
p2708
sI2708
V\u0294ian\u02b0
p2709
sI2709
Vkwian\u02b0
p2710
sI2710
Vgwian\u02b0
p2711
sI2711
Vlwian\u02b0
p2712
sI2712
Vtr\u2018wian\u02b0
p2713
sI2713
Vpwian\u02b0
p2714
sI2714
Vts\u2018wian\u02b0
p2715
sI2715
Vts\u2018wian\u02b0
p2716
sI2716
Vbwian\u02b0
p2717
sI2717
Vzwian\u02b0
p2718
sI2718
Vt\u0255\u2018wian\u02b0
p2719
sI2719
Vt\u0282wian\u02b0
p2720
sI2720
Vdwian\u02b0
p2721
sI2721
Vdwian\u02b0
p2722
sI2722
Vdzian\u02b0
p2723
sI2723
Vzian\u02b0
p2724
sI2724
Vp\u2018jian\u02b0
p2725
sI2725
Vd\u0291wian\u02b0
p2726
sI2726
Vnrian\u02b0
p2727
sI2727
Vtrwian\u02b0
p2728
sI2728
Vjian\u02b0
p2729
sI2729
Vbjian\u02b0
p2730
sI2730
Vdrian\u02b0
p2731
sI2731
Vlian\u02b0
p2732
sI2732
Vk\u2018wian\u02b0
p2733
sI2733
Vt\u0255wian\u02b0
p2734
sI2734
Vpjian\u02b0
p2735
sI2735
Vs\u025bw\u02b0
p2736
sI2736
Vt\u2018\u025bw\u02b0
p2737
sI2737
Vt\u025bw\u02b0
p2738
sI2738
Vk\u025bw\u02b0
p2739
sI2739
Vn\u025bw\u02b0
p2740
sI2740
Vd\u025bw\u02b0
p2741
sI2741
Vk\u2018\u025bw\u02b0
p2742
sI2742
Vl\u025bw\u02b0
p2743
sI2743
V\u014b\u025bw\u02b0
p2744
sI2744
V\u0294\u025bw\u02b0
p2745
sI2745
Vx\u025bw\u02b0
p2746
sI2746
Vsiaw\u02b0
p2747
sI2747
Vt\u0255iaw\u02b0
p2748
sI2748
Vjiaw\u02b0
p2749
sI2749
V\u0294jiaw\u02b0
p2750
sI2750
Vdriaw\u02b0
p2751
sI2751
Vd\u0291iaw\u02b0
p2752
sI2752
Vgiaw\u02b0
p2753
sI2753
Vp\u2018jiaw\u02b0
p2754
sI2754
Vdziaw\u02b0
p2755
sI2755
Vmjiaw\u02b0
p2756
sI2756
Vts\u2018iaw\u02b0
p2757
sI2757
Vliaw\u02b0
p2758
sI2758
V\u014bjiaw\u02b0
p2759
sI2759
Vk\u2018jiaw\u02b0
p2760
sI2760
Vtsiaw\u02b0
p2761
sI2761
Vmiaw\u02b0
p2762
sI2762
Vbjiaw\u02b0
p2763
sI2763
V\u0255iaw\u02b0
p2764
sI2764
Vpiaw\u02b0
p2765
sI2765
Vtr\u2018iaw\u02b0
p2766
sI2766
Vgjiaw\u02b0
p2767
sI2767
V\u0272iaw\u02b0
p2768
sI2768
V\u0263arw\u02b0
p2769
sI2769
Vkarw\u02b0
p2770
sI2770
Vxarw\u02b0
p2771
sI2771
Vtrarw\u02b0
p2772
sI2772
Vparw\u02b0
p2773
sI2773
Vk\u2018arw\u02b0
p2774
sI2774
Vmarw\u02b0
p2775
sI2775
Vp\u2018arw\u02b0
p2776
sI2776
Vtr\u2018arw\u02b0
p2777
sI2777
V\u0282arw\u02b0
p2778
sI2778
Vdrarw\u02b0
p2779
sI2779
Vnrarw\u02b0
p2780
sI2780
Vt\u0282arw\u02b0
p2781
sI2781
Vbarw\u02b0
p2782
sI2782
Vt\u0282\u2018arw\u02b0
p2783
sI2783
V\u0294arw\u02b0
p2784
sI2784
V\u014barw\u02b0
p2785
sI2785
Vd\u0290arw\u02b0
p2786
sI2786
V\u0263aw\u02b0
p2787
sI2787
Vdaw\u02b0
p2788
sI2788
Vtaw\u02b0
p2789
sI2789
Vkaw\u02b0
p2790
sI2790
V\u014baw\u02b0
p2791
sI2791
Vmaw\u02b0
p2792
sI2792
Vlaw\u02b0
p2793
sI2793
Vts\u2018aw\u02b0
p2794
sI2794
Vbaw\u02b0
p2795
sI2795
Vpaw\u02b0
p2796
sI2796
Vdzaw\u02b0
p2797
sI2797
V\u0294aw\u02b0
p2798
sI2798
Vsaw\u02b0
p2799
sI2799
Vk\u2018aw\u02b0
p2800
sI2800
Vtsaw\u02b0
p2801
sI2801
Vxaw\u02b0
p2802
sI2802
Vnaw\u02b0
p2803
sI2803
Vka\u0103\u02b0
p2804
sI2804
V\u0263a\u0103\u02b0
p2805
sI2805
Vtsa\u0103\u02b0
p2806
sI2806
Vta\u0103\u02b0
p2807
sI2807
Vla\u0103\u02b0
p2808
sI2808
Vk\u2018a\u0103\u02b0
p2809
sI2809
V\u014ba\u0103\u02b0
p2810
sI2810
Vda\u0103\u02b0
p2811
sI2811
Vna\u0103\u02b0
p2812
sI2812
Vsa\u0103\u02b0
p2813
sI2813
Vxa\u0103\u02b0
p2814
sI2814
Vt\u2018a\u0103\u02b0
p2815
sI2815
Vkwa\u0103\u02b0
p2816
sI2816
V\u0263wa\u0103\u02b0
p2817
sI2817
Vtswa\u0103\u02b0
p2818
sI2818
Vk\u2018wa\u0103\u02b0
p2819
sI2819
Vt\u2018wa\u0103\u02b0
p2820
sI2820
Vpwa\u0103\u02b0
p2821
sI2821
Vts\u2018wa\u0103\u02b0
p2822
sI2822
Vmwa\u0103\u02b0
p2823
sI2823
Vnwa\u0103\u02b0
p2824
sI2824
Vp\u2018wa\u0103\u02b0
p2825
sI2825
Vdzwa\u0103\u02b0
p2826
sI2826
V\u014bwa\u0103\u02b0
p2827
sI2827
Vts\u2018wa\u0103\u02b0
p2828
sI2828
Vxwa\u0103\u02b0
p2829
sI2829
Vdwa\u0103\u02b0
p2830
sI2830
Vbwa\u0103\u02b0
p2831
sI2831
Vlwa\u0103\u02b0
p2832
sI2832
Vtwa\u0103\u02b0
p2833
sI2833
Vts\u2018wa\u0103\u02b0
p2834
sI2834
Vswa\u0103\u02b0
p2835
sI2835
V*\u0294a\u0103\u02b0
p2836
sI2836
V\u0294wa\u0103\u02b0
p2837
sI2837
Vmar\u02b0
p2838
sI2838
Vkar\u02b0
p2839
sI2839
V\u0294ar\u02b0
p2840
sI2840
Vxar\u02b0
p2841
sI2841
V\u014bar\u02b0
p2842
sI2842
Vtr\u2018ar\u02b0
p2843
sI2843
Vtrar\u02b0
p2844
sI2844
Vt\u0282ar\u02b0
p2845
sI2845
Vd\u0290ar\u02b0
p2846
sI2846
Vzia\u0103\u02b0
p2847
sI2847
Vk\u2018ia\u0103\u02b0
p2848
sI2848
V\u0263ar\u02b0
p2849
sI2849
Vdzia\u0103\u02b0
p2850
sI2850
Vjia\u0103\u02b0
p2851
sI2851
Vt\u0255\u2018ia\u0103\u02b0
p2852
sI2852
Vsia\u0103\u02b0
p2853
sI2853
Vt\u0255ia\u0103\u02b0
p2854
sI2854
Vtsia\u0103\u02b0
p2855
sI2855
V\u0255ia\u0103\u02b0
p2856
sI2856
V\u0291ia\u0103\u02b0
p2857
sI2857
Vpar\u02b0
p2858
sI2858
Vp\u2018ar\u02b0
p2859
sI2859
V\u0263war\u02b0
p2860
sI2860
Vxwar\u02b0
p2861
sI2861
Vk\u2018war\u02b0
p2862
sI2862
V\u0282war\u02b0
p2863
sI2863
Vbar\u02b0
p2864
sI2864
Vnrar\u02b0
p2865
sI2865
Vts\u2018ia\u0103\u02b0
p2866
sI2866
V\u0282ar\u02b0
p2867
sI2867
Vkwar\u02b0
p2868
sI2868
Vdrar\u02b0
p2869
sI2869
V\u014bwar\u02b0
p2870
sI2870
V\u0294war\u02b0
p2871
sI2871
Vj\u0268a\u0103\u014b\u02b0
p2872
sI2872
Vl\u0268a\u0103\u014b\u02b0
p2873
sI2873
Vd\u0290\u0268a\u0103\u014b\u02b0
p2874
sI2874
V\u0272\u0268a\u0103\u014b\u02b0
p2875
sI2875
V\u0255\u0268a\u0103\u014b\u02b0
p2876
sI2876
Vtr\u0268a\u0103\u014b\u02b0
p2877
sI2877
Vtr\u2018\u0268a\u0103\u014b\u02b0
p2878
sI2878
Vx\u0268a\u0103\u014b\u02b0
p2879
sI2879
Vdr\u0268a\u0103\u014b\u02b0
p2880
sI2880
Vnr\u0268a\u0103\u014b\u02b0
p2881
sI2881
Vdz\u0268a\u0103\u014b\u02b0
p2882
sI2882
Vt\u0255\u0268a\u0103\u014b\u02b0
p2883
sI2883
Vd\u0291\u0268a\u0103\u014b\u02b0
p2884
sI2884
Vt\u0282\u0268a\u0103\u014b\u02b0
p2885
sI2885
V\u0294\u0268a\u0103\u014b\u02b0
p2886
sI2886
Vg\u0268a\u0103\u014b\u02b0
p2887
sI2887
Vt\u0255\u2018\u0268a\u0103\u014b\u02b0
p2888
sI2888
Vt\u0282\u2018\u0268a\u0103\u014b\u02b0
p2889
sI2889
Vts\u0268a\u0103\u014b\u02b0
p2890
sI2890
V\u014b\u0268a\u0103\u014b\u02b0
p2891
sI2891
Vp\u2018\u0268a\u0103\u014b\u02b0
p2892
sI2892
Vm\u0268a\u0103\u014b\u02b0
p2893
sI2893
Vxua\u0103\u014b\u02b0
p2894
sI2894
Vgua\u0103\u014b\u02b0
p2895
sI2895
Vwua\u0103\u014b\u02b0
p2896
sI2896
Vp\u0268a\u0103\u014b\u02b0
p2897
sI2897
Vs\u0268a\u0103\u014b\u02b0
p2898
sI2898
Vk\u0268a\u0103\u014b\u02b0
p2899
sI2899
Vk\u2018\u0268a\u0103\u014b\u02b0
p2900
sI2900
Vts\u2018\u0268a\u0103\u014b\u02b0
p2901
sI2901
Vgua\u0103\u014b\u02b0
p2902
sI2902
Vb\u0268a\u0103\u014b\u02b0
p2903
sI2903
Vda\u0103\u014b\u02b0
p2904
sI2904
Vla\u0103\u014b\u02b0
p2905
sI2905
V\u0263a\u0103\u014b\u02b0
p2906
sI2906
V\u0294a\u0103\u014b\u02b0
p2907
sI2907
V\u014ba\u0103\u014b\u02b0
p2908
sI2908
Vtsa\u0103\u014b\u02b0
p2909
sI2909
Vba\u0103\u014b\u02b0
p2910
sI2910
Vdza\u0103\u014b\u02b0
p2911
sI2911
Vta\u0103\u014b\u02b0
p2912
sI2912
Vk\u2018a\u0103\u014b\u02b0
p2913
sI2913
Vpa\u0103\u014b\u02b0
p2914
sI2914
Vt\u2018a\u0103\u014b\u02b0
p2915
sI2915
Vk\u2018wa\u0103\u014b\u02b0
p2916
sI2916
Vna\u0103\u014b\u02b0
p2917
sI2917
Vsa\u0103\u014b\u02b0
p2918
sI2918
V\u0263wa\u0103\u014b\u02b0
p2919
sI2919
Vkwa\u0103\u014b\u02b0
p2920
sI2920
Vka\u0103\u014b\u02b0
p2921
sI2921
Vxwa\u0103\u014b\u02b0
p2922
sI2922
Vma\u0103\u014b\u02b0
p2923
sI2923
V\u0294wa\u0103\u014b\u02b0
p2924
sI2924
V\u0294iaj\u014b\u02b0
p2925
sI2925
Vkiaj\u014b\u02b0
p2926
sI2926
Vgiaj\u014b\u02b0
p2927
sI2927
Vk\u2018iaj\u014b\u02b0
p2928
sI2928
Vkarj\u014b\u02b0
p2929
sI2929
Vmiaj\u014b\u02b0
p2930
sI2930
Vbiaj\u014b\u02b0
p2931
sI2931
Vmarj\u014b\u02b0
p2932
sI2932
V\u0263warj\u014b\u02b0
p2933
sI2933
Vpiaj\u014b\u02b0
p2934
sI2934
Vwiaj\u014b\u02b0
p2935
sI2935
V\u0263arj\u014b\u02b0
p2936
sI2936
V\u0294iaj\u014b\u02b0
p2937
sI2937
Vt\u0255iaj\u014b\u02b0
p2938
sI2938
Vtrarj\u014b\u02b0
p2939
sI2939
Vtr\u2018arj\u014b\u02b0
p2940
sI2940
Vparj\u014b\u02b0
p2941
sI2941
Vdrarj\u014b\u02b0
p2942
sI2942
V\u0255iaj\u014b\u02b0
p2943
sI2943
V\u014biaj\u014b\u02b0
p2944
sI2944
Vbarj\u014b\u02b0
p2945
sI2945
Vxarj\u014b\u02b0
p2946
sI2946
V\u0294warj\u014b\u02b0
p2947
sI2947
Vt\u0282\u025brj\u014b\u02b0
p2948
sI2948
Vp\u025brj\u014b\u02b0
p2949
sI2949
Vb\u025brj\u014b\u02b0
p2950
sI2950
V\u0294\u025brj\u014b\u02b0
p2951
sI2951
V\u014b\u025brj\u014b\u02b0
p2952
sI2952
Vxw\u025brj\u014b\u02b0
p2953
sI2953
Vkjiaj\u014b\u02b0
p2954
sI2954
Vts\u2018iaj\u014b\u02b0
p2955
sI2955
Vt\u0255iaj\u014b\u02b0
p2956
sI2956
V\u0255iaj\u014b\u02b0
p2957
sI2957
Vdriaj\u014b\u02b0
p2958
sI2958
Vtr\u2018iaj\u014b\u02b0
p2959
sI2959
Vsiaj\u014b\u02b0
p2960
sI2960
Vliaj\u014b\u02b0
p2961
sI2961
Vp\u2018jiaj\u014b\u02b0
p2962
sI2962
V\u0263jwiaj\u014b\u02b0
p2963
sI2963
Vpjiaj\u014b\u02b0
p2964
sI2964
Vbjiaj\u014b\u02b0
p2965
sI2965
Vdziaj\u014b\u02b0
p2966
sI2966
Vd\u0291iaj\u014b\u02b0
p2967
sI2967
Vmjiaj\u014b\u02b0
p2968
sI2968
Vk\u2018jiaj\u014b\u02b0
p2969
sI2969
V\u0291iaj\u014b\u02b0
p2970
sI2970
Vtsiaj\u014b\u02b0
p2971
sI2971
Vk\u025bj\u014b\u02b0
p2972
sI2972
Vn\u025bj\u014b\u02b0
p2973
sI2973
Vs\u025bj\u014b\u02b0
p2974
sI2974
V\u0263\u025bj\u014b\u02b0
p2975
sI2975
Vd\u025bj\u014b\u02b0
p2976
sI2976
Vt\u025bj\u014b\u02b0
p2977
sI2977
Vk\u2018\u025bj\u014b\u02b0
p2978
sI2978
Vt\u2018\u025bj\u014b\u02b0
p2979
sI2979
Vts\u2018\u025bj\u014b\u02b0
p2980
sI2980
Vm\u025bj\u014b\u02b0
p2981
sI2981
V\u0294w\u025bj\u014b\u02b0
p2982
sI2982
Vl\u025bj\u014b\u02b0
p2983
sI2983
Vt\u0255i\u014b\u02b0
p2984
sI2984
Vji\u014b\u02b0
p2985
sI2985
V\u0291i\u014b\u02b0
p2986
sI2986
V\u0272i\u014b\u02b0
p2987
sI2987
V\u0294i\u014b\u02b0
p2988
sI2988
Vtsi\u014b\u02b0
p2989
sI2989
Vxi\u014b\u02b0
p2990
sI2990
V\u0255i\u014b\u02b0
p2991
sI2991
Vdri\u014b\u02b0
p2992
sI2992
Vli\u014b\u02b0
p2993
sI2993
Vbi\u014b\u02b0
p2994
sI2994
Vt\u0255\u2018i\u014b\u02b0
p2995
sI2995
V\u014bi\u014b\u02b0
p2996
sI2996
Vd\u0291i\u014b\u02b0
p2997
sI2997
Vtr\u2018i\u014b\u02b0
p2998
sI2998
Vgi\u014b\u02b0
p2999
sI2999
Vt\u01dd\u014b\u02b0
p3000
sI3000
Vdz\u01dd\u014b\u02b0
p3001
sI3001
Vk\u01dd\u014b\u02b0
p3002
sI3002
Vts\u2018\u01dd\u014b\u02b0
p3003
sI3003
Vd\u01dd\u014b\u02b0
p3004
sI3004
Vm\u01dd\u014b\u02b0
p3005
sI3005
Vp\u01dd\u014b\u02b0
p3006
sI3006
Vb\u01dd\u014b\u02b0
p3007
sI3007
Vts\u01dd\u014b\u02b0
p3008
sI3008
Vs\u01dd\u014b\u02b0
p3009
sI3009
Vt\u2018\u01dd\u014b\u02b0
p3010
sI3010
Vjuw\u02b0
p3011
sI3011
Vkuw\u02b0
p3012
sI3012
Vdruw\u02b0
p3013
sI3013
Vtruw\u02b0
p3014
sI3014
V\u0255uw\u02b0
p3015
sI3015
Vt\u0255\u2018uw\u02b0
p3016
sI3016
Vzuw\u02b0
p3017
sI3017
Vxuw\u02b0
p3018
sI3018
Vt\u0255uw\u02b0
p3019
sI3019
Vguw\u02b0
p3020
sI3020
V\u0282uw\u02b0
p3021
sI3021
Vt\u0282uw\u02b0
p3022
sI3022
Vp\u2018uw\u02b0
p3023
sI3023
Vt\u0282\u2018uw\u02b0
p3024
sI3024
Vpuw\u02b0
p3025
sI3025
Vtr\u2018uw\u02b0
p3026
sI3026
Vluw\u02b0
p3027
sI3027
Vsuw\u02b0
p3028
sI3028
Vtsuw\u02b0
p3029
sI3029
Vd\u0290uw\u02b0
p3030
sI3030
Vdzuw\u02b0
p3031
sI3031
Vnruw\u02b0
p3032
sI3032
Vbuw\u02b0
p3033
sI3033
Vjuw\u02b0
p3034
sI3034
Vd\u0291uw\u02b0
p3035
sI3035
V\u0272uw\u02b0
p3036
sI3036
Vmuw\u02b0
p3037
sI3037
V\u014buw\u02b0
p3038
sI3038
Vk\u2018uw\u02b0
p3039
sI3039
Vts\u2018uw\u02b0
p3040
sI3040
V\u0263ow\u02b0
p3041
sI3041
Vk\u2018ow\u02b0
p3042
sI3042
Vmow\u02b0
p3043
sI3043
Vp\u2018ow\u02b0
p3044
sI3044
Vdow\u02b0
p3045
sI3045
Vtow\u02b0
p3046
sI3046
Vnow\u02b0
p3047
sI3047
Vsow\u02b0
p3048
sI3048
Vtsow\u02b0
p3049
sI3049
Vt\u2018ow\u02b0
p3050
sI3050
V\u0294ow\u02b0
p3051
sI3051
Vkow\u02b0
p3052
sI3052
Vts\u2018ow\u02b0
p3053
sI3053
Vlow\u02b0
p3054
sI3054
Vxow\u02b0
p3055
sI3055
Vbow\u02b0
p3056
sI3056
V\u014bow\u02b0
p3057
sI3057
Vdzow\u02b0
p3058
sI3058
V\u0294jiw\u02b0
p3059
sI3059
Vmjiw\u02b0
p3060
sI3060
Vk\u2018jiw\u02b0
p3061
sI3061
Vgjiw\u02b0
p3062
sI3062
Vts\u2018im\u02b0
p3063
sI3063
Vtsim\u02b0
p3064
sI3064
V\u0272im\u02b0
p3065
sI3065
Vdrim\u02b0
p3066
sI3066
Vt\u0255im\u02b0
p3067
sI3067
Vgim\u02b0
p3068
sI3068
Vkim\u02b0
p3069
sI3069
Vnrim\u02b0
p3070
sI3070
V\u0294im\u02b0
p3071
sI3071
V\u0282im\u02b0
p3072
sI3072
Vtr\u2018im\u02b0
p3073
sI3073
Vt\u0282im\u02b0
p3074
sI3074
Vt\u0282\u2018im\u02b0
p3075
sI3075
V\u014bim\u02b0
p3076
sI3076
Vtrim\u02b0
p3077
sI3077
Vlim\u02b0
p3078
sI3078
Vd\u0291im\u02b0
p3079
sI3079
Vjim\u02b0
p3080
sI3080
V\u0255im\u02b0
p3081
sI3081
Vk\u2018\u01ddm\u02b0
p3082
sI3082
Vk\u01ddm\u02b0
p3083
sI3083
V\u0263\u01ddm\u02b0
p3084
sI3084
V\u0294\u01ddm\u02b0
p3085
sI3085
Vt\u2018\u01ddm\u02b0
p3086
sI3086
Vs\u01ddm\u02b0
p3087
sI3087
Vts\u2018\u01ddm\u02b0
p3088
sI3088
Vd\u01ddm\u02b0
p3089
sI3089
V\u014b\u01ddm\u02b0
p3090
sI3090
Vt\u01ddm\u02b0
p3091
sI3091
Vn\u01ddm\u02b0
p3092
sI3092
Vl\u01ddm\u02b0
p3093
sI3093
Vx\u01ddm\u02b0
p3094
sI3094
Vts\u01ddm\u02b0
p3095
sI3095
Vk\u2018am\u02b0
p3096
sI3096
Vlam\u02b0
p3097
sI3097
Vt\u2018am\u02b0
p3098
sI3098
Vkam\u02b0
p3099
sI3099
Vxam\u02b0
p3100
sI3100
V\u0263am\u02b0
p3101
sI3101
Vdam\u02b0
p3102
sI3102
Vdzam\u02b0
p3103
sI3103
Vtam\u02b0
p3104
sI3104
Vsam\u02b0
p3105
sI3105
Vjiam\u02b0
p3106
sI3106
Vd\u0291iam\u02b0
p3107
sI3107
V\u0272iam\u02b0
p3108
sI3108
V\u0294jiam\u02b0
p3109
sI3109
Vpiam\u02b0
p3110
sI3110
V\u014bjiam\u02b0
p3111
sI3111
V\u0255iam\u02b0
p3112
sI3112
Vtsiam\u02b0
p3113
sI3113
Vts\u2018iam\u02b0
p3114
sI3114
Vliam\u02b0
p3115
sI3115
Vtr\u2018iam\u02b0
p3116
sI3116
Vt\u0255\u2018iam\u02b0
p3117
sI3117
V\u0294iam\u02b0
p3118
sI3118
Vdziam\u02b0
p3119
sI3119
Vt\u0255iam\u02b0
p3120
sI3120
Vt\u2018\u025bm\u02b0
p3121
sI3121
Vn\u025bm\u02b0
p3122
sI3122
Vt\u025bm\u02b0
p3123
sI3123
Vs\u025bm\u02b0
p3124
sI3124
Vd\u025bm\u02b0
p3125
sI3125
Vk\u025bm\u02b0
p3126
sI3126
V\u0294\u025bm\u02b0
p3127
sI3127
Vts\u025bm\u02b0
p3128
sI3128
Vdz\u025bm\u02b0
p3129
sI3129
Vk\u025bm\u02b0
p3130
sI3130
Vk\u2018\u025bm\u02b0
p3131
sI3131
Vl\u025bm\u02b0
p3132
sI3132
V\u014b\u0268am\u02b0
p3133
sI3133
Vx\u0268am\u02b0
p3134
sI3134
Vk\u2018\u0268am\u02b0
p3135
sI3135
Vm\u0268am\u02b0
p3136
sI3136
V\u0263\u025brm\u02b0
p3137
sI3137
V\u0294\u025brm\u02b0
p3138
sI3138
Vt\u0282\u025brm\u02b0
p3139
sI3139
Vtr\u025brm\u02b0
p3140
sI3140
Vk\u2018\u025brm\u02b0
p3141
sI3141
Vdr\u025brm\u02b0
p3142
sI3142
Vd\u0290\u025brm\u02b0
p3143
sI3143
Vk\u025brm\u02b0
p3144
sI3144
Vnr\u025brm\u02b0
p3145
sI3145
V\u014b\u025brm\u02b0
p3146
sI3146
Vkarm\u02b0
p3147
sI3147
Vt\u0282\u2018arm\u02b0
p3148
sI3148
Vt\u0282arm\u02b0
p3149
sI3149
V\u0282arm\u02b0
p3150
sI3150
Vxarm\u02b0
p3151
sI3151
Vbarm\u02b0
p3152
sI3152
V\u0263arm\u02b0
p3153
sI3153
Vd\u0290arm\u02b0
p3154
sI3154
Vbuam\u02b0
p3155
sI3155
Vp\u2018uam\u02b0
p3156
sI3156
Vkuam\u02b0
p3157
sI3157
Vk\u2018uam\u02b0
p3158
sI3158
V\u0294uam\u02b0
p3159
sI3159
V\u0294owk
p3160
sI3160
Vdowk
p3161
sI3161
Vkowk
p3162
sI3162
V\u0263owk
p3163
sI3163
Vk\u2018owk
p3164
sI3164
Vt\u2018owk
p3165
sI3165
Vtowk
p3166
sI3166
Vsowk
p3167
sI3167
Vlowk
p3168
sI3168
Vxowk
p3169
sI3169
Vdzowk
p3170
sI3170
Vts\u2018owk
p3171
sI3171
Vtsowk
p3172
sI3172
Vbowk
p3173
sI3173
Vp\u2018owk
p3174
sI3174
Vpowk
p3175
sI3175
Vmowk
p3176
sI3176
Vpuwk
p3177
sI3177
Vbuwk
p3178
sI3178
V\u0282owk
p3179
sI3179
Vluwk
p3180
sI3180
Vdruwk
p3181
sI3181
Vkuwk
p3182
sI3182
Vk\u2018uwk
p3183
sI3183
Vd\u0291uwk
p3184
sI3184
Vt\u0255\u2018uwk
p3185
sI3185
Vjuwk
p3186
sI3186
Vguwk
p3187
sI3187
Vts\u2018uwk
p3188
sI3188
V\u0272uwk
p3189
sI3189
Vt\u0255uwk
p3190
sI3190
V\u0255uwk
p3191
sI3191
Vxuwk
p3192
sI3192
Vtruwk
p3193
sI3193
Vtsuwk
p3194
sI3194
Vt\u0282\u2018owk
p3195
sI3195
Vnruwk
p3196
sI3196
Vt\u0282owk
p3197
sI3197
Vp\u2018uwk
p3198
sI3198
V\u0294uwk
p3199
sI3199
Vsuwk
p3200
sI3200
Vmuwk
p3201
sI3201
Vjuwk
p3202
sI3202
Vtr\u2018uwk
p3203
sI3203
V\u014buwk
p3204
sI3204
Vdzuwk
p3205
sI3205
V\u0294awk
p3206
sI3206
Vdawk
p3207
sI3207
Vtawk
p3208
sI3208
Vk\u2018awk
p3209
sI3209
V\u0263awk
p3210
sI3210
Vbawk
p3211
sI3211
Vsawk
p3212
sI3212
Vkawk
p3213
sI3213
Vmawk
p3214
sI3214
Vxawk
p3215
sI3215
Vnawk
p3216
sI3216
Vtsawk
p3217
sI3217
Vpawk
p3218
sI3218
Vlawk
p3219
sI3219
V\u014bawk
p3220
sI3220
Vt\u0255uawk
p3221
sI3221
V\u014buawk
p3222
sI3222
Vxuawk
p3223
sI3223
Vkuawk
p3224
sI3224
Vguawk
p3225
sI3225
Vd\u0291uawk
p3226
sI3226
Vt\u0255\u2018uawk
p3227
sI3227
V\u0272uawk
p3228
sI3228
V\u0255uawk
p3229
sI3229
Vjuawk
p3230
sI3230
Vdruawk
p3231
sI3231
Vluawk
p3232
sI3232
Vk\u2018uawk
p3233
sI3233
Vtruawk
p3234
sI3234
Vtsuawk
p3235
sI3235
V\u0291uawk
p3236
sI3236
Vbuawk
p3237
sI3237
Vts\u2018uawk
p3238
sI3238
Vzuawk
p3239
sI3239
Vsuawk
p3240
sI3240
Vpuawk
p3241
sI3241
Vtr\u2018uawk
p3242
sI3242
Vkarwk
p3243
sI3243
V\u014barwk
p3244
sI3244
Vd\u0290arwk
p3245
sI3245
Vt\u0282arwk
p3246
sI3246
V\u0282arwk
p3247
sI3247
Vtrarwk
p3248
sI3248
Vparwk
p3249
sI3249
Vmarwk
p3250
sI3250
Vbarwk
p3251
sI3251
Vp\u2018arwk
p3252
sI3252
Vk\u2018arwk
p3253
sI3253
Vdrarwk
p3254
sI3254
V\u0294arwk
p3255
sI3255
Vnrarwk
p3256
sI3256
Vtr\u2018arwk
p3257
sI3257
Vlarwk
p3258
sI3258
V\u0263arwk
p3259
sI3259
Vxarwk
p3260
sI3260
Vt\u0282\u2018arwk
p3261
sI3261
Vt\u0255it
p3262
sI3262
V\u0272it
p3263
sI3263
V\u0291it
p3264
sI3264
Vdit
p3265
sI3265
Vsit
p3266
sI3266
V\u0294jit
p3267
sI3267
Vts\u2018it
p3268
sI3268
Vp\u2018jit
p3269
sI3269
Vkjit
p3270
sI3270
Vnit
p3271
sI3271
Vjit
p3272
sI3272
Vk\u2018jit
p3273
sI3273
Vxjit
p3274
sI3274
Vtr\u2018it
p3275
sI3275
Vlit
p3276
sI3276
Vtrit
p3277
sI3277
Vdzit
p3278
sI3278
Vt\u0282\u2018it
p3279
sI3279
V\u0255it
p3280
sI3280
Vtsit
p3281
sI3281
Vmjit
p3282
sI3282
Vpjit
p3283
sI3283
Vgjit
p3284
sI3284
Vkwit
p3285
sI3285
Vjit
p3286
sI3286
V\u0282wit
p3287
sI3287
Vt\u0255\u2018it
p3288
sI3288
Vd\u0290it
p3289
sI3289
Vmit
p3290
sI3290
Vbjit
p3291
sI3291
V\u0294it
p3292
sI3292
V\u014bit
p3293
sI3293
Vpit
p3294
sI3294
Vtrit
p3295
sI3295
Vxit
p3296
sI3296
Vkit
p3297
sI3297
Vtit
p3298
sI3298
Vxwit
p3299
sI3299
V\u0291wit
p3300
sI3300
Vkjwit
p3301
sI3301
Vdzwit
p3302
sI3302
Vwjit
p3303
sI3303
Vtswit
p3304
sI3304
Vswit
p3305
sI3305
Vlwit
p3306
sI3306
Vtr\u2018wit
p3307
sI3307
Vtrwit
p3308
sI3308
Vdrwit
p3309
sI3309
Vt\u0255\u2018wit
p3310
sI3310
Vts\u2018wit
p3311
sI3311
Vt\u0282wit
p3312
sI3312
Vxjwit
p3313
sI3313
Vt\u0282it
p3314
sI3314
V\u0282it
p3315
sI3315
Vt\u0282\u2018it
p3316
sI3316
Vmut
p3317
sI3317
Vput
p3318
sI3318
V\u0294ut
p3319
sI3319
Vkut
p3320
sI3320
Vk\u2018ut
p3321
sI3321
Vgut
p3322
sI3322
Vbut
p3323
sI3323
Vxut
p3324
sI3324
Vwut
p3325
sI3325
Vp\u2018ut
p3326
sI3326
V\u014but
p3327
sI3327
Vx\u0268t
p3328
sI3328
Vk\u0268t
p3329
sI3329
V\u014b\u0268t
p3330
sI3330
Vg\u0268t
p3331
sI3331
Vk\u2018\u0268t
p3332
sI3332
V\u014buat
p3333
sI3333
Vbuat
p3334
sI3334
Vwuat
p3335
sI3335
Vkuat
p3336
sI3336
V\u0294uat
p3337
sI3337
Vguat
p3338
sI3338
Vk\u2018uat
p3339
sI3339
Vpuat
p3340
sI3340
Vmuat
p3341
sI3341
Vxuat
p3342
sI3342
V\u0294\u0268at
p3343
sI3343
Vx\u0268at
p3344
sI3344
Vk\u0268at
p3345
sI3345
Vg\u0268at
p3346
sI3346
Vp\u2018uat
p3347
sI3347
V\u014b\u0268at
p3348
sI3348
Vmw\u01ddt
p3349
sI3349
Vd\u0290w\u01ddt
p3350
sI3350
Vkw\u01ddt
p3351
sI3351
Vbw\u01ddt
p3352
sI3352
Vtw\u01ddt
p3353
sI3353
Vt\u2018w\u01ddt
p3354
sI3354
Vdw\u01ddt
p3355
sI3355
V\u0294w\u01ddt
p3356
sI3356
Vxw\u01ddt
p3357
sI3357
V\u014bw\u01ddt
p3358
sI3358
Vp\u2018w\u01ddt
p3359
sI3359
Vlw\u01ddt
p3360
sI3360
Vk\u2018w\u01ddt
p3361
sI3361
Vnw\u01ddt
p3362
sI3362
Vsw\u01ddt
p3363
sI3363
Vts\u2018w\u01ddt
p3364
sI3364
Vdzw\u01ddt
p3365
sI3365
V\u0263\u01ddt
p3366
sI3366
V\u0263w\u01ddt
p3367
sI3367
Vtsw\u01ddt
p3368
sI3368
V\u0263at
p3369
sI3369
Vxat
p3370
sI3370
Vtat
p3371
sI3371
Vt\u2018at
p3372
sI3372
V\u0294at
p3373
sI3373
Vlat
p3374
sI3374
Vk\u2018at
p3375
sI3375
Vdat
p3376
sI3376
Vdzat
p3377
sI3377
V\u014bat
p3378
sI3378
Vkat
p3379
sI3379
Vsat
p3380
sI3380
Vts\u2018at
p3381
sI3381
Vnat
p3382
sI3382
Vmat
p3383
sI3383
Vmwat
p3384
sI3384
V\u014bwat
p3385
sI3385
Vdzwat
p3386
sI3386
Vpwat
p3387
sI3387
Vswat
p3388
sI3388
Vkwat
p3389
sI3389
Vk\u2018wat
p3390
sI3390
V\u0263wat
p3391
sI3391
Vdwat
p3392
sI3392
Vxwat
p3393
sI3393
V\u0294wat
p3394
sI3394
Vtswat
p3395
sI3395
Vp\u2018wat
p3396
sI3396
Vt\u2018wat
p3397
sI3397
Vlwat
p3398
sI3398
Vtwat
p3399
sI3399
Vts\u2018wat
p3400
sI3400
Vbwat
p3401
sI3401
V\u0263\u025brt
p3402
sI3402
Vt\u0282\u025brt
p3403
sI3403
Vbw\u025brt
p3404
sI3404
Vk\u2018\u025brt
p3405
sI3405
V\u0263w\u025brt
p3406
sI3406
Vpw\u025brt
p3407
sI3407
Vtrw\u025brt
p3408
sI3408
V\u0294w\u025brt
p3409
sI3409
Vnrw\u025brt
p3410
sI3410
Vt\u0282\u2018\u025brt
p3411
sI3411
Vkw\u025brt
p3412
sI3412
Vk\u025brt
p3413
sI3413
V\u0294\u025brt
p3414
sI3414
V\u0282\u025brt
p3415
sI3415
Vmw\u025brt
p3416
sI3416
Vxw\u025brt
p3417
sI3417
Vnr\u025brt
p3418
sI3418
V\u014bw\u025brt
p3419
sI3419
Vk\u2018w\u025brt
p3420
sI3420
Vp\u2018w\u025brt
p3421
sI3421
Vt\u0282w\u025brt
p3422
sI3422
V\u0263art
p3423
sI3423
V\u0294art
p3424
sI3424
V\u014bart
p3425
sI3425
Vt\u0282\u2018art
p3426
sI3426
Vk\u2018art
p3427
sI3427
Vxart
p3428
sI3428
Vtr\u2018art
p3429
sI3429
Vkwart
p3430
sI3430
V\u0263wart
p3431
sI3431
Vtr\u2018wart
p3432
sI3432
Vtrwart
p3433
sI3433
V\u0282wart
p3434
sI3434
V\u014bwart
p3435
sI3435
Vt\u0282\u2018wart
p3436
sI3436
Vmart
p3437
sI3437
Vnrwart
p3438
sI3438
Vpart
p3439
sI3439
Vkart
p3440
sI3440
Vt\u0282art
p3441
sI3441
Vtrart
p3442
sI3442
V\u0272art
p3443
sI3443
Vs\u025bt
p3444
sI3444
Vts\u2018\u025bt
p3445
sI3445
Vk\u025bt
p3446
sI3446
Vts\u025bt
p3447
sI3447
Vxw\u025bt
p3448
sI3448
Vk\u2018w\u025bt
p3449
sI3449
Vkw\u025bt
p3450
sI3450
V\u0263w\u025bt
p3451
sI3451
V\u0294w\u025bt
p3452
sI3452
Vd\u025bt
p3453
sI3453
Vt\u2018\u025bt
p3454
sI3454
V\u0263\u025bt
p3455
sI3455
Vn\u025bt
p3456
sI3456
Vdz\u025bt
p3457
sI3457
V\u014b\u025bt
p3458
sI3458
Vm\u025bt
p3459
sI3459
Vp\u025bt
p3460
sI3460
V\u0294\u025bt
p3461
sI3461
V\u0272\u025bt
p3462
sI3462
Vx\u025bt
p3463
sI3463
Vp\u2018\u025bt
p3464
sI3464
Vb\u025bt
p3465
sI3465
Vt\u025bt
p3466
sI3466
Vl\u025bt
p3467
sI3467
Vsiat
p3468
sI3468
Vliat
p3469
sI3469
Vtriat
p3470
sI3470
Vgiat
p3471
sI3471
V\u0272iat
p3472
sI3472
Vts\u2018iat
p3473
sI3473
V\u0291iat
p3474
sI3474
Vd\u0291iat
p3475
sI3475
V\u014biat
p3476
sI3476
Vmjiat
p3477
sI3477
Vk\u2018iat
p3478
sI3478
Vpiat
p3479
sI3479
Vdzwiat
p3480
sI3480
Vtswiat
p3481
sI3481
Vswiat
p3482
sI3482
Vtr\u2018wiat
p3483
sI3483
Vwjiat
p3484
sI3484
Vk\u2018jwiat
p3485
sI3485
V\u0294wiat
p3486
sI3486
V\u0272wiat
p3487
sI3487
V\u0255wiat
p3488
sI3488
Vt\u0255wiat
p3489
sI3489
Vt\u0255\u2018wiat
p3490
sI3490
Vtrwiat
p3491
sI3491
Vlwiat
p3492
sI3492
Vp\u2018jiat
p3493
sI3493
Vbiat
p3494
sI3494
Vdriat
p3495
sI3495
Vpiat
p3496
sI3496
V\u0282wiat
p3497
sI3497
Vkjiat
p3498
sI3498
V\u0255iat
p3499
sI3499
Vnrwiat
p3500
sI3500
Vxwiat
p3501
sI3501
V\u0294wiat
p3502
sI3502
Vkwiat
p3503
sI3503
Vt\u0282wiat
p3504
sI3504
Vts\u2018wiat
p3505
sI3505
Vtsiat
p3506
sI3506
V\u0255iat
p3507
sI3507
V\u0294iat
p3508
sI3508
Vtr\u2018iat
p3509
sI3509
Vxiat
p3510
sI3510
Vt\u0255\u2018iat
p3511
sI3511
Vt\u0255iat
p3512
sI3512
Vzwiat
p3513
sI3513
Vt\u0255\u2018iat
p3514
sI3514
Vjiat
p3515
sI3515
V\u0291iat
p3516
sI3516
Vj\u0268a\u0103k
p3517
sI3517
Vl\u0268a\u0103k
p3518
sI3518
Vk\u0268a\u0103k
p3519
sI3519
Vt\u0255\u0268a\u0103k
p3520
sI3520
V\u0255\u0268a\u0103k
p3521
sI3521
V\u0272\u0268a\u0103k
p3522
sI3522
Vt\u0255\u2018\u0268a\u0103k
p3523
sI3523
V\u0294\u0268a\u0103k
p3524
sI3524
Vk\u2018\u0268a\u0103k
p3525
sI3525
V\u014b\u0268a\u0103k
p3526
sI3526
Vd\u0291\u0268a\u0103k
p3527
sI3527
Vtr\u2018\u0268a\u0103k
p3528
sI3528
Vs\u0268a\u0103k
p3529
sI3529
V*t\u0282\u0268a\u0103k
p3530
sI3530
Vts\u0268a\u0103k
p3531
sI3531
Vdz\u0268a\u0103k
p3532
sI3532
Vts\u2018\u0268a\u0103k
p3533
sI3533
Vg\u0268a\u0103k
p3534
sI3534
V\u0294ua\u0103k
p3535
sI3535
Vb\u0268a\u0103k
p3536
sI3536
Vxua\u0103k
p3537
sI3537
Vwua\u0103k
p3538
sI3538
Vkua\u0103k
p3539
sI3539
Vtr\u0268a\u0103k
p3540
sI3540
Vdr\u0268a\u0103k
p3541
sI3541
Vk\u2018ua\u0103k
p3542
sI3542
Vgua\u0103k
p3543
sI3543
Vnr\u0268a\u0103k
p3544
sI3544
Vp\u2018\u0268a\u0103k
p3545
sI3545
Vx\u0268a\u0103k
p3546
sI3546
Vda\u0103k
p3547
sI3547
Vma\u0103k
p3548
sI3548
Vla\u0103k
p3549
sI3549
Vt\u2018a\u0103k
p3550
sI3550
Vtsa\u0103k
p3551
sI3551
Vts\u2018a\u0103k
p3552
sI3552
Vka\u0103k
p3553
sI3553
Vk\u2018a\u0103k
p3554
sI3554
V\u014ba\u0103k
p3555
sI3555
Vp\u2018a\u0103k
p3556
sI3556
V\u0294a\u0103k
p3557
sI3557
Vba\u0103k
p3558
sI3558
Vxa\u0103k
p3559
sI3559
Vsa\u0103k
p3560
sI3560
V\u0263a\u0103k
p3561
sI3561
Vdza\u0103k
p3562
sI3562
Vpa\u0103k
p3563
sI3563
Vna\u0103k
p3564
sI3564
Vxwa\u0103k
p3565
sI3565
Vkwa\u0103k
p3566
sI3566
V\u0294wa\u0103k
p3567
sI3567
V\u0263wa\u0103k
p3568
sI3568
Vk\u2018wa\u0103k
p3569
sI3569
V\u014bwa\u0103k
p3570
sI3570
Vlwa\u0103k
p3571
sI3571
Vtswa\u0103k
p3572
sI3572
Vmark
p3573
sI3573
Vtriajk
p3574
sI3574
Vbark
p3575
sI3575
Vpark
p3576
sI3576
Vgiajk
p3577
sI3577
Vkiajk
p3578
sI3578
V\u0282ark
p3579
sI3579
Vt\u0282\u2018ark
p3580
sI3580
V\u0263wark
p3581
sI3581
Vt\u0282ark
p3582
sI3582
Vd\u0290ark
p3583
sI3583
Vk\u2018iajk
p3584
sI3584
V\u014bark
p3585
sI3585
V\u014biajk
p3586
sI3586
V\u0291iajk
p3587
sI3587
Vk\u2018ark
p3588
sI3588
V\u0294ark
p3589
sI3589
Vtr\u2018ark
p3590
sI3590
V\u0294wiajk
p3591
sI3591
Vp\u2018ark
p3592
sI3592
Vxark
p3593
sI3593
V\u0263ark
p3594
sI3594
Vkark
p3595
sI3595
Vxwark
p3596
sI3596
Vdrark
p3597
sI3597
Vkwark
p3598
sI3598
V\u0294wark
p3599
sI3599
Vnrark
p3600
sI3600
Vk\u2018ark
p3601
sI3601
Vbiajk
p3602
sI3602
Vm\u025brjk
p3603
sI3603
V\u0263w\u025brjk
p3604
sI3604
Vkw\u025brjk
p3605
sI3605
Vp\u025brjk
p3606
sI3606
Vb\u025brjk
p3607
sI3607
Vd\u0290\u025brjk
p3608
sI3608
Vt\u0282\u025brjk
p3609
sI3609
Vd\u0290w\u025brjk
p3610
sI3610
Vt\u0282\u2018\u025brjk
p3611
sI3611
Vk\u025brjk
p3612
sI3612
Vxw\u025brjk
p3613
sI3613
V\u0263\u025brjk
p3614
sI3614
Vk\u025brjk
p3615
sI3615
Vtr\u025brjk
p3616
sI3616
V\u0294\u025brjk
p3617
sI3617
V\u0282\u025brjk
p3618
sI3618
Vp\u2018\u025brjk
p3619
sI3619
V\u014b\u025brjk
p3620
sI3620
Vl\u025brjk
p3621
sI3621
Vt\u0282w\u025brjk
p3622
sI3622
V\u0282w\u025brjk
p3623
sI3623
Vgw\u025brjk
p3624
sI3624
V\u0294\u025brjk
p3625
sI3625
Vsiajk
p3626
sI3626
Vtsiajk
p3627
sI3627
V\u0294jiajk
p3628
sI3628
Vjiajk
p3629
sI3629
V\u0255iajk
p3630
sI3630
Vt\u0255\u2018iajk
p3631
sI3631
Vd\u0291iajk
p3632
sI3632
Vt\u0255iajk
p3633
sI3633
Vdriajk
p3634
sI3634
Vts\u2018iajk
p3635
sI3635
Vziajk
p3636
sI3636
Vdziajk
p3637
sI3637
Vbjiajk
p3638
sI3638
Vwjiajk
p3639
sI3639
Vxjwiajk
p3640
sI3640
Vpjiajk
p3641
sI3641
Vp\u2018jiajk
p3642
sI3642
V\u0291iajk
p3643
sI3643
Vpiajk
p3644
sI3644
Vtriajk
p3645
sI3645
Vtr\u2018iajk
p3646
sI3646
Vtswiajk
p3647
sI3647
Vts\u2018wiajk
p3648
sI3648
Vs\u025bjk
p3649
sI3649
Vk\u025bjk
p3650
sI3650
Vp\u2018\u025bjk
p3651
sI3651
Vl\u025bjk
p3652
sI3652
Vt\u025bjk
p3653
sI3653
V\u0263\u025bjk
p3654
sI3654
V\u014b\u025bjk
p3655
sI3655
Vd\u025bjk
p3656
sI3656
Vt\u2018\u025bjk
p3657
sI3657
Vts\u025bjk
p3658
sI3658
Vk\u2018\u025bjk
p3659
sI3659
Vn\u025bjk
p3660
sI3660
Vdz\u025bjk
p3661
sI3661
Vm\u025bjk
p3662
sI3662
Vb\u025bjk
p3663
sI3663
Vp\u025bjk
p3664
sI3664
Vk\u2018w\u025bjk
p3665
sI3665
Vkw\u025bjk
p3666
sI3666
Vts\u2018\u025bjk
p3667
sI3667
Vx\u025bjk
p3668
sI3668
Vxw\u025bjk
p3669
sI3669
Vt\u2018w\u025bjk
p3670
sI3670
Vt\u0255ik
p3671
sI3671
Vdrik
p3672
sI3672
Vlik
p3673
sI3673
Vtr\u2018ik
p3674
sI3674
Vtrik
p3675
sI3675
V\u0291ik
p3676
sI3676
Vsik
p3677
sI3677
Vd\u0291ik
p3678
sI3678
V\u0255ik
p3679
sI3679
Vxik
p3680
sI3680
Vd\u0290ik
p3681
sI3681
Vgik
p3682
sI3682
Vnrik
p3683
sI3683
Vt\u0282\u2018ik
p3684
sI3684
V\u0294ik
p3685
sI3685
V\u0282ik
p3686
sI3686
Vk\u2018ik
p3687
sI3687
Vkik
p3688
sI3688
Vjik
p3689
sI3689
Vtsik
p3690
sI3690
Vpik
p3691
sI3691
Vwik
p3692
sI3692
Vxwik
p3693
sI3693
Vp\u2018ik
p3694
sI3694
Vt\u0282ik
p3695
sI3695
Vbik
p3696
sI3696
V\u014bik
p3697
sI3697
Vdzik
p3698
sI3698
Vtik
p3699
sI3699
Vmik
p3700
sI3700
Vt\u0255\u2018ik
p3701
sI3701
Vt\u01ddk
p3702
sI3702
Vts\u01ddk
p3703
sI3703
Vl\u01ddk
p3704
sI3704
Vt\u2018\u01ddk
p3705
sI3705
Vk\u2018\u01ddk
p3706
sI3706
Vd\u01ddk
p3707
sI3707
Vx\u01ddk
p3708
sI3708
Vm\u01ddk
p3709
sI3709
Vdz\u01ddk
p3710
sI3710
Vs\u01ddk
p3711
sI3711
Vp\u01ddk
p3712
sI3712
Vb\u01ddk
p3713
sI3713
V\u0263w\u01ddk
p3714
sI3714
Vkw\u01ddk
p3715
sI3715
V\u0294\u01ddk
p3716
sI3716
V\u0263\u01ddk
p3717
sI3717
Vn\u01ddk
p3718
sI3718
Vk\u01ddk
p3719
sI3719
Vts\u2018\u01ddk
p3720
sI3720
Vp\u2018\u01ddk
p3721
sI3721
Vxw\u01ddk
p3722
sI3722
Vts\u2018ip
p3723
sI3723
Vd\u0291ip
p3724
sI3724
Vt\u0255ip
p3725
sI3725
Vzip
p3726
sI3726
Vdzip
p3727
sI3727
V\u0272ip
p3728
sI3728
V\u0294jip
p3729
sI3729
V\u0255ip
p3730
sI3730
Vtsip
p3731
sI3731
Vgip
p3732
sI3732
Vdrip
p3733
sI3733
Vtrip
p3734
sI3734
Vlip
p3735
sI3735
Vkip
p3736
sI3736
V\u014bip
p3737
sI3737
Vk\u2018ip
p3738
sI3738
Vsip
p3739
sI3739
V\u0282ip
p3740
sI3740
Vxip
p3741
sI3741
Vt\u0282ip
p3742
sI3742
V\u0294ip
p3743
sI3743
Vtr\u2018ip
p3744
sI3744
Vjip
p3745
sI3745
Vjip
p3746
sI3746
Vnrip
p3747
sI3747
Vd\u0290ip
p3748
sI3748
Vbip
p3749
sI3749
Vpip
p3750
sI3750
Vt\u0282\u2018ip
p3751
sI3751
Vt\u0255\u2018ip
p3752
sI3752
V\u0263\u01ddp
p3753
sI3753
Vk\u01ddp
p3754
sI3754
Vt\u01ddp
p3755
sI3755
Vs\u01ddp
p3756
sI3756
Vd\u01ddp
p3757
sI3757
Vt\u2018\u01ddp
p3758
sI3758
Vdz\u01ddp
p3759
sI3759
Vts\u01ddp
p3760
sI3760
Vl\u01ddp
p3761
sI3761
Vn\u01ddp
p3762
sI3762
Vk\u2018\u01ddp
p3763
sI3763
V\u0294\u01ddp
p3764
sI3764
Vx\u01ddp
p3765
sI3765
V\u014b\u01ddp
p3766
sI3766
V*x\u01ddp
p3767
sI3767
Vdz\u01ddp
p3768
sI3768
V*j\u01ddp
p3769
sI3769
V\u0263ap
p3770
sI3770
Vlap
p3771
sI3771
Vtap
p3772
sI3772
Vt\u2018ap
p3773
sI3773
Vxap
p3774
sI3774
Vnap
p3775
sI3775
Vdap
p3776
sI3776
Vsap
p3777
sI3777
V\u014bap
p3778
sI3778
Vdzap
p3779
sI3779
Vkap
p3780
sI3780
Vk\u2018ap
p3781
sI3781
V\u0294ap
p3782
sI3782
Vts\u2018ap
p3783
sI3783
V*kjiap
p3784
sI3784
Vtsap
p3785
sI3785
Vjiap
p3786
sI3786
Vtsiap
p3787
sI3787
V\u0255iap
p3788
sI3788
Vd\u0291iap
p3789
sI3789
Vliap
p3790
sI3790
Vdziap
p3791
sI3791
Vdriap
p3792
sI3792
V\u0294iap
p3793
sI3793
Vnriap
p3794
sI3794
Vt\u0255\u2018iap
p3795
sI3795
V\u0272iap
p3796
sI3796
Vt\u0255iap
p3797
sI3797
Vts\u2018iap
p3798
sI3798
Vtr\u2018iap
p3799
sI3799
Vgiap
p3800
sI3800
Vtriap
p3801
sI3801
Vjiap
p3802
sI3802
Vk\u2018iap
p3803
sI3803
Vts\u2018iap
p3804
sI3804
Vkiap
p3805
sI3805
V\u0294jiap
p3806
sI3806
Vt\u2018\u025bp
p3807
sI3807
V\u0263\u025bp
p3808
sI3808
Vk\u025bp
p3809
sI3809
Vk\u2018\u025bp
p3810
sI3810
Vd\u025bp
p3811
sI3811
Vn\u025bp
p3812
sI3812
Vs\u025bp
p3813
sI3813
Vl\u025bp
p3814
sI3814
Vt\u025bp
p3815
sI3815
Vdz\u025bp
p3816
sI3816
Vts\u025bp
p3817
sI3817
Vx\u025bp
p3818
sI3818
V*\u0255iap
p3819
sI3819
V\u0263\u025brp
p3820
sI3820
Vk\u2018\u025brp
p3821
sI3821
Vd\u0290\u025brp
p3822
sI3822
Vk\u025brp
p3823
sI3823
Vt\u0282\u025brp
p3824
sI3824
Vt\u0282\u2018\u025brp
p3825
sI3825
Vnr\u025brp
p3826
sI3826
Vx\u025brp
p3827
sI3827
V\u0282\u025brp
p3828
sI3828
Vtr\u025brp
p3829
sI3829
V\u0294\u025brp
p3830
sI3830
V\u014b\u025brp
p3831
sI3831
Vtr\u2018\u025brp
p3832
sI3832
V\u0263arp
p3833
sI3833
Vdrarp
p3834
sI3834
V\u0294arp
p3835
sI3835
Vkarp
p3836
sI3836
V\u0282arp
p3837
sI3837
Vxarp
p3838
sI3838
V\u014b\u0268ap
p3839
sI3839
Vx\u0268ap
p3840
sI3840
Vk\u2018\u0268ap
p3841
sI3841
Vk\u0268ap
p3842
sI3842
V\u0294\u0268ap
p3843
sI3843
Vj\u0268ap
p3844
sI3844
Vg\u0268ap
p3845
sI3845
Vbuap
p3846
sI3846
Vpuap
p3847
sI3847
Vp\u2018uap
p3848
sI3848
Vk\u2018uap
p3849
sI3849
Vnruap
p3850
sI3850
Vtruap
p3851
s.