(dp0
I0
(dp1
I1
(dp2
S'kai'
p3
Vow\u014b
p4
sS'he'
p5
V-
p6
ssI2
(dp7
g3
Vow\u014b
p8
sg5
g6
ssI3
(dp9
g3
Vuw\u014b
p10
sg5
g6
ssI4
(dp11
g3
Vuw\u014b
p12
sg5
g6
ssS'rhyme'
p13
V45
p14
sS'number'
p15
V1
p16
sS'she'
p17
V12
p18
sS'tone'
p19
g16
ssI1
(dp20
I1
(dp21
g3
Vaw\u014b
p22
sg5
g6
ssI2
(dp23
g3
g6
sg5
g6
ssI3
(dp24
g3
g6
sg5
g6
ssI4
(dp25
g3
g6
sg5
g6
ssg13
V46
p26
sg15
V2
p27
sg17
V12
p28
sg19
g16
ssI2
(dp29
I1
(dp30
g3
g6
sg5
g6
ssI2
(dp31
g3
g6
sg5
g6
ssI3
(dp32
g3
Vuaw\u014b
p33
sg5
g6
ssI4
(dp34
g3
Vuaw\u014b
p35
sg5
g6
ssg13
V47
p36
sg15
V3
p37
sg17
V12
p38
sg19
g16
ssI3
(dp39
I1
(dp40
g3
g6
sg5
g6
ssI2
(dp41
g3
Varw\u014b
p42
sg5
g6
ssI3
(dp43
g3
g6
sg5
g6
ssI4
(dp44
g3
g6
sg5
g6
ssg13
V43
p45
sg15
V4
p46
sg17
V11
p47
sg19
g16
ssI4
(dp48
I1
(dp49
g3
g6
sg5
g6
ssI2
(dp50
g3
Vi\u0103
p51
sg5
Vwi\u0103
p52
ssI3
(dp53
g3
Vi\u0103
p54
sg5
Vwi\u0103
p55
ssI4
(dp56
g3
Vji\u0103
p57
sg5
Vjwi\u0103
p58
ssg13
V16
p59
sg15
V5
p60
sg17
g60
sg19
g16
ssI5
(dp61
I1
(dp62
g3
g6
sg5
g6
ssI2
(dp63
g3
Vi
p64
sg5
Vwi
p65
ssI3
(dp66
g3
g64
sg5
Vwi
p67
ssI4
(dp68
g3
Vji
p69
sg5
Vjwi
p70
ssg13
V17
p71
sg15
V6
p72
sg17
g60
sg19
g16
ssI6
(dp73
I1
(dp74
g3
g6
sg5
g6
ssI2
(dp75
g3
V\u0268
p76
sg5
g6
ssI3
(dp77
g3
V\u0268
p78
sg5
g6
ssI4
(dp79
g3
V\u0268
p80
sg5
g6
ssg13
V18
p81
sg15
V7
p82
sg17
g60
sg19
g16
ssI7
(dp83
I1
(dp84
g3
g6
sg5
g6
ssI2
(dp85
g3
g6
sg5
g6
ssI3
(dp86
g3
V\u0268j
p87
sg5
Vuj
p88
ssI4
(dp89
g3
g6
sg5
g6
ssg13
V19
p90
sg15
V8
p91
sg17
g60
sg19
g16
ssI8
(dp92
I1
(dp93
g3
g6
sg5
g6
ssI2
(dp94
g3
V\u0268\u0103
p95
sg5
g6
ssI3
(dp96
g3
V\u0268\u0103
p97
sg5
g6
ssI4
(dp98
g3
V\u0268\u0103
p99
sg5
g6
ssg13
g60
sg15
V9
p100
sg17
g37
sg19
g16
ssI9
(dp101
I1
(dp102
g3
g6
sg5
g6
ssI2
(dp103
g3
g6
sg5
Vu\u0103
p104
ssI3
(dp105
g3
g6
sg5
Vu\u0103
p106
ssI4
(dp107
g3
g6
sg5
Vu\u0103
p108
ssg13
g72
sg15
V10
p109
sg17
g37
sg19
g16
ssI10
(dp110
I1
(dp111
g3
g6
sg5
V\u0254
p112
ssI2
(dp113
g3
g6
sg5
g6
ssI3
(dp114
g3
g6
sg5
g6
ssI4
(dp115
g3
g6
sg5
g6
ssg13
g46
sg15
V11
p116
sg17
g37
sg19
g16
ssI11
(dp117
I1
(dp118
g3
g6
sg5
g6
ssI2
(dp119
g3
g6
sg5
g6
ssI3
(dp120
g3
g6
sg5
Vu\u0103
p121
ssI4
(dp122
g3
V\u025bj
p123
sg5
Vw\u025bj
p124
ssg13
V15
p125
sg15
V12
p126
sg17
g46
sg19
g16
ssI12
(dp127
I1
(dp128
g3
g6
sg5
g6
ssI2
(dp129
g3
Varj
p130
sg5
Vwarj
p131
ssI3
(dp132
g3
g6
sg5
g6
ssI4
(dp133
g3
g6
sg5
g6
ssg13
V11
p134
sg15
V13
p135
sg17
g46
sg19
g16
ssI13
(dp136
I1
(dp137
g3
g6
sg5
g6
ssI2
(dp138
g3
V\u025brj
p139
sg5
Vw\u025brj
p140
ssI3
(dp141
g3
V*\u025brj
p142
sg5
g6
ssI4
(dp143
g3
g6
sg5
g6
ssg13
V10
p144
sg15
V14
p145
sg17
g46
sg19
g16
ssI14
(dp146
I1
(dp147
g3
g6
sg5
Vw\u01ddj
p148
ssI2
(dp149
g3
g6
sg5
g6
ssI3
(dp150
g3
g6
sg5
g6
ssI4
(dp151
g3
g6
sg5
g6
ssg13
g91
sg15
V15
p152
sg17
g46
sg19
g16
ssI15
(dp153
I1
(dp154
g3
V\u01ddj
p155
sg5
g6
ssI2
(dp156
g3
g6
sg5
g6
ssI3
(dp157
g3
V*\u01ddj
p158
sg5
g6
ssI4
(dp159
g3
g6
sg5
g6
ssg13
g82
sg15
V16
p160
sg17
g46
sg19
g16
ssI16
(dp161
I1
(dp162
g3
g6
sg5
g6
ssI2
(dp163
g3
g6
sg5
g6
ssI3
(dp164
g3
Vin
p165
sg5
Vwin
p166
ssI4
(dp167
g3
Vjin
p168
sg5
g6
ssg13
V70
p169
sg15
V17
p170
sg17
V14
p171
sg19
g16
ssI17
(dp172
I1
(dp173
g3
V*in
p174
sg5
g6
ssI2
(dp175
g3
g6
sg5
g6
ssI3
(dp176
g3
g6
sg5
Vwin
p177
ssI4
(dp178
g3
g6
sg5
Vjwin
p179
ssg13
V71
p180
sg15
V18
p181
sg17
V14
p182
sg19
g16
ssI18
(dp183
I1
(dp184
g3
g6
sg5
g6
ssI2
(dp185
g3
Vin
p186
sg5
g6
ssI3
(dp187
g3
g6
sg5
g6
ssI4
(dp188
g3
g6
sg5
g6
ssg13
V69
p189
sg15
V19
p190
sg17
V14
p191
sg19
g16
ssI19
(dp192
I1
(dp193
g3
g6
sg5
g6
ssI2
(dp194
g3
g6
sg5
g6
ssI3
(dp195
g3
V*win
p196
sg5
Vun
p197
ssI4
(dp198
g3
g6
sg5
g6
ssg13
V68
p199
sg15
V20
p200
sg17
V14
p201
sg19
g16
ssI20
(dp202
I1
(dp203
g3
g6
sg5
g6
ssI2
(dp204
g3
g6
sg5
g6
ssI3
(dp205
g3
V\u0268n
p206
sg5
g6
ssI4
(dp207
g3
g6
sg5
g6
ssg13
V67
p208
sg15
V21
p209
sg17
V14
p210
sg19
g16
ssI21
(dp211
I1
(dp212
g3
g6
sg5
g6
ssI2
(dp213
g3
g6
sg5
g6
ssI3
(dp214
g3
V\u0268an
p215
sg5
Vuan
p216
ssI4
(dp217
g3
g6
sg5
g6
ssg13
V55
p218
sg15
V22
p219
sg17
V13
p220
sg19
g16
ssI22
(dp221
I1
(dp222
g3
g6
sg5
Vw\u01ddn
p223
ssI2
(dp224
g3
g6
sg5
g6
ssI3
(dp225
g3
g6
sg5
g6
ssI4
(dp226
g3
g6
sg5
g6
ssg13
V66
p227
sg15
V23
p228
sg17
V14
p229
sg19
g16
ssI23
(dp230
I1
(dp231
g3
V\u01ddn
p232
sg5
g6
ssI2
(dp233
g3
g6
sg5
g6
ssI3
(dp234
g3
g6
sg5
g6
ssI4
(dp235
g3
g6
sg5
g6
ssg13
V65
p236
sg15
V24
p237
sg17
V14
p238
sg19
g16
ssI24
(dp239
I1
(dp240
g3
Van
p241
sg5
V*wan
p242
ssI2
(dp243
g3
g6
sg5
g6
ssI3
(dp244
g3
g6
sg5
g6
ssI4
(dp245
g3
g6
sg5
g6
ssg13
V51
p246
sg15
V25
p247
sg17
V13
p248
sg19
g16
ssI25
(dp249
I1
(dp250
g3
g6
sg5
Vwan
p251
ssI2
(dp252
g3
g6
sg5
g6
ssI3
(dp253
g3
g6
sg5
g6
ssI4
(dp254
g3
g6
sg5
g6
ssg13
V52
p255
sg15
V26
p256
sg17
V13
p257
sg19
g16
ssI26
(dp258
I1
(dp259
g3
V*arn
p260
sg5
g6
ssI2
(dp261
g3
Varn
p262
sg5
Vwarn
p263
ssI3
(dp264
g3
g6
sg5
g6
ssI4
(dp265
g3
g6
sg5
g6
ssg13
V53
p266
sg15
V27
p267
sg17
V13
p268
sg19
g16
ssI27
(dp269
I1
(dp270
g3
V*\u025brn
p271
sg5
g6
ssI2
(dp272
g3
V\u025brn
p273
sg5
Vw\u025brn
p274
ssI3
(dp275
g3
g6
sg5
g6
ssI4
(dp276
g3
g6
sg5
g6
ssg13
V54
p277
sg15
V28
p278
sg17
V13
p279
sg19
g16
ssI28
(dp280
I1
(dp281
g3
g6
sg5
g6
ssI2
(dp282
g3
g6
sg5
V*w\u025bn
p283
ssI3
(dp284
g3
g6
sg5
g6
ssI4
(dp285
g3
V\u025bn
p286
sg5
Vw\u025bn
p287
ssg13
V57
p288
sg15
V29
p289
sg17
V13
p290
sg19
g16
ssI29
(dp291
I1
(dp292
g3
g6
sg5
g6
ssI2
(dp293
g3
V*ian
p294
sg5
V*wian
p295
ssI3
(dp296
g3
Vian
p297
sg5
Vjwian
p298
ssI4
(dp299
g3
Vjian
p300
sg5
Vjwian
p301
ssg13
V56
p302
sg15
V30
p303
sg17
V13
p304
sg19
g16
ssI30
(dp305
I1
(dp306
g3
g6
sg5
g6
ssI2
(dp307
g3
g6
sg5
g6
ssI3
(dp308
g3
g6
sg5
g6
ssI4
(dp309
g3
V\u025bw
p310
sg5
g6
ssg13
V23
p311
sg15
V31
p312
sg17
g72
sg19
g16
ssI31
(dp313
I1
(dp314
g3
g6
sg5
g6
ssI2
(dp315
g3
g6
sg5
g6
ssI3
(dp316
g3
Viaw
p317
sg5
g6
ssI4
(dp318
g3
Vjiaw
p319
sg5
g6
ssg13
V22
p320
sg15
V32
p321
sg17
g72
sg19
g16
ssI32
(dp322
I1
(dp323
g3
g6
sg5
g6
ssI2
(dp324
g3
Varw
p325
sg5
g6
ssI3
(dp326
g3
g6
sg5
g6
ssI4
(dp327
g3
g6
sg5
g6
ssg13
V21
p328
sg15
V33
p329
sg17
g72
sg19
g16
ssI33
(dp330
I1
(dp331
g3
Vaw
p332
sg5
g6
ssI2
(dp333
g3
g6
sg5
g6
ssI3
(dp334
g3
g6
sg5
g6
ssI4
(dp335
g3
g6
sg5
g6
ssg13
V20
p336
sg15
V34
p337
sg17
g72
sg19
g16
ssI34
(dp338
I1
(dp339
g3
Va\u0103
p340
sg5
g6
ssI2
(dp341
g3
g6
sg5
g6
ssI3
(dp342
g3
g6
sg5
g6
ssI4
(dp343
g3
g6
sg5
g6
ssg13
g16
sg15
V35
p344
sg17
g16
sg19
g16
ssI35
(dp345
I1
(dp346
g3
V*a\u0103
p347
sg5
Vwa\u0103
p348
ssI2
(dp349
g3
g6
sg5
g6
ssI3
(dp350
g3
V\u0268a\u0103
p351
sg5
Vua\u0103
p352
ssI4
(dp353
g3
g6
sg5
g6
ssg13
g27
sg15
V36
p354
sg17
g16
sg19
g16
ssI36
(dp355
I1
(dp356
g3
g6
sg5
g6
ssI2
(dp357
g3
Var
p358
sg5
Vwar
p359
ssI3
(dp360
g3
Via\u0103
p361
sg5
g6
ssI4
(dp362
g3
Via\u0103
p363
sg5
g6
ssg13
g37
sg15
V37
p364
sg17
g27
sg19
g16
ssI37
(dp365
I1
(dp366
g3
g6
sg5
g6
ssI2
(dp367
g3
V\u0268a\u0103\u014b
p368
sg5
g6
ssI3
(dp369
g3
V\u0268a\u0103\u014b
p370
sg5
Vua\u0103\u014b
p371
ssI4
(dp372
g3
V\u0268a\u0103\u014b
p373
sg5
g6
ssg13
V28
p374
sg15
V38
p375
sg17
g91
sg19
g16
ssI38
(dp376
I1
(dp377
g3
Va\u0103\u014b
p378
sg5
Vwa\u0103\u014b
p379
ssI2
(dp380
g3
g6
sg5
g6
ssI3
(dp381
g3
g6
sg5
g6
ssI4
(dp382
g3
g6
sg5
g6
ssg13
V27
p383
sg15
V39
p384
sg17
g91
sg19
g16
ssI39
(dp385
I1
(dp386
g3
g6
sg5
g6
ssI2
(dp387
g3
Varj\u014b
p388
sg5
Vwarj\u014b
p389
ssI3
(dp390
g3
Viaj\u014b
p391
sg5
Vwiaj\u014b
p392
ssI4
(dp393
g3
Viaj\u014b
p394
sg5
Vjwiaj\u014b
p395
ssg13
V35
p396
sg15
V40
p397
sg17
V10
p398
sg19
g16
ssI40
(dp399
I1
(dp400
g3
g6
sg5
g6
ssI2
(dp401
g3
V\u025brj\u014b
p402
sg5
Vw\u025brj\u014b
p403
ssI3
(dp404
g3
g6
sg5
g6
ssI4
(dp405
g3
g6
sg5
g6
ssg13
V36
p406
sg15
V41
p407
sg17
V10
p408
sg19
g16
ssI41
(dp409
I1
(dp410
g3
g6
sg5
g6
ssI2
(dp411
g3
g6
sg5
g6
ssI3
(dp412
g3
Viaj\u014b
p413
sg5
Vwiaj\u014b
p414
ssI4
(dp415
g3
Vjiaj\u014b
p416
sg5
Vjwiaj\u014b
p417
ssg13
V37
p418
sg15
V42
p419
sg17
V10
p420
sg19
g16
ssI42
(dp421
I1
(dp422
g3
g6
sg5
g6
ssI2
(dp423
g3
g6
sg5
g6
ssI3
(dp424
g3
g6
sg5
g6
ssI4
(dp425
g3
V\u025bj\u014b
p426
sg5
Vw\u025bj\u014b
p427
ssg13
V38
p428
sg15
V43
p429
sg17
V10
p430
sg19
g16
ssI43
(dp431
I1
(dp432
g3
g6
sg5
g6
ssI2
(dp433
g3
V*i\u014b
p434
sg5
g6
ssI3
(dp435
g3
Vi\u014b
p436
sg5
g6
ssI4
(dp437
g3
Vi\u014b
p438
sg5
g6
ssg13
V32
p439
sg15
V44
p440
sg17
g100
sg19
g16
ssI44
(dp441
I1
(dp442
g3
V\u01dd\u014b
p443
sg5
Vw\u01dd\u014b
p444
ssI2
(dp445
g3
g6
sg5
g6
ssI3
(dp446
g3
g6
sg5
g6
ssI4
(dp447
g3
g6
sg5
g6
ssg13
V31
p448
sg15
V45
p449
sg17
g100
sg19
g16
ssI45
(dp450
I1
(dp451
g3
g6
sg5
g6
ssI2
(dp452
g3
Vuw
p453
sg5
g6
ssI3
(dp454
g3
Vuw
p455
sg5
g6
ssI4
(dp456
g3
Vuw
p457
sg5
g6
ssg13
V25
p458
sg15
V46
p459
sg17
g82
sg19
g16
ssI46
(dp460
I1
(dp461
g3
Vow
p462
sg5
g6
ssI2
(dp463
g3
g6
sg5
g6
ssI3
(dp464
g3
g6
sg5
g6
ssI4
(dp465
g3
g6
sg5
g6
ssg13
V24
p466
sg15
V47
p467
sg17
g82
sg19
g16
ssI47
(dp468
I1
(dp469
g3
g6
sg5
g6
ssI2
(dp470
g3
V*iw
p471
sg5
g6
ssI3
(dp472
g3
g6
sg5
g6
ssI4
(dp473
g3
Vjiw
p474
sg5
g6
ssg13
V26
p475
sg15
V48
p476
sg17
g82
sg19
g16
ssI48
(dp477
I1
(dp478
g3
g6
sg5
g6
ssI2
(dp479
g3
Vim
p480
sg5
g6
ssI3
(dp481
g3
Vim
p482
sg5
g6
ssI4
(dp483
g3
Vjim
p484
sg5
g6
ssg13
V94
p485
sg15
V49
p486
sg17
V16
p487
sg19
g16
ssI49
(dp488
I1
(dp489
g3
V\u01ddm
p490
sg5
g6
ssI2
(dp491
g3
g6
sg5
g6
ssI3
(dp492
g3
g6
sg5
g6
ssI4
(dp493
g3
g6
sg5
g6
ssg13
V78
p494
sg15
V50
p495
sg17
V15
p496
sg19
g16
ssI50
(dp497
I1
(dp498
g3
Vam
p499
sg5
g6
ssI2
(dp500
g3
g6
sg5
g6
ssI3
(dp501
g3
g6
sg5
g6
ssI4
(dp502
g3
g6
sg5
g6
ssg13
V79
p503
sg15
V51
p504
sg17
V15
p505
sg19
g16
ssI51
(dp506
I1
(dp507
g3
g6
sg5
g6
ssI2
(dp508
g3
V*iam
p509
sg5
g6
ssI3
(dp510
g3
Viam
p511
sg5
g6
ssI4
(dp512
g3
Vjiam
p513
sg5
g6
ssg13
V84
p514
sg15
V52
p515
sg17
V15
p516
sg19
g16
ssI52
(dp517
I1
(dp518
g3
g6
sg5
g6
ssI2
(dp519
g3
g6
sg5
g6
ssI3
(dp520
g3
V*\u025bm
p521
sg5
g6
ssI4
(dp522
g3
V\u025bm
p523
sg5
g6
ssg13
V85
p524
sg15
V53
p525
sg17
V15
p526
sg19
g16
ssI53
(dp527
I1
(dp528
g3
g6
sg5
g6
ssI2
(dp529
g3
V\u025brm
p530
sg5
g6
ssI3
(dp531
g3
g6
sg5
g6
ssI4
(dp532
g3
g6
sg5
g6
ssg13
V81
p533
sg15
V54
p534
sg17
V15
p535
sg19
g16
ssI54
(dp536
I1
(dp537
g3
g6
sg5
g6
ssI2
(dp538
g3
Varm
p539
sg5
g6
ssI3
(dp540
g3
g6
sg5
g6
ssI4
(dp541
g3
g6
sg5
g6
ssg13
V80
p542
sg15
V55
p543
sg17
V15
p544
sg19
g16
ssI55
(dp545
I1
(dp546
g3
g6
sg5
g6
ssI2
(dp547
g3
g6
sg5
g6
ssI3
(dp548
g3
V\u0268am
p549
sg5
g6
ssI4
(dp550
g3
g6
sg5
g6
ssg13
V82
p551
sg15
V56
p552
sg17
V15
p553
sg19
g16
ssI56
(dp554
I1
(dp555
g3
g6
sg5
g6
ssI2
(dp556
g3
g6
sg5
g6
ssI3
(dp557
g3
g6
sg5
Vuam
p558
ssI4
(dp559
g3
g6
sg5
g6
ssg13
V83
p560
sg15
V57
p561
sg17
V15
p562
sg19
g16
ssI57
(dp563
I1
(dp564
g3
Vow\u014b\u0294
p565
sg5
g6
ssI2
(dp566
g3
g6
sg5
g6
ssI3
(dp567
g3
Vuw\u014b\u0294
p568
sg5
g6
ssI4
(dp569
g3
Vuw\u014b\u0294
p570
sg5
g6
ssg13
V45
p571
sg15
V58
p572
sg17
V12
p573
sg19
g27
ssI58
(dp574
I1
(dp575
g3
Vaw\u014b\u0294
p576
sg5
g6
ssI2
(dp577
g3
g6
sg5
g6
ssI3
(dp578
g3
Vuaw\u014b\u0294
p579
sg5
g6
ssI4
(dp580
g3
Vuaw\u014b\u0294
p581
sg5
g6
ssg13
V46
p582
sg15
V59
p583
sg17
V12
p584
sg19
g27
ssI59
(dp585
I1
(dp586
g3
g6
sg5
g6
ssI2
(dp587
g3
Varw\u014b\u0294
p588
sg5
g6
ssI3
(dp589
g3
g6
sg5
g6
ssI4
(dp590
g3
g6
sg5
g6
ssg13
V43
p591
sg15
V60
p592
sg17
V11
p593
sg19
g27
ssI60
(dp594
I1
(dp595
g3
g6
sg5
g6
ssI2
(dp596
g3
Vi\u0103\u0294
p597
sg5
g6
ssI3
(dp598
g3
Vi\u0103\u0294
p599
sg5
Vwi\u0103\u0294
p600
ssI4
(dp601
g3
Vji\u0103\u0294
p602
sg5
Vjwi\u0103\u0294
p603
ssg13
V16
p604
sg15
V61
p605
sg17
g60
sg19
g27
ssI61
(dp606
I1
(dp607
g3
g6
sg5
g6
ssI2
(dp608
g3
g6
sg5
g6
ssI3
(dp609
g3
Vi\u0294
p610
sg5
Vwi\u0294
p611
ssI4
(dp612
g3
Vji\u0294
p613
sg5
Vjwi\u0294
p614
ssg13
V17
p615
sg15
V62
p616
sg17
g60
sg19
g27
ssI62
(dp617
I1
(dp618
g3
g6
sg5
g6
ssI2
(dp619
g3
V\u0268\u0294
p620
sg5
g6
ssI3
(dp621
g3
V\u0268\u0294
p622
sg5
g6
ssI4
(dp623
g3
V\u0268\u0294
p624
sg5
g6
ssg13
V18
p625
sg15
V63
p626
sg17
g60
sg19
g27
ssI63
(dp627
I1
(dp628
g3
g6
sg5
g6
ssI2
(dp629
g3
g6
sg5
g6
ssI3
(dp630
g3
V\u0268j\u0294
p631
sg5
Vuj\u0294
p632
ssI4
(dp633
g3
g6
sg5
g6
ssg13
V19
p634
sg15
V64
p635
sg17
g60
sg19
g27
ssI64
(dp636
I1
(dp637
g3
g6
sg5
g6
ssI2
(dp638
g3
V\u0268\u0103\u0294
p639
sg5
g6
ssI3
(dp640
g3
V\u0268\u0103\u0294
p641
sg5
g6
ssI4
(dp642
g3
V\u0268\u0103\u0294
p643
sg5
g6
ssg13
g60
sg15
V65
p644
sg17
g37
sg19
g27
ssI65
(dp645
I1
(dp646
g3
g6
sg5
g6
ssI2
(dp647
g3
g6
sg5
Vu\u0103\u0294
p648
ssI3
(dp649
g3
g6
sg5
Vu\u0103\u0294
p650
ssI4
(dp651
g3
g6
sg5
Vu\u0103\u0294
p652
ssg13
g72
sg15
V66
p653
sg17
g37
sg19
g27
ssI66
(dp654
I1
(dp655
g3
g6
sg5
V\u0254\u0294
p656
ssI2
(dp657
g3
g6
sg5
g6
ssI3
(dp658
g3
g6
sg5
g6
ssI4
(dp659
g3
g6
sg5
g6
ssg13
g46
sg15
V67
p660
sg17
g37
sg19
g27
ssI67
(dp661
I1
(dp662
g3
g6
sg5
g6
ssI2
(dp663
g3
g6
sg5
g6
ssI3
(dp664
g3
g6
sg5
g6
ssI4
(dp665
g3
V\u025bj\u0294
p666
sg5
g6
ssg13
V15
p667
sg15
V68
p668
sg17
g46
sg19
g27
ssI68
(dp669
I1
(dp670
g3
g6
sg5
g6
ssI2
(dp671
g3
Varj\u0294
p672
sg5
Vwarj\u0294
p673
ssI3
(dp674
g3
g6
sg5
g6
ssI4
(dp675
g3
g6
sg5
g6
ssg13
V11
p676
sg15
V69
p677
sg17
g46
sg19
g27
ssI69
(dp678
I1
(dp679
g3
g6
sg5
g6
ssI2
(dp680
g3
V\u025brj\u0294
p681
sg5
g6
ssI3
(dp682
g3
g6
sg5
g6
ssI4
(dp683
g3
g6
sg5
g6
ssg13
V10
p684
sg15
V70
p685
sg17
g46
sg19
g27
ssI70
(dp686
I1
(dp687
g3
g6
sg5
V*w\u01ddj\u0294
p688
ssI2
(dp689
g3
g6
sg5
Vw\u01ddj\u0294
p690
ssI3
(dp691
g3
g6
sg5
g6
ssI4
(dp692
g3
g6
sg5
g6
ssg13
g91
sg15
V71
p693
sg17
g46
sg19
g27
ssI71
(dp694
I1
(dp695
g3
V\u01ddj\u0294
p696
sg5
g6
ssI2
(dp697
g3
g6
sg5
g6
ssI3
(dp698
g3
V*\u01ddj\u0294
p699
sg5
g6
ssI4
(dp700
g3
V*j\u01ddj\u0294
p701
sg5
g6
ssg13
g82
sg15
V72
p702
sg17
g46
sg19
g27
ssI72
(dp703
I1
(dp704
g3
g6
sg5
g6
ssI2
(dp705
g3
g6
sg5
g6
ssI3
(dp706
g3
Vin\u0294
p707
sg5
g6
ssI4
(dp708
g3
Vjin\u0294
p709
sg5
g6
ssg13
V70
p710
sg15
V73
p711
sg17
V14
p712
sg19
g27
ssI73
(dp713
I1
(dp714
g3
g6
sg5
g6
ssI2
(dp715
g3
V*in\u0294
p716
sg5
g6
ssI3
(dp717
g3
V*in\u0294
p718
sg5
Vwin\u0294
p719
ssI4
(dp720
g3
g6
sg5
Vjwin\u0294
p721
ssg13
V71
p722
sg15
V74
p723
sg17
V14
p724
sg19
g27
ssI74
(dp725
I1
(dp726
g3
g6
sg5
g6
ssI2
(dp727
g3
g6
sg5
g6
ssI3
(dp728
g3
g6
sg5
Vun\u0294
p729
ssI4
(dp730
g3
g6
sg5
g6
ssg13
V68
p731
sg15
V75
p732
sg17
V14
p733
sg19
g27
ssI75
(dp734
I1
(dp735
g3
g6
sg5
g6
ssI2
(dp736
g3
g6
sg5
g6
ssI3
(dp737
g3
V\u0268n\u0294
p738
sg5
g6
ssI4
(dp739
g3
g6
sg5
g6
ssg13
V67
p740
sg15
V76
p741
sg17
V14
p742
sg19
g27
ssI76
(dp743
I1
(dp744
g3
g6
sg5
g6
ssI2
(dp745
g3
g6
sg5
g6
ssI3
(dp746
g3
V\u0268an\u0294
p747
sg5
Vuan\u0294
p748
ssI4
(dp749
g3
g6
sg5
g6
ssg13
V55
p750
sg15
V77
p751
sg17
V13
p752
sg19
g27
ssI77
(dp753
I1
(dp754
g3
g6
sg5
Vw\u01ddn\u0294
p755
ssI2
(dp756
g3
g6
sg5
g6
ssI3
(dp757
g3
g6
sg5
g6
ssI4
(dp758
g3
g6
sg5
g6
ssg13
V66
p759
sg15
V78
p760
sg17
V14
p761
sg19
g27
ssI78
(dp762
I1
(dp763
g3
V\u01ddn\u0294
p764
sg5
g6
ssI2
(dp765
g3
g6
sg5
g6
ssI3
(dp766
g3
g6
sg5
g6
ssI4
(dp767
g3
g6
sg5
g6
ssg13
V65
p768
sg15
V79
p769
sg17
V14
p770
sg19
g27
ssI79
(dp771
I1
(dp772
g3
Van\u0294
p773
sg5
g6
ssI2
(dp774
g3
g6
sg5
g6
ssI3
(dp775
g3
g6
sg5
g6
ssI4
(dp776
g3
g6
sg5
g6
ssg13
V51
p777
sg15
V80
p778
sg17
V13
p779
sg19
g27
ssI80
(dp780
I1
(dp781
g3
V*an\u0294
p782
sg5
Vwan\u0294
p783
ssI2
(dp784
g3
g6
sg5
g6
ssI3
(dp785
g3
g6
sg5
g6
ssI4
(dp786
g3
g6
sg5
g6
ssg13
V52
p787
sg15
V81
p788
sg17
V13
p789
sg19
g27
ssI81
(dp790
I1
(dp791
g3
g6
sg5
g6
ssI2
(dp792
g3
Varn\u0294
p793
sg5
Vwarn\u0294
p794
ssI3
(dp795
g3
g6
sg5
g6
ssI4
(dp796
g3
g6
sg5
g6
ssg13
V53
p797
sg15
V82
p798
sg17
V13
p799
sg19
g27
ssI82
(dp800
I1
(dp801
g3
g6
sg5
g6
ssI2
(dp802
g3
V\u025brn\u0294
p803
sg5
Vw\u025brn\u0294
p804
ssI3
(dp805
g3
g6
sg5
g6
ssI4
(dp806
g3
g6
sg5
g6
ssg13
V54
p807
sg15
V83
p808
sg17
V13
p809
sg19
g27
ssI83
(dp810
I1
(dp811
g3
g6
sg5
g6
ssI2
(dp812
g3
g6
sg5
g6
ssI3
(dp813
g3
g6
sg5
g6
ssI4
(dp814
g3
V\u025bn\u0294
p815
sg5
Vw\u025bn\u0294
p816
ssg13
V57
p817
sg15
V84
p818
sg17
V13
p819
sg19
g27
ssI84
(dp820
I1
(dp821
g3
g6
sg5
g6
ssI2
(dp822
g3
V*ian\u0294
p823
sg5
g6
ssI3
(dp824
g3
Vian\u0294
p825
sg5
Vwian\u0294
p826
ssI4
(dp827
g3
Vjian\u0294
p828
sg5
Vjwian\u0294
p829
ssg13
V56
p830
sg15
V85
p831
sg17
V13
p832
sg19
g27
ssI85
(dp833
I1
(dp834
g3
g6
sg5
g6
ssI2
(dp835
g3
g6
sg5
g6
ssI3
(dp836
g3
g6
sg5
g6
ssI4
(dp837
g3
V\u025bw\u0294
p838
sg5
g6
ssg13
V23
p839
sg15
V86
p840
sg17
g72
sg19
g27
ssI86
(dp841
I1
(dp842
g3
g6
sg5
g6
ssI2
(dp843
g3
g6
sg5
g6
ssI3
(dp844
g3
Viaw\u0294
p845
sg5
g6
ssI4
(dp846
g3
Vjiaw\u0294
p847
sg5
g6
ssg13
V22
p848
sg15
V87
p849
sg17
g72
sg19
g27
ssI87
(dp850
I1
(dp851
g3
g6
sg5
g6
ssI2
(dp852
g3
Varw\u0294
p853
sg5
g6
ssI3
(dp854
g3
g6
sg5
g6
ssI4
(dp855
g3
g6
sg5
g6
ssg13
V21
p856
sg15
V88
p857
sg17
g72
sg19
g27
ssI88
(dp858
I1
(dp859
g3
Vaw\u0294
p860
sg5
g6
ssI2
(dp861
g3
g6
sg5
g6
ssI3
(dp862
g3
g6
sg5
g6
ssI4
(dp863
g3
g6
sg5
g6
ssg13
V20
p864
sg15
V89
p865
sg17
g72
sg19
g27
ssI89
(dp866
I1
(dp867
g3
Va\u0103\u0294
p868
sg5
g6
ssI2
(dp869
g3
g6
sg5
g6
ssI3
(dp870
g3
g6
sg5
g6
ssI4
(dp871
g3
g6
sg5
g6
ssg13
g16
sg15
V90
p872
sg17
g16
sg19
g27
ssI90
(dp873
I1
(dp874
g3
g6
sg5
Vwa\u0103\u0294
p875
ssI2
(dp876
g3
g6
sg5
g6
ssI3
(dp877
g3
g6
sg5
g6
ssI4
(dp878
g3
g6
sg5
g6
ssg13
g27
sg15
V91
p879
sg17
g16
sg19
g27
ssI91
(dp880
I1
(dp881
g3
g6
sg5
g6
ssI2
(dp882
g3
Var\u0294
p883
sg5
Vwar\u0294
p884
ssI3
(dp885
g3
Via\u0103\u0294
p886
sg5
g6
ssI4
(dp887
g3
Via\u0103\u0294
p888
sg5
g6
ssg13
g37
sg15
V92
p889
sg17
g27
sg19
g27
ssI92
(dp890
I1
(dp891
g3
g6
sg5
g6
ssI2
(dp892
g3
V\u0268a\u0103\u014b\u0294
p893
sg5
Vua\u0103\u014b\u0294
p894
ssI3
(dp895
g3
V\u0268a\u0103\u014b\u0294
p896
sg5
Vua\u0103\u014b\u0294
p897
ssI4
(dp898
g3
V\u0268a\u0103\u014b\u0294
p899
sg5
g6
ssg13
V28
p900
sg15
V93
p901
sg17
g91
sg19
g27
ssI93
(dp902
I1
(dp903
g3
Va\u0103\u014b\u0294
p904
sg5
Vwa\u0103\u014b\u0294
p905
ssI2
(dp906
g3
g6
sg5
g6
ssI3
(dp907
g3
g6
sg5
g6
ssI4
(dp908
g3
g6
sg5
g6
ssg13
V27
p909
sg15
V94
p910
sg17
g91
sg19
g27
ssI94
(dp911
I1
(dp912
g3
Vaj\u014b\u0294
p913
sg5
g6
ssI2
(dp914
g3
Varj\u014b\u0294
p915
sg5
Vwarj\u014b\u0294
p916
ssI3
(dp917
g3
Viaj\u014b\u0294
p918
sg5
Vwiaj\u014b\u0294
p919
ssI4
(dp920
g3
Viaj\u014b\u0294
p921
sg5
g6
ssg13
V35
p922
sg15
V95
p923
sg17
V10
p924
sg19
g27
ssI95
(dp925
I1
(dp926
g3
g6
sg5
g6
ssI2
(dp927
g3
V\u025brj\u014b\u0294
p928
sg5
g6
ssI3
(dp929
g3
g6
sg5
g6
ssI4
(dp930
g3
g6
sg5
g6
ssg13
V36
p931
sg15
V96
p932
sg17
V10
p933
sg19
g27
ssI96
(dp934
I1
(dp935
g3
g6
sg5
g6
ssI2
(dp936
g3
Viaj\u014b\u0294
p937
sg5
g6
ssI3
(dp938
g3
Viaj\u014b\u0294
p939
sg5
g6
ssI4
(dp940
g3
Vjiaj\u014b\u0294
p941
sg5
Vjwiaj\u014b\u0294
p942
ssg13
V37
p943
sg15
V97
p944
sg17
V10
p945
sg19
g27
ssI97
(dp946
I1
(dp947
g3
g6
sg5
g6
ssI2
(dp948
g3
g6
sg5
g6
ssI3
(dp949
g3
g6
sg5
g6
ssI4
(dp950
g3
V\u025bj\u014b\u0294
p951
sg5
Vw\u025bj\u014b\u0294
p952
ssg13
V38
p953
sg15
V98
p954
sg17
V10
p955
sg19
g27
ssI98
(dp956
I1
(dp957
g3
g6
sg5
g6
ssI2
(dp958
g3
g6
sg5
g6
ssI3
(dp959
g3
Vi\u014b\u0294
p960
sg5
g6
ssI4
(dp961
g3
g6
sg5
g6
ssg13
V32
p962
sg15
V99
p963
sg17
g100
sg19
g27
ssI99
(dp964
I1
(dp965
g3
V\u01dd\u014b\u0294
p966
sg5
g6
ssI2
(dp967
g3
g6
sg5
g6
ssI3
(dp968
g3
g6
sg5
g6
ssI4
(dp969
g3
g6
sg5
g6
ssg13
V31
p970
sg15
V100
p971
sg17
g100
sg19
g27
ssI100
(dp972
I1
(dp973
g3
g6
sg5
g6
ssI2
(dp974
g3
Vuw\u0294
p975
sg5
g6
ssI3
(dp976
g3
Vuw\u0294
p977
sg5
g6
ssI4
(dp978
g3
Vuw\u0294
p979
sg5
g6
ssg13
V25
p980
sg15
V101
p981
sg17
g82
sg19
g27
ssI101
(dp982
I1
(dp983
g3
Vow\u0294
p984
sg5
g6
ssI2
(dp985
g3
g6
sg5
g6
ssI3
(dp986
g3
g6
sg5
g6
ssI4
(dp987
g3
g6
sg5
g6
ssg13
V24
p988
sg15
V102
p989
sg17
g82
sg19
g27
ssI102
(dp990
I1
(dp991
g3
g6
sg5
g6
ssI2
(dp992
g3
g6
sg5
g6
ssI3
(dp993
g3
g6
sg5
g6
ssI4
(dp994
g3
Vjiw\u0294
p995
sg5
g6
ssg13
V26
p996
sg15
V103
p997
sg17
g82
sg19
g27
ssI103
(dp998
I1
(dp999
g3
g6
sg5
g6
ssI2
(dp1000
g3
Vim\u0294
p1001
sg5
g6
ssI3
(dp1002
g3
Vim\u0294
p1003
sg5
g6
ssI4
(dp1004
g3
Vjim\u0294
p1005
sg5
g6
ssg13
V94
p1006
sg15
V104
p1007
sg17
V16
p1008
sg19
g27
ssI104
(dp1009
I1
(dp1010
g3
V\u01ddm\u0294
p1011
sg5
g6
ssI2
(dp1012
g3
g6
sg5
g6
ssI3
(dp1013
g3
g6
sg5
g6
ssI4
(dp1014
g3
g6
sg5
g6
ssg13
V78
p1015
sg15
V105
p1016
sg17
V15
p1017
sg19
g27
ssI105
(dp1018
I1
(dp1019
g3
Vam\u0294
p1020
sg5
g6
ssI2
(dp1021
g3
g6
sg5
g6
ssI3
(dp1022
g3
V*iam\u0294
p1023
sg5
g6
ssI4
(dp1024
g3
g6
sg5
g6
ssg13
V79
p1025
sg15
V106
p1026
sg17
V15
p1027
sg19
g27
ssI106
(dp1028
I1
(dp1029
g3
g6
sg5
g6
ssI2
(dp1030
g3
g6
sg5
g6
ssI3
(dp1031
g3
Viam\u0294
p1032
sg5
g6
ssI4
(dp1033
g3
Vjiam\u0294
p1034
sg5
g6
ssg13
V84
p1035
sg15
V107
p1036
sg17
V15
p1037
sg19
g27
ssI107
(dp1038
I1
(dp1039
g3
g6
sg5
g6
ssI2
(dp1040
g3
g6
sg5
g6
ssI3
(dp1041
g3
V*\u025bm\u0294
p1042
sg5
g6
ssI4
(dp1043
g3
V\u025bm\u0294
p1044
sg5
g6
ssg13
V85
p1045
sg15
V108
p1046
sg17
V15
p1047
sg19
g27
ssI108
(dp1048
I1
(dp1049
g3
g6
sg5
g6
ssI2
(dp1050
g3
V\u025brm\u0294
p1051
sg5
g6
ssI3
(dp1052
g3
V*\u025brm\u0294
p1053
sg5
g6
ssI4
(dp1054
g3
g6
sg5
g6
ssg13
V81
p1055
sg15
V109
p1056
sg17
V15
p1057
sg19
g27
ssI109
(dp1058
I1
(dp1059
g3
g6
sg5
g6
ssI2
(dp1060
g3
Varm\u0294
p1061
sg5
g6
ssI3
(dp1062
g3
g6
sg5
g6
ssI4
(dp1063
g3
g6
sg5
g6
ssg13
V80
p1064
sg15
V110
p1065
sg17
V15
p1066
sg19
g27
ssI110
(dp1067
I1
(dp1068
g3
g6
sg5
g6
ssI2
(dp1069
g3
V*\u0268am\u0294
p1070
sg5
g6
ssI3
(dp1071
g3
V\u0268am\u0294
p1072
sg5
g6
ssI4
(dp1073
g3
g6
sg5
g6
ssg13
V82
p1074
sg15
V111
p1075
sg17
V15
p1076
sg19
g27
ssI111
(dp1077
I1
(dp1078
g3
g6
sg5
g6
ssI2
(dp1079
g3
g6
sg5
g6
ssI3
(dp1080
g3
g6
sg5
Vuam\u0294
p1081
ssI4
(dp1082
g3
g6
sg5
g6
ssg13
V83
p1083
sg15
V112
p1084
sg17
V15
p1085
sg19
g27
ssI112
(dp1086
I1
(dp1087
g3
Vow\u014bh
p1088
sg5
g6
ssI2
(dp1089
g3
Vow\u014bh
p1090
sg5
g6
ssI3
(dp1091
g3
Vuw\u014bh
p1092
sg5
g6
ssI4
(dp1093
g3
Vuw\u014bh
p1094
sg5
g6
ssg13
V45
p1095
sg15
V113
p1096
sg17
V12
p1097
sg19
g37
ssI113
(dp1098
I1
(dp1099
g3
Vaw\u014bh
p1100
sg5
g6
ssI2
(dp1101
g3
g6
sg5
g6
ssI3
(dp1102
g3
g6
sg5
g6
ssI4
(dp1103
g3
g6
sg5
g6
ssg13
V46
p1104
sg15
V114
p1105
sg17
V12
p1106
sg19
g37
ssI114
(dp1107
I1
(dp1108
g3
g6
sg5
g6
ssI2
(dp1109
g3
g6
sg5
g6
ssI3
(dp1110
g3
Vuaw\u014bh
p1111
sg5
g6
ssI4
(dp1112
g3
Vuaw\u014bh
p1113
sg5
g6
ssg13
V47
p1114
sg15
V115
p1115
sg17
V12
p1116
sg19
g37
ssI115
(dp1117
I1
(dp1118
g3
g6
sg5
g6
ssI2
(dp1119
g3
Varw\u014bh
p1120
sg5
g6
ssI3
(dp1121
g3
g6
sg5
g6
ssI4
(dp1122
g3
g6
sg5
g6
ssg13
V43
p1123
sg15
V116
p1124
sg17
V11
p1125
sg19
g37
ssI116
(dp1126
I1
(dp1127
g3
g6
sg5
g6
ssI2
(dp1128
g3
Vi\u0103h
p1129
sg5
g6
ssI3
(dp1130
g3
Vi\u0103h
p1131
sg5
Vwi\u0103h
p1132
ssI4
(dp1133
g3
Vji\u0103h
p1134
sg5
Vjwi\u0103h
p1135
ssg13
V16
p1136
sg15
V117
p1137
sg17
g60
sg19
g37
ssI117
(dp1138
I1
(dp1139
g3
g6
sg5
g6
ssI2
(dp1140
g3
g6
sg5
Vwih
p1141
ssI3
(dp1142
g3
Vih
p1143
sg5
Vwih
p1144
ssI4
(dp1145
g3
Vjih
p1146
sg5
Vjwih
p1147
ssg13
V17
p1148
sg15
V118
p1149
sg17
g60
sg19
g37
ssI118
(dp1150
I1
(dp1151
g3
g6
sg5
g6
ssI2
(dp1152
g3
V\u0268h
p1153
sg5
g6
ssI3
(dp1154
g3
V\u0268h
p1155
sg5
g6
ssI4
(dp1156
g3
V\u0268h
p1157
sg5
g6
ssg13
V18
p1158
sg15
V119
p1159
sg17
g60
sg19
g37
ssI119
(dp1160
I1
(dp1161
g3
g6
sg5
g6
ssI2
(dp1162
g3
g6
sg5
g6
ssI3
(dp1163
g3
V\u0268jh
p1164
sg5
Vujh
p1165
ssI4
(dp1166
g3
g6
sg5
g6
ssg13
V19
p1167
sg15
V120
p1168
sg17
g60
sg19
g37
ssI120
(dp1169
I1
(dp1170
g3
g6
sg5
g6
ssI2
(dp1171
g3
V\u0268\u0103h
p1172
sg5
g6
ssI3
(dp1173
g3
V\u0268\u0103h
p1174
sg5
g6
ssI4
(dp1175
g3
V\u0268\u0103h
p1176
sg5
g6
ssg13
g60
sg15
V121
p1177
sg17
g37
sg19
g37
ssI121
(dp1178
I1
(dp1179
g3
g6
sg5
g6
ssI2
(dp1180
g3
g6
sg5
Vu\u0103h
p1181
ssI3
(dp1182
g3
g6
sg5
Vu\u0103h
p1183
ssI4
(dp1184
g3
g6
sg5
Vu\u0103h
p1185
ssg13
g72
sg15
V122
p1186
sg17
g37
sg19
g37
ssI122
(dp1187
I1
(dp1188
g3
g6
sg5
V\u0254h
p1189
ssI2
(dp1190
g3
g6
sg5
g6
ssI3
(dp1191
g3
g6
sg5
g6
ssI4
(dp1192
g3
g6
sg5
g6
ssg13
g46
sg15
V123
p1193
sg17
g37
sg19
g37
ssI123
(dp1194
I1
(dp1195
g3
g6
sg5
g6
ssI2
(dp1196
g3
V\u025brjh
p1197
sg5
g6
ssI3
(dp1198
g3
Viajh
p1199
sg5
g6
ssI4
(dp1200
g3
V\u025bjh
p1201
sg5
Vw\u025bjh
p1202
ssg13
V15
p1203
sg15
V124
p1204
sg17
g46
sg19
g37
ssI124
(dp1205
I1
(dp1206
g3
g6
sg5
g6
ssI2
(dp1207
g3
V*iajh
p1208
sg5
g6
ssI3
(dp1209
g3
Viajh
p1210
sg5
Vwiajh
p1211
ssI4
(dp1212
g3
Vjiajh
p1213
sg5
Vjwiajh
p1214
ssg13
V14
p1215
sg15
V125
p1216
sg17
g46
sg19
g37
ssI125
(dp1217
I1
(dp1218
g3
Vajh
p1219
sg5
Vwajh
p1220
ssI2
(dp1221
g3
g6
sg5
g6
ssI3
(dp1222
g3
g6
sg5
g6
ssI4
(dp1223
g3
g6
sg5
g6
ssg13
g100
sg15
V126
p1224
sg17
g46
sg19
g37
ssI126
(dp1225
I1
(dp1226
g3
g6
sg5
g6
ssI2
(dp1227
g3
Varjh
p1228
sg5
Vwarjh
p1229
ssI3
(dp1230
g3
g6
sg5
g6
ssI4
(dp1231
g3
g6
sg5
g6
ssg13
V11
p1232
sg15
V127
p1233
sg17
g46
sg19
g37
ssI127
(dp1234
I1
(dp1235
g3
g6
sg5
g6
ssI2
(dp1236
g3
V\u025brjh
p1237
sg5
Vw\u025brjh
p1238
ssI3
(dp1239
g3
g6
sg5
g6
ssI4
(dp1240
g3
g6
sg5
g6
ssg13
V10
p1241
sg15
V128
p1242
sg17
g46
sg19
g37
ssI128
(dp1243
I1
(dp1244
g3
g6
sg5
g6
ssI2
(dp1245
g3
Varjh
p1246
sg5
Vwarjh
p1247
ssI3
(dp1248
g3
g6
sg5
g6
ssI4
(dp1249
g3
g6
sg5
g6
ssg13
V12
p1250
sg15
V129
p1251
sg17
g46
sg19
g37
ssI129
(dp1252
I1
(dp1253
g3
g6
sg5
Vw\u01ddjh
p1254
ssI2
(dp1255
g3
g6
sg5
Vw\u01ddjh
p1256
ssI3
(dp1257
g3
g6
sg5
V*w\u01ddjh
p1258
ssI4
(dp1259
g3
g6
sg5
g6
ssg13
g91
sg15
V130
p1260
sg17
g46
sg19
g37
ssI130
(dp1261
I1
(dp1262
g3
V\u01ddjh
p1263
sg5
g6
ssI2
(dp1264
g3
g6
sg5
g6
ssI3
(dp1265
g3
g6
sg5
g6
ssI4
(dp1266
g3
g6
sg5
g6
ssg13
g82
sg15
V131
p1267
sg17
g46
sg19
g37
ssI131
(dp1268
I1
(dp1269
g3
g6
sg5
g6
ssI2
(dp1270
g3
g6
sg5
g6
ssI3
(dp1271
g3
V\u0268ajh
p1272
sg5
Vuajh
p1273
ssI4
(dp1274
g3
g6
sg5
g6
ssg13
V13
p1275
sg15
V132
p1276
sg17
g46
sg19
g37
ssI132
(dp1277
I1
(dp1278
g3
g6
sg5
g6
ssI2
(dp1279
g3
V*inh
p1280
sg5
g6
ssI3
(dp1281
g3
Vinh
p1282
sg5
g6
ssI4
(dp1283
g3
Vjinh
p1284
sg5
g6
ssg13
V70
p1285
sg15
V133
p1286
sg17
V14
p1287
sg19
g37
ssI133
(dp1288
I1
(dp1289
g3
g6
sg5
g6
ssI2
(dp1290
g3
g6
sg5
g6
ssI3
(dp1291
g3
g6
sg5
Vwinh
p1292
ssI4
(dp1293
g3
g6
sg5
Vjwinh
p1294
ssg13
V71
p1295
sg15
V134
p1296
sg17
V14
p1297
sg19
g37
ssI134
(dp1298
I1
(dp1299
g3
g6
sg5
g6
ssI2
(dp1300
g3
g6
sg5
g6
ssI3
(dp1301
g3
g6
sg5
Vunh
p1302
ssI4
(dp1303
g3
g6
sg5
g6
ssg13
V68
p1304
sg15
V135
p1305
sg17
V14
p1306
sg19
g37
ssI135
(dp1307
I1
(dp1308
g3
g6
sg5
g6
ssI2
(dp1309
g3
g6
sg5
g6
ssI3
(dp1310
g3
V\u0268nh
p1311
sg5
g6
ssI4
(dp1312
g3
g6
sg5
g6
ssg13
V67
p1313
sg15
V136
p1314
sg17
V14
p1315
sg19
g37
ssI136
(dp1316
I1
(dp1317
g3
g6
sg5
g6
ssI2
(dp1318
g3
g6
sg5
g6
ssI3
(dp1319
g3
V\u0268anh
p1320
sg5
Vuanh
p1321
ssI4
(dp1322
g3
g6
sg5
g6
ssg13
V55
p1323
sg15
V137
p1324
sg17
V13
p1325
sg19
g37
ssI137
(dp1326
I1
(dp1327
g3
g6
sg5
Vw\u01ddnh
p1328
ssI2
(dp1329
g3
g6
sg5
g6
ssI3
(dp1330
g3
g6
sg5
g6
ssI4
(dp1331
g3
g6
sg5
g6
ssg13
V66
p1332
sg15
V138
p1333
sg17
V14
p1334
sg19
g37
ssI138
(dp1335
I1
(dp1336
g3
V\u01ddnh
p1337
sg5
g6
ssI2
(dp1338
g3
g6
sg5
g6
ssI3
(dp1339
g3
g6
sg5
g6
ssI4
(dp1340
g3
g6
sg5
g6
ssg13
V65
p1341
sg15
V139
p1342
sg17
V14
p1343
sg19
g37
ssI139
(dp1344
I1
(dp1345
g3
Vanh
p1346
sg5
g6
ssI2
(dp1347
g3
g6
sg5
g6
ssI3
(dp1348
g3
g6
sg5
g6
ssI4
(dp1349
g3
g6
sg5
g6
ssg13
V51
p1350
sg15
V140
p1351
sg17
V13
p1352
sg19
g37
ssI140
(dp1353
I1
(dp1354
g3
g6
sg5
Vwanh
p1355
ssI2
(dp1356
g3
g6
sg5
g6
ssI3
(dp1357
g3
g6
sg5
g6
ssI4
(dp1358
g3
g6
sg5
g6
ssg13
V52
p1359
sg15
V141
p1360
sg17
V13
p1361
sg19
g37
ssI141
(dp1362
I1
(dp1363
g3
g6
sg5
g6
ssI2
(dp1364
g3
Varnh
p1365
sg5
Vwarnh
p1366
ssI3
(dp1367
g3
g6
sg5
g6
ssI4
(dp1368
g3
g6
sg5
g6
ssg13
V53
p1369
sg15
V142
p1370
sg17
V13
p1371
sg19
g37
ssI142
(dp1372
I1
(dp1373
g3
g6
sg5
g6
ssI2
(dp1374
g3
V\u025brnh
p1375
sg5
Vw\u025brnh
p1376
ssI3
(dp1377
g3
g6
sg5
g6
ssI4
(dp1378
g3
g6
sg5
g6
ssg13
V54
p1379
sg15
V143
p1380
sg17
V13
p1381
sg19
g37
ssI143
(dp1382
I1
(dp1383
g3
g6
sg5
g6
ssI2
(dp1384
g3
g6
sg5
g6
ssI3
(dp1385
g3
g6
sg5
V*w\u025bnh
p1386
ssI4
(dp1387
g3
V\u025bnh
p1388
sg5
Vw\u025bnh
p1389
ssg13
V57
p1390
sg15
V144
p1391
sg17
V13
p1392
sg19
g37
ssI144
(dp1393
I1
(dp1394
g3
g6
sg5
g6
ssI2
(dp1395
g3
V*ianh
p1396
sg5
Vwianh
p1397
ssI3
(dp1398
g3
Vianh
p1399
sg5
Vwianh
p1400
ssI4
(dp1401
g3
Vjianh
p1402
sg5
Vjwianh
p1403
ssg13
V56
p1404
sg15
V145
p1405
sg17
V13
p1406
sg19
g37
ssI145
(dp1407
I1
(dp1408
g3
g6
sg5
g6
ssI2
(dp1409
g3
g6
sg5
g6
ssI3
(dp1410
g3
g6
sg5
g6
ssI4
(dp1411
g3
V\u025bwh
p1412
sg5
g6
ssg13
V23
p1413
sg15
V146
p1414
sg17
g72
sg19
g37
ssI146
(dp1415
I1
(dp1416
g3
g6
sg5
g6
ssI2
(dp1417
g3
g6
sg5
g6
ssI3
(dp1418
g3
Viawh
p1419
sg5
g6
ssI4
(dp1420
g3
Vjiawh
p1421
sg5
g6
ssg13
V22
p1422
sg15
V147
p1423
sg17
g72
sg19
g37
ssI147
(dp1424
I1
(dp1425
g3
g6
sg5
g6
ssI2
(dp1426
g3
Varwh
p1427
sg5
g6
ssI3
(dp1428
g3
g6
sg5
g6
ssI4
(dp1429
g3
g6
sg5
g6
ssg13
V21
p1430
sg15
V148
p1431
sg17
g72
sg19
g37
ssI148
(dp1432
I1
(dp1433
g3
Vawh
p1434
sg5
g6
ssI2
(dp1435
g3
g6
sg5
g6
ssI3
(dp1436
g3
g6
sg5
g6
ssI4
(dp1437
g3
g6
sg5
g6
ssg13
V20
p1438
sg15
V149
p1439
sg17
g72
sg19
g37
ssI149
(dp1440
I1
(dp1441
g3
Va\u0103h
p1442
sg5
g6
ssI2
(dp1443
g3
g6
sg5
g6
ssI3
(dp1444
g3
g6
sg5
g6
ssI4
(dp1445
g3
g6
sg5
g6
ssg13
g16
sg15
V150
p1446
sg17
g16
sg19
g37
ssI150
(dp1447
I1
(dp1448
g3
V*a\u0103h
p1449
sg5
Vwa\u0103h
p1450
ssI2
(dp1451
g3
g6
sg5
g6
ssI3
(dp1452
g3
g6
sg5
g6
ssI4
(dp1453
g3
g6
sg5
g6
ssg13
g27
sg15
V151
p1454
sg17
g16
sg19
g37
ssI151
(dp1455
I1
(dp1456
g3
g6
sg5
g6
ssI2
(dp1457
g3
Varh
p1458
sg5
Vwarh
p1459
ssI3
(dp1460
g3
Via\u0103h
p1461
sg5
g6
ssI4
(dp1462
g3
Via\u0103h
p1463
sg5
g6
ssg13
g37
sg15
V152
p1464
sg17
g27
sg19
g37
ssI152
(dp1465
I1
(dp1466
g3
g6
sg5
g6
ssI2
(dp1467
g3
V\u0268a\u0103\u014bh
p1468
sg5
g6
ssI3
(dp1469
g3
V\u0268a\u0103\u014bh
p1470
sg5
Vua\u0103\u014bh
p1471
ssI4
(dp1472
g3
V\u0268a\u0103\u014bh
p1473
sg5
g6
ssg13
V28
p1474
sg15
V153
p1475
sg17
g91
sg19
g37
ssI153
(dp1476
I1
(dp1477
g3
Va\u0103\u014bh
p1478
sg5
Vwa\u0103\u014bh
p1479
ssI2
(dp1480
g3
g6
sg5
g6
ssI3
(dp1481
g3
g6
sg5
g6
ssI4
(dp1482
g3
g6
sg5
g6
ssg13
V27
p1483
sg15
V154
p1484
sg17
g91
sg19
g37
ssI154
(dp1485
I1
(dp1486
g3
g6
sg5
g6
ssI2
(dp1487
g3
Varj\u014bh
p1488
sg5
Vwarj\u014bh
p1489
ssI3
(dp1490
g3
Viaj\u014bh
p1491
sg5
Vwiaj\u014bh
p1492
ssI4
(dp1493
g3
Viaj\u014bh
p1494
sg5
g6
ssg13
V35
p1495
sg15
V155
p1496
sg17
V10
p1497
sg19
g37
ssI155
(dp1498
I1
(dp1499
g3
g6
sg5
g6
ssI2
(dp1500
g3
V\u025brj\u014bh
p1501
sg5
Vw\u025brj\u014bh
p1502
ssI3
(dp1503
g3
g6
sg5
g6
ssI4
(dp1504
g3
g6
sg5
g6
ssg13
V36
p1505
sg15
V156
p1506
sg17
V10
p1507
sg19
g37
ssI156
(dp1508
I1
(dp1509
g3
g6
sg5
g6
ssI2
(dp1510
g3
g6
sg5
g6
ssI3
(dp1511
g3
Viaj\u014bh
p1512
sg5
g6
ssI4
(dp1513
g3
Vjiaj\u014bh
p1514
sg5
Vjwiaj\u014bh
p1515
ssg13
V37
p1516
sg15
V157
p1517
sg17
V10
p1518
sg19
g37
ssI157
(dp1519
I1
(dp1520
g3
g6
sg5
g6
ssI2
(dp1521
g3
g6
sg5
g6
ssI3
(dp1522
g3
g6
sg5
g6
ssI4
(dp1523
g3
V\u025bj\u014bh
p1524
sg5
Vw\u025bj\u014bh
p1525
ssg13
V38
p1526
sg15
V158
p1527
sg17
V10
p1528
sg19
g37
ssI158
(dp1529
I1
(dp1530
g3
g6
sg5
g6
ssI2
(dp1531
g3
g6
sg5
g6
ssI3
(dp1532
g3
Vi\u014bh
p1533
sg5
g6
ssI4
(dp1534
g3
Vi\u014bh
p1535
sg5
g6
ssg13
V32
p1536
sg15
V159
p1537
sg17
g100
sg19
g37
ssI159
(dp1538
I1
(dp1539
g3
V\u01dd\u014bh
p1540
sg5
g6
ssI2
(dp1541
g3
g6
sg5
g6
ssI3
(dp1542
g3
g6
sg5
g6
ssI4
(dp1543
g3
g6
sg5
g6
ssg13
V31
p1544
sg15
V160
p1545
sg17
g100
sg19
g37
ssI160
(dp1546
I1
(dp1547
g3
g6
sg5
g6
ssI2
(dp1548
g3
Vuwh
p1549
sg5
g6
ssI3
(dp1550
g3
Vuwh
p1551
sg5
g6
ssI4
(dp1552
g3
Vuwh
p1553
sg5
g6
ssg13
V25
p1554
sg15
V161
p1555
sg17
g82
sg19
g37
ssI161
(dp1556
I1
(dp1557
g3
Vowh
p1558
sg5
g6
ssI2
(dp1559
g3
g6
sg5
g6
ssI3
(dp1560
g3
g6
sg5
g6
ssI4
(dp1561
g3
g6
sg5
g6
ssg13
V24
p1562
sg15
V162
p1563
sg17
g82
sg19
g37
ssI162
(dp1564
I1
(dp1565
g3
g6
sg5
g6
ssI2
(dp1566
g3
g6
sg5
g6
ssI3
(dp1567
g3
g6
sg5
g6
ssI4
(dp1568
g3
Vjiwh
p1569
sg5
g6
ssg13
V26
p1570
sg15
V163
p1571
sg17
g82
sg19
g37
ssI163
(dp1572
I1
(dp1573
g3
g6
sg5
g6
ssI2
(dp1574
g3
Vimh
p1575
sg5
g6
ssI3
(dp1576
g3
Vimh
p1577
sg5
g6
ssI4
(dp1578
g3
Vjimh
p1579
sg5
g6
ssg13
V94
p1580
sg15
V164
p1581
sg17
V16
p1582
sg19
g37
ssI164
(dp1583
I1
(dp1584
g3
V\u01ddmh
p1585
sg5
g6
ssI2
(dp1586
g3
g6
sg5
g6
ssI3
(dp1587
g3
g6
sg5
g6
ssI4
(dp1588
g3
g6
sg5
g6
ssg13
V78
p1589
sg15
V165
p1590
sg17
V15
p1591
sg19
g37
ssI165
(dp1592
I1
(dp1593
g3
Vamh
p1594
sg5
g6
ssI2
(dp1595
g3
g6
sg5
g6
ssI3
(dp1596
g3
g6
sg5
g6
ssI4
(dp1597
g3
g6
sg5
g6
ssg13
V79
p1598
sg15
V166
p1599
sg17
V15
p1600
sg19
g37
ssI166
(dp1601
I1
(dp1602
g3
g6
sg5
g6
ssI2
(dp1603
g3
g6
sg5
g6
ssI3
(dp1604
g3
Viamh
p1605
sg5
g6
ssI4
(dp1606
g3
Vjiamh
p1607
sg5
g6
ssg13
V84
p1608
sg15
V167
p1609
sg17
V15
p1610
sg19
g37
ssI167
(dp1611
I1
(dp1612
g3
g6
sg5
g6
ssI2
(dp1613
g3
g6
sg5
g6
ssI3
(dp1614
g3
g6
sg5
g6
ssI4
(dp1615
g3
V\u025bmh
p1616
sg5
g6
ssg13
V85
p1617
sg15
V168
p1618
sg17
V15
p1619
sg19
g37
ssI168
(dp1620
I1
(dp1621
g3
g6
sg5
g6
ssI2
(dp1622
g3
g6
sg5
g6
ssI3
(dp1623
g3
V\u0268amh
p1624
sg5
g6
ssI4
(dp1625
g3
g6
sg5
g6
ssg13
V82
p1626
sg15
V169
p1627
sg17
V15
p1628
sg19
g37
ssI169
(dp1629
I1
(dp1630
g3
g6
sg5
g6
ssI2
(dp1631
g3
V\u025brmh
p1632
sg5
g6
ssI3
(dp1633
g3
g6
sg5
g6
ssI4
(dp1634
g3
g6
sg5
g6
ssg13
V81
p1635
sg15
V170
p1636
sg17
V15
p1637
sg19
g37
ssI170
(dp1638
I1
(dp1639
g3
g6
sg5
g6
ssI2
(dp1640
g3
Varmh
p1641
sg5
g6
ssI3
(dp1642
g3
g6
sg5
g6
ssI4
(dp1643
g3
g6
sg5
g6
ssg13
V80
p1644
sg15
V171
p1645
sg17
V15
p1646
sg19
g37
ssI171
(dp1647
I1
(dp1648
g3
g6
sg5
g6
ssI2
(dp1649
g3
g6
sg5
g6
ssI3
(dp1650
g3
g6
sg5
Vuamh
p1651
ssI4
(dp1652
g3
g6
sg5
g6
ssg13
V83
p1653
sg15
V172
p1654
sg17
V15
p1655
sg19
g37
ssI172
(dp1656
I1
(dp1657
g3
Vowk
p1658
sg5
g6
ssI2
(dp1659
g3
Vowk
p1660
sg5
g6
ssI3
(dp1661
g3
Vuwk
p1662
sg5
g6
ssI4
(dp1663
g3
Vuwk
p1664
sg5
g6
ssg13
V48
p1665
sg15
V173
p1666
sg17
V12
p1667
sg19
g46
ssI173
(dp1668
I1
(dp1669
g3
Vawk
p1670
sg5
g6
ssI2
(dp1671
g3
g6
sg5
g6
ssI3
(dp1672
g3
g6
sg5
g6
ssI4
(dp1673
g3
g6
sg5
g6
ssg13
V49
p1674
sg15
V174
p1675
sg17
V12
p1676
sg19
g46
ssI174
(dp1677
I1
(dp1678
g3
g6
sg5
g6
ssI2
(dp1679
g3
g6
sg5
g6
ssI3
(dp1680
g3
Vuawk
p1681
sg5
g6
ssI4
(dp1682
g3
Vuawk
p1683
sg5
g6
ssg13
V50
p1684
sg15
V175
p1685
sg17
V12
p1686
sg19
g46
ssI175
(dp1687
I1
(dp1688
g3
g6
sg5
g6
ssI2
(dp1689
g3
Varwk
p1690
sg5
g6
ssI3
(dp1691
g3
g6
sg5
g6
ssI4
(dp1692
g3
g6
sg5
g6
ssg13
V44
p1693
sg15
V176
p1694
sg17
V11
p1695
sg19
g46
ssI176
(dp1696
I1
(dp1697
g3
g6
sg5
g6
ssI2
(dp1698
g3
Vit
p1699
sg5
Vwit
p1700
ssI3
(dp1701
g3
Vit
p1702
sg5
g6
ssI4
(dp1703
g3
Vjit
p1704
sg5
Vwit
p1705
ssg13
V76
p1706
sg15
V177
p1707
sg17
V14
p1708
sg19
g46
ssI177
(dp1709
I1
(dp1710
g3
g6
sg5
g6
ssI2
(dp1711
g3
g6
sg5
Vjwit
p1712
ssI3
(dp1713
g3
g6
sg5
Vjwit
p1714
ssI4
(dp1715
g3
g6
sg5
Vjwit
p1716
ssg13
V77
p1717
sg15
V178
p1718
sg17
V14
p1719
sg19
g46
ssI178
(dp1720
I1
(dp1721
g3
g6
sg5
g6
ssI2
(dp1722
g3
Vit
p1723
sg5
Vit
p1724
ssI3
(dp1725
g3
g6
sg5
g6
ssI4
(dp1726
g3
g6
sg5
g6
ssg13
V75
p1727
sg15
V179
p1728
sg17
V14
p1729
sg19
g46
ssI179
(dp1730
I1
(dp1731
g3
g6
sg5
g6
ssI2
(dp1732
g3
g6
sg5
g6
ssI3
(dp1733
g3
g6
sg5
Vut
p1734
ssI4
(dp1735
g3
g6
sg5
g6
ssg13
V74
p1736
sg15
V180
p1737
sg17
V14
p1738
sg19
g46
ssI180
(dp1739
I1
(dp1740
g3
g6
sg5
g6
ssI2
(dp1741
g3
g6
sg5
g6
ssI3
(dp1742
g3
V\u0268t
p1743
sg5
g6
ssI4
(dp1744
g3
g6
sg5
g6
ssg13
V73
p1745
sg15
V181
p1746
sg17
V14
p1747
sg19
g46
ssI181
(dp1748
I1
(dp1749
g3
g6
sg5
g6
ssI2
(dp1750
g3
g6
sg5
g6
ssI3
(dp1751
g3
V\u0268at
p1752
sg5
Vuat
p1753
ssI4
(dp1754
g3
g6
sg5
g6
ssg13
V62
p1755
sg15
V182
p1756
sg17
V13
p1757
sg19
g46
ssI182
(dp1758
I1
(dp1759
g3
V\u01ddt
p1760
sg5
Vw\u01ddt
p1761
ssI2
(dp1762
g3
V\u01ddt
p1763
sg5
Vw\u01ddt
p1764
ssI3
(dp1765
g3
g6
sg5
g6
ssI4
(dp1766
g3
g6
sg5
g6
ssg13
V72
p1767
sg15
V183
p1768
sg17
V14
p1769
sg19
g46
ssI183
(dp1770
I1
(dp1771
g3
Vat
p1772
sg5
g6
ssI2
(dp1773
g3
g6
sg5
g6
ssI3
(dp1774
g3
g6
sg5
g6
ssI4
(dp1775
g3
g6
sg5
g6
ssg13
V58
p1776
sg15
V184
p1777
sg17
V13
p1778
sg19
g46
ssI184
(dp1779
I1
(dp1780
g3
g6
sg5
Vwat
p1781
ssI2
(dp1782
g3
g6
sg5
g6
ssI3
(dp1783
g3
g6
sg5
g6
ssI4
(dp1784
g3
g6
sg5
g6
ssg13
V59
p1785
sg15
V185
p1786
sg17
V13
p1787
sg19
g46
ssI185
(dp1788
I1
(dp1789
g3
g6
sg5
g6
ssI2
(dp1790
g3
V\u025brt
p1791
sg5
Vw\u025brt
p1792
ssI3
(dp1793
g3
g6
sg5
g6
ssI4
(dp1794
g3
g6
sg5
g6
ssg13
V61
p1795
sg15
V186
p1796
sg17
V13
p1797
sg19
g46
ssI186
(dp1798
I1
(dp1799
g3
g6
sg5
g6
ssI2
(dp1800
g3
Vart
p1801
sg5
Vwart
p1802
ssI3
(dp1803
g3
g6
sg5
g6
ssI4
(dp1804
g3
g6
sg5
g6
ssg13
V60
p1805
sg15
V187
p1806
sg17
V13
p1807
sg19
g46
ssI187
(dp1808
I1
(dp1809
g3
g6
sg5
g6
ssI2
(dp1810
g3
g6
sg5
g6
ssI3
(dp1811
g3
g6
sg5
g6
ssI4
(dp1812
g3
V\u025bt
p1813
sg5
Vw\u025bt
p1814
ssg13
V64
p1815
sg15
V188
p1816
sg17
V13
p1817
sg19
g46
ssI188
(dp1818
I1
(dp1819
g3
g6
sg5
g6
ssI2
(dp1820
g3
g6
sg5
Vwiat
p1821
ssI3
(dp1822
g3
Viat
p1823
sg5
Vwiat
p1824
ssI4
(dp1825
g3
Vjiat
p1826
sg5
Vjwiat
p1827
ssg13
V63
p1828
sg15
V189
p1829
sg17
V13
p1830
sg19
g46
ssI189
(dp1831
I1
(dp1832
g3
g6
sg5
g6
ssI2
(dp1833
g3
V*\u0268a\u0103k
p1834
sg5
g6
ssI3
(dp1835
g3
V\u0268a\u0103k
p1836
sg5
Vua\u0103k
p1837
ssI4
(dp1838
g3
V\u0268a\u0103k
p1839
sg5
g6
ssg13
V30
p1840
sg15
V190
p1841
sg17
g91
sg19
g46
ssI190
(dp1842
I1
(dp1843
g3
Va\u0103k
p1844
sg5
Vwa\u0103k
p1845
ssI2
(dp1846
g3
g6
sg5
g6
ssI3
(dp1847
g3
g6
sg5
g6
ssI4
(dp1848
g3
g6
sg5
g6
ssg13
V29
p1849
sg15
V191
p1850
sg17
g91
sg19
g46
ssI191
(dp1851
I1
(dp1852
g3
g6
sg5
g6
ssI2
(dp1853
g3
Vark
p1854
sg5
Vwark
p1855
ssI3
(dp1856
g3
Viajk
p1857
sg5
Vwiajk
p1858
ssI4
(dp1859
g3
g6
sg5
g6
ssg13
V39
p1860
sg15
V192
p1861
sg17
V10
p1862
sg19
g46
ssI192
(dp1863
I1
(dp1864
g3
g6
sg5
g6
ssI2
(dp1865
g3
V\u025brjk
p1866
sg5
Vw\u025brjk
p1867
ssI3
(dp1868
g3
g6
sg5
g6
ssI4
(dp1869
g3
g6
sg5
g6
ssg13
V40
p1870
sg15
V193
p1871
sg17
V10
p1872
sg19
g46
ssI193
(dp1873
I1
(dp1874
g3
g6
sg5
g6
ssI2
(dp1875
g3
g6
sg5
g6
ssI3
(dp1876
g3
Viajk
p1877
sg5
g6
ssI4
(dp1878
g3
Vjiajk
p1879
sg5
Vjwiajk
p1880
ssg13
V41
p1881
sg15
V194
p1882
sg17
V10
p1883
sg19
g46
ssI194
(dp1884
I1
(dp1885
g3
g6
sg5
g6
ssI2
(dp1886
g3
g6
sg5
g6
ssI3
(dp1887
g3
g6
sg5
g6
ssI4
(dp1888
g3
V\u025bjk
p1889
sg5
Vw\u025bjk
p1890
ssg13
V42
p1891
sg15
V195
p1892
sg17
V10
p1893
sg19
g46
ssI195
(dp1894
I1
(dp1895
g3
g6
sg5
g6
ssI2
(dp1896
g3
Vik
p1897
sg5
Vwik
p1898
ssI3
(dp1899
g3
Vik
p1900
sg5
Vwik
p1901
ssI4
(dp1902
g3
Vjik
p1903
sg5
g6
ssg13
V34
p1904
sg15
V196
p1905
sg17
g100
sg19
g46
ssI196
(dp1906
I1
(dp1907
g3
V\u01ddk
p1908
sg5
Vw\u01ddk
p1909
ssI2
(dp1910
g3
g6
sg5
g6
ssI3
(dp1911
g3
g6
sg5
g6
ssI4
(dp1912
g3
g6
sg5
g6
ssg13
V33
p1913
sg15
V197
p1914
sg17
g100
sg19
g46
ssI197
(dp1915
I1
(dp1916
g3
g6
sg5
g6
ssI2
(dp1917
g3
Vip
p1918
sg5
g6
ssI3
(dp1919
g3
Vip
p1920
sg5
g6
ssI4
(dp1921
g3
Vjip
p1922
sg5
g6
ssg13
V95
p1923
sg15
V198
p1924
sg17
V16
p1925
sg19
g46
ssI198
(dp1926
I1
(dp1927
g3
V\u01ddp
p1928
sg5
g6
ssI2
(dp1929
g3
V*\u01ddp
p1930
sg5
g6
ssI3
(dp1931
g3
V*\u01ddp
p1932
sg5
g6
ssI4
(dp1933
g3
g6
sg5
g6
ssg13
V86
p1934
sg15
V199
p1935
sg17
V15
p1936
sg19
g46
ssI199
(dp1937
I1
(dp1938
g3
Vap
p1939
sg5
g6
ssI2
(dp1940
g3
g6
sg5
g6
ssI3
(dp1941
g3
g6
sg5
g6
ssI4
(dp1942
g3
V*jiap
p1943
sg5
g6
ssg13
V87
p1944
sg15
V200
p1945
sg17
V15
p1946
sg19
g46
ssI200
(dp1947
I1
(dp1948
g3
g6
sg5
g6
ssI2
(dp1949
g3
g6
sg5
g6
ssI3
(dp1950
g3
Viap
p1951
sg5
g6
ssI4
(dp1952
g3
Vjiap
p1953
sg5
g6
ssg13
V92
p1954
sg15
V201
p1955
sg17
V15
p1956
sg19
g46
ssI201
(dp1957
I1
(dp1958
g3
g6
sg5
g6
ssI2
(dp1959
g3
g6
sg5
g6
ssI3
(dp1960
g3
V*iap
p1961
sg5
g6
ssI4
(dp1962
g3
V\u025bp
p1963
sg5
g6
ssg13
V93
p1964
sg15
V202
p1965
sg17
V15
p1966
sg19
g46
ssI202
(dp1967
I1
(dp1968
g3
g6
sg5
g6
ssI2
(dp1969
g3
V\u025brp
p1970
sg5
g6
ssI3
(dp1971
g3
g6
sg5
g6
ssI4
(dp1972
g3
g6
sg5
g6
ssg13
V89
p1973
sg15
V203
p1974
sg17
V15
p1975
sg19
g46
ssI203
(dp1976
I1
(dp1977
g3
g6
sg5
g6
ssI2
(dp1978
g3
Varp
p1979
sg5
g6
ssI3
(dp1980
g3
g6
sg5
g6
ssI4
(dp1981
g3
g6
sg5
g6
ssg13
V88
p1982
sg15
V204
p1983
sg17
V15
p1984
sg19
g46
ssI204
(dp1985
I1
(dp1986
g3
g6
sg5
g6
ssI2
(dp1987
g3
g6
sg5
g6
ssI3
(dp1988
g3
V\u0268ap
p1989
sg5
g6
ssI4
(dp1990
g3
g6
sg5
g6
ssg13
V90
p1991
sg15
V205
p1992
sg17
V15
p1993
sg19
g46
ssI205
(dp1994
I1
(dp1995
g3
g6
sg5
g6
ssI2
(dp1996
g3
g6
sg5
g6
ssI3
(dp1997
g3
g6
sg5
Vuap
p1998
ssI4
(dp1999
g3
g6
sg5
g6
ssg13
V91
p2000
sg15
V206
p2001
sg17
V15
p2002
sg19
g46
ss.