(dp0
Vt\u0282\u2018
p1
Vts\u0323\u2018
p2
sV\u0282
p3
Vs\u0323
p4
sVt\u0255
p5
Vt\u015b
p6
sV\u0291
p7
Vd\u017a\u2018
p8
sVtr\u2018
p9
Vt\u02c6\u2018
p10
sV\u0294
p11
V\u02d1
p12
sVk\u2018
p13
Vk\u2018
p14
sVt\u0282
p15
Vts\u0323
p16
sVtr
p17
Vt\u02c6
p18
sVts
p19
Vts
p20
sVnr
p21
V\u0144
p22
sVp\u2018
p23
Vp\u2018
p24
sVd\u0290
p25
Vdz\u0323\u2018
p26
sVd\u0291
p27
V\u017a
p28
sVt\u0255\u2018
p29
Vt\u015b\u2018
p30
sVt\u2018
p31
Vt\u2018
p32
sV\u014b
p33
Vng
p34
sV\u0255
p35
V\u015b
p36
sVdz
p37
Vdz\u2018
p38
sVts\u2018
p39
Vts\u2018
p40
sVdr
p41
Vd\u02c6\u2018
p42
sV\u0263
p43
V\u0263
p44
sVb
p45
Vb\u2018
p46
sVd
p47
Vd\u2018
p48
sVg
p49
Vg\u2018
p50
sV\u0290
p51
Vdz\u0323\u2018
p52
sVk
p53
g53
sVj
p54
Vi\u032f
p55
sVm
p56
g56
sVl
p57
g57
sVn
p58
g58
sVp
p59
g59
sVs
p60
g60
sV\u0272
p61
V\u0144\u017a
p62
sVt
p63
g63
sVw
p64
Vi\u032fu
p65
sVx
p66
V\u03c7
p67
sVz
p68
g68
s.