(dp0
Vt\u0282\u2018
p1
Vtsrh
p2
sV\u0282
p3
Vsr
p4
sVt\u0255
p5
Vtsy
p6
sV\u0291
p7
Vzy
p8
sVtr\u2018
p9
Vtrh
p10
sV\u0294
p11
V
p12
sVk\u2018
p13
Vkh
p14
sVt\u0282
p15
Vtsr
p16
sVtr
p17
Vtr
p18
sVts
p19
Vts
p20
sVnr
p21
Vnr
p22
sVp\u2018
p23
Vph
p24
sVd\u0290
p25
Vdzr
p26
sVd\u0291
p27
Vdzy
p28
sVt\u0255\u2018
p29
Vtshy
p30
sVt\u2018
p31
Vth
p32
sV\u014b
p33
Vng
p34
sV\u0255
p35
Vsy
p36
sVdz
p37
Vdz
p38
sVts\u2018
p39
Vtsh
p40
sVdr
p41
Vdr
p42
sV\u0263
p43
Vh
p44
sVb
p45
g45
sVd
p46
g46
sVg
p47
g47
sV\u0290
p48
Vzr
p49
sVk
p50
g50
sVj
p51
g51
sVm
p52
g52
sVl
p53
g53
sVn
p54
g54
sVp
p55
g55
sVs
p56
g56
sV\u0272
p57
Vny
p58
sVt
p59
g59
sVw
p60
g60
sVx
p61
g61
sVz
p62
g62
s.