(dp0
I0
I0
sI1
I0
sI2
I0
sI3
I0
sI4
I0
sI5
I0
sI6
I0
sI7
I0
sI8
I0
sI9
I0
sI10
I0
sI11
I0
sI12
I0
sI13
I0
sI14
I0
sI15
I0
sI16
I0
sI17
I0
sI18
I0
sI19
I0
sI20
I0
sI21
I0
sI22
I0
sI23
I0
sI24
I0
sI25
I0
sI26
I0
sI27
I0
sI28
I0
sI29
I0
sI30
I0
sI31
I1
sI32
I1
sI33
I1
sI34
I1
sI35
I1
sI36
I1
sI37
I1
sI38
I1
sI39
I1
sI40
I1
sI41
I1
sI42
I1
sI43
I1
sI44
I1
sI45
I1
sI46
I1
sI47
I1
sI48
I1
sI49
I1
sI50
I1
sI51
I1
sI52
I1
sI53
I1
sI54
I1
sI55
I1
sI56
I1
sI57
I1
sI58
I1
sI59
I1
sI60
I1
sI61
I1
sI62
I1
sI63
I1
sI64
I1
sI65
I1
sI66
I1
sI67
I1
sI68
I1
sI69
I1
sI70
I1
sI71
I1
sI72
I1
sI73
I1
sI74
I1
sI75
I1
sI76
I1
sI77
I1
sI78
I1
sI79
I1
sI80
I1
sI81
I1
sI82
I1
sI83
I1
sI84
I1
sI85
I1
sI86
I1
sI87
I1
sI88
I1
sI89
I1
sI90
I1
sI91
I1
sI92
I1
sI93
I1
sI94
I1
sI95
I1
sI96
I1
sI97
I1
sI98
I1
sI99
I1
sI100
I1
sI101
I1
sI102
I1
sI103
I1
sI104
I1
sI105
I1
sI106
I2
sI107
I3
sI108
I3
sI109
I3
sI110
I3
sI111
I3
sI112
I3
sI113
I3
sI114
I3
sI115
I3
sI116
I3
sI117
I3
sI118
I3
sI119
I3
sI120
I3
sI121
I3
sI122
I3
sI123
I3
sI124
I3
sI125
I3
sI126
I3
sI127
I3
sI128
I3
sI129
I3
sI130
I3
sI131
I3
sI132
I3
sI133
I3
sI134
I3
sI135
I3
sI136
I3
sI137
I3
sI138
I4
sI139
I4
sI140
I4
sI141
I4
sI142
I4
sI143
I4
sI144
I4
sI145
I4
sI146
I4
sI147
I4
sI148
I4
sI149
I4
sI150
I4
sI151
I4
sI152
I4
sI153
I4
sI154
I4
sI155
I4
sI156
I4
sI157
I4
sI158
I4
sI159
I4
sI160
I4
sI161
I4
sI162
I4
sI163
I4
sI164
I4
sI165
I4
sI166
I4
sI167
I4
sI168
I4
sI169
I4
sI170
I4
sI171
I4
sI172
I4
sI173
I4
sI174
I4
sI175
I4
sI176
I4
sI177
I4
sI178
I4
sI179
I4
sI180
I4
sI181
I4
sI182
I4
sI183
I4
sI184
I4
sI185
I4
sI186
I4
sI187
I4
sI188
I4
sI189
I4
sI190
I4
sI191
I4
sI192
I4
sI193
I4
sI194
I4
sI195
I4
sI196
I4
sI197
I4
sI198
I4
sI199
I4
sI200
I4
sI201
I4
sI202
I4
sI203
I4
sI204
I4
sI205
I4
sI206
I4
sI207
I4
sI208
I4
sI209
I4
sI210
I4
sI211
I4
sI212
I4
sI213
I4
sI214
I4
sI215
I4
sI216
I4
sI217
I4
sI218
I4
sI219
I4
sI220
I4
sI221
I4
sI222
I4
sI223
I4
sI224
I4
sI225
I4
sI226
I4
sI227
I4
sI228
I4
sI229
I4
sI230
I4
sI231
I4
sI232
I4
sI233
I4
sI234
I4
sI235
I4
sI236
I4
sI237
I4
sI238
I4
sI239
I4
sI240
I4
sI241
I4
sI242
I4
sI243
I4
sI244
I4
sI245
I4
sI246
I4
sI247
I4
sI248
I4
sI249
I4
sI250
I4
sI251
I4
sI252
I4
sI253
I4
sI254
I4
sI255
I4
sI256
I4
sI257
I4
sI258
I4
sI259
I4
sI260
I4
sI261
I4
sI262
I4
sI263
I4
sI264
I4
sI265
I4
sI266
I5
sI267
I5
sI268
I5
sI269
I5
sI270
I5
sI271
I5
sI272
I5
sI273
I5
sI274
I5
sI275
I5
sI276
I5
sI277
I5
sI278
I5
sI279
I5
sI280
I5
sI281
I5
sI282
I5
sI283
I5
sI284
I5
sI285
I5
sI286
I5
sI287
I5
sI288
I5
sI289
I5
sI290
I5
sI291
I5
sI292
I5
sI293
I5
sI294
I5
sI295
I5
sI296
I5
sI297
I5
sI298
I5
sI299
I5
sI300
I5
sI301
I5
sI302
I5
sI303
I5
sI304
I5
sI305
I5
sI306
I5
sI307
I5
sI308
I5
sI309
I5
sI310
I5
sI311
I5
sI312
I5
sI313
I5
sI314
I5
sI315
I5
sI316
I5
sI317
I5
sI318
I5
sI319
I5
sI320
I5
sI321
I5
sI322
I5
sI323
I5
sI324
I5
sI325
I5
sI326
I5
sI327
I5
sI328
I5
sI329
I5
sI330
I5
sI331
I5
sI332
I5
sI333
I5
sI334
I5
sI335
I5
sI336
I5
sI337
I5
sI338
I5
sI339
I5
sI340
I5
sI341
I5
sI342
I5
sI343
I5
sI344
I5
sI345
I5
sI346
I5
sI347
I5
sI348
I6
sI349
I6
sI350
I6
sI351
I6
sI352
I6
sI353
I6
sI354
I6
sI355
I6
sI356
I6
sI357
I6
sI358
I6
sI359
I6
sI360
I7
sI361
I7
sI362
I7
sI363
I7
sI364
I7
sI365
I7
sI366
I7
sI367
I7
sI368
I7
sI369
I7
sI370
I7
sI371
I7
sI372
I7
sI373
I7
sI374
I7
sI375
I7
sI376
I7
sI377
I7
sI378
I7
sI379
I7
sI380
I7
sI381
I7
sI382
I7
sI383
I7
sI384
I7
sI385
I7
sI386
I7
sI387
I7
sI388
I7
sI389
I7
sI390
I7
sI391
I7
sI392
I8
sI393
I8
sI394
I8
sI395
I8
sI396
I8
sI397
I8
sI398
I8
sI399
I8
sI400
I8
sI401
I8
sI402
I8
sI403
I8
sI404
I8
sI405
I8
sI406
I8
sI407
I8
sI408
I8
sI409
I8
sI410
I8
sI411
I8
sI412
I8
sI413
I8
sI414
I8
sI415
I9
sI416
I9
sI417
I9
sI418
I9
sI419
I9
sI420
I9
sI421
I9
sI422
I9
sI423
I9
sI424
I9
sI425
I9
sI426
I9
sI427
I9
sI428
I9
sI429
I9
sI430
I9
sI431
I9
sI432
I9
sI433
I9
sI434
I9
sI435
I9
sI436
I9
sI437
I9
sI438
I9
sI439
I9
sI440
I9
sI441
I9
sI442
I9
sI443
I9
sI444
I9
sI445
I9
sI446
I9
sI447
I9
sI448
I9
sI449
I9
sI450
I9
sI451
I9
sI452
I9
sI453
I9
sI454
I9
sI455
I9
sI456
I9
sI457
I9
sI458
I9
sI459
I9
sI460
I9
sI461
I9
sI462
I9
sI463
I9
sI464
I9
sI465
I9
sI466
I9
sI467
I9
sI468
I9
sI469
I9
sI470
I9
sI471
I9
sI472
I9
sI473
I9
sI474
I9
sI475
I9
sI476
I9
sI477
I9
sI478
I9
sI479
I9
sI480
I9
sI481
I9
sI482
I9
sI483
I9
sI484
I9
sI485
I10
sI486
I10
sI487
I10
sI488
I10
sI489
I10
sI490
I10
sI491
I10
sI492
I10
sI493
I10
sI494
I10
sI495
I10
sI496
I10
sI497
I10
sI498
I10
sI499
I10
sI500
I10
sI501
I10
sI502
I10
sI503
I10
sI504
I10
sI505
I10
sI506
I10
sI507
I10
sI508
I10
sI509
I10
sI510
I10
sI511
I10
sI512
I10
sI513
I10
sI514
I10
sI515
I10
sI516
I10
sI517
I10
sI518
I10
sI519
I10
sI520
I10
sI521
I10
sI522
I10
sI523
I10
sI524
I10
sI525
I10
sI526
I10
sI527
I10
sI528
I10
sI529
I10
sI530
I10
sI531
I10
sI532
I10
sI533
I10
sI534
I10
sI535
I10
sI536
I10
sI537
I10
sI538
I10
sI539
I10
sI540
I11
sI541
I11
sI542
I11
sI543
I11
sI544
I11
sI545
I11
sI546
I11
sI547
I11
sI548
I11
sI549
I11
sI550
I11
sI551
I11
sI552
I11
sI553
I11
sI554
I11
sI555
I11
sI556
I11
sI557
I11
sI558
I11
sI559
I11
sI560
I11
sI561
I11
sI562
I11
sI563
I11
sI564
I11
sI565
I11
sI566
I11
sI567
I11
sI568
I11
sI569
I11
sI570
I11
sI571
I11
sI572
I11
sI573
I11
sI574
I11
sI575
I11
sI576
I11
sI577
I11
sI578
I11
sI579
I11
sI580
I11
sI581
I11
sI582
I11
sI583
I11
sI584
I11
sI585
I11
sI586
I11
sI587
I11
sI588
I11
sI589
I11
sI590
I11
sI591
I11
sI592
I11
sI593
I11
sI594
I11
sI595
I11
sI596
I11
sI597
I11
sI598
I11
sI599
I11
sI600
I11
sI601
I11
sI602
I11
sI603
I11
sI604
I11
sI605
I12
sI606
I12
sI607
I12
sI608
I12
sI609
I12
sI610
I12
sI611
I12
sI612
I12
sI613
I12
sI614
I12
sI615
I12
sI616
I12
sI617
I12
sI618
I12
sI619
I12
sI620
I12
sI621
I12
sI622
I12
sI623
I12
sI624
I12
sI625
I12
sI626
I12
sI627
I13
sI628
I13
sI629
I13
sI630
I13
sI631
I13
sI632
I13
sI633
I13
sI634
I13
sI635
I13
sI636
I13
sI637
I13
sI638
I13
sI639
I13
sI640
I13
sI641
I13
sI642
I14
sI643
I14
sI644
I14
sI645
I14
sI646
I14
sI647
I14
sI648
I14
sI649
I14
sI650
I14
sI651
I14
sI652
I14
sI653
I14
sI654
I14
sI655
I14
sI656
I14
sI657
I14
sI658
I14
sI659
I14
sI660
I14
sI661
I14
sI662
I14
sI663
I14
sI664
I14
sI665
I14
sI666
I14
sI667
I14
sI668
I14
sI669
I14
sI670
I14
sI671
I14
sI672
I14
sI673
I14
sI674
I15
sI675
I15
sI676
I15
sI677
I15
sI678
I15
sI679
I15
sI680
I15
sI681
I15
sI682
I15
sI683
I15
sI684
I15
sI685
I15
sI686
I15
sI687
I15
sI688
I15
sI689
I15
sI690
I15
sI691
I15
sI692
I15
sI693
I15
sI694
I15
sI695
I15
sI696
I16
sI697
I16
sI698
I16
sI699
I16
sI700
I16
sI701
I16
sI702
I16
sI703
I16
sI704
I16
sI705
I16
sI706
I16
sI707
I16
sI708
I16
sI709
I16
sI710
I16
sI711
I16
sI712
I16
sI713
I16
sI714
I16
sI715
I16
sI716
I16
sI717
I16
sI718
I16
sI719
I16
sI720
I16
sI721
I16
sI722
I16
sI723
I16
sI724
I16
sI725
I16
sI726
I16
sI727
I16
sI728
I16
sI729
I16
sI730
I16
sI731
I16
sI732
I16
sI733
I16
sI734
I16
sI735
I16
sI736
I16
sI737
I16
sI738
I16
sI739
I16
sI740
I16
sI741
I16
sI742
I16
sI743
I16
sI744
I16
sI745
I16
sI746
I16
sI747
I16
sI748
I16
sI749
I16
sI750
I16
sI751
I16
sI752
I16
sI753
I16
sI754
I16
sI755
I16
sI756
I16
sI757
I16
sI758
I16
sI759
I16
sI760
I16
sI761
I16
sI762
I16
sI763
I16
sI764
I16
sI765
I17
sI766
I17
sI767
I17
sI768
I17
sI769
I17
sI770
I17
sI771
I17
sI772
I17
sI773
I17
sI774
I17
sI775
I17
sI776
I17
sI777
I17
sI778
I17
sI779
I17
sI780
I17
sI781
I17
sI782
I17
sI783
I17
sI784
I17
sI785
I17
sI786
I17
sI787
I17
sI788
I17
sI789
I17
sI790
I17
sI791
I17
sI792
I17
sI793
I17
sI794
I17
sI795
I17
sI796
I17
sI797
I17
sI798
I17
sI799
I17
sI800
I17
sI801
I17
sI802
I17
sI803
I17
sI804
I17
sI805
I17
sI806
I17
sI807
I18
sI808
I18
sI809
I18
sI810
I18
sI811
I18
sI812
I18
sI813
I18
sI814
I18
sI815
I18
sI816
I18
sI817
I18
sI818
I18
sI819
I18
sI820
I18
sI821
I18
sI822
I18
sI823
I18
sI824
I18
sI825
I18
sI826
I18
sI827
I18
sI828
I18
sI829
I18
sI830
I18
sI831
I18
sI832
I18
sI833
I18
sI834
I18
sI835
I18
sI836
I18
sI837
I18
sI838
I18
sI839
I18
sI840
I18
sI841
I18
sI842
I18
sI843
I19
sI844
I19
sI845
I19
sI846
I19
sI847
I19
sI848
I19
sI849
I19
sI850
I19
sI851
I19
sI852
I19
sI853
I19
sI854
I19
sI855
I19
sI856
I19
sI857
I19
sI858
I19
sI859
I19
sI860
I20
sI861
I20
sI862
I20
sI863
I20
sI864
I20
sI865
I20
sI866
I20
sI867
I20
sI868
I20
sI869
I20
sI870
I20
sI871
I20
sI872
I20
sI873
I20
sI874
I20
sI875
I20
sI876
I20
sI877
I20
sI878
I20
sI879
I20
sI880
I21
sI881
I21
sI882
I21
sI883
I21
sI884
I21
sI885
I21
sI886
I21
sI887
I21
sI888
I21
sI889
I21
sI890
I21
sI891
I21
sI892
I21
sI893
I21
sI894
I21
sI895
I21
sI896
I21
sI897
I21
sI898
I21
sI899
I21
sI900
I21
sI901
I21
sI902
I22
sI903
I22
sI904
I22
sI905
I22
sI906
I22
sI907
I22
sI908
I22
sI909
I22
sI910
I22
sI911
I22
sI912
I22
sI913
I22
sI914
I22
sI915
I22
sI916
I22
sI917
I22
sI918
I22
sI919
I22
sI920
I22
sI921
I22
sI922
I22
sI923
I22
sI924
I22
sI925
I22
sI926
I22
sI927
I22
sI928
I22
sI929
I22
sI930
I22
sI931
I22
sI932
I22
sI933
I22
sI934
I22
sI935
I23
sI936
I23
sI937
I23
sI938
I23
sI939
I23
sI940
I23
sI941
I23
sI942
I23
sI943
I23
sI944
I23
sI945
I23
sI946
I23
sI947
I23
sI948
I23
sI949
I23
sI950
I23
sI951
I23
sI952
I23
sI953
I23
sI954
I23
sI955
I23
sI956
I23
sI957
I23
sI958
I23
sI959
I23
sI960
I23
sI961
I23
sI962
I23
sI963
I23
sI964
I23
sI965
I23
sI966
I23
sI967
I23
sI968
I23
sI969
I23
sI970
I23
sI971
I23
sI972
I23
sI973
I23
sI974
I23
sI975
I23
sI976
I23
sI977
I23
sI978
I23
sI979
I23
sI980
I23
sI981
I23
sI982
I23
sI983
I23
sI984
I23
sI985
I23
sI986
I23
sI987
I23
sI988
I23
sI989
I23
sI990
I23
sI991
I23
sI992
I23
sI993
I23
sI994
I23
sI995
I23
sI996
I23
sI997
I23
sI998
I23
sI999
I23
sI1000
I23
sI1001
I24
sI1002
I24
sI1003
I24
sI1004
I24
sI1005
I24
sI1006
I24
sI1007
I24
sI1008
I24
sI1009
I24
sI1010
I24
sI1011
I24
sI1012
I24
sI1013
I24
sI1014
I24
sI1015
I25
sI1016
I25
sI1017
I25
sI1018
I25
sI1019
I25
sI1020
I25
sI1021
I25
sI1022
I25
sI1023
I25
sI1024
I25
sI1025
I25
sI1026
I25
sI1027
I25
sI1028
I25
sI1029
I25
sI1030
I25
sI1031
I25
sI1032
I25
sI1033
I25
sI1034
I25
sI1035
I25
sI1036
I25
sI1037
I25
sI1038
I25
sI1039
I26
sI1040
I26
sI1041
I26
sI1042
I26
sI1043
I26
sI1044
I26
sI1045
I26
sI1046
I26
sI1047
I26
sI1048
I26
sI1049
I26
sI1050
I26
sI1051
I26
sI1052
I26
sI1053
I26
sI1054
I26
sI1055
I26
sI1056
I26
sI1057
I26
sI1058
I26
sI1059
I26
sI1060
I26
sI1061
I26
sI1062
I26
sI1063
I26
sI1064
I26
sI1065
I26
sI1066
I26
sI1067
I26
sI1068
I26
sI1069
I26
sI1070
I26
sI1071
I26
sI1072
I26
sI1073
I26
sI1074
I26
sI1075
I26
sI1076
I26
sI1077
I26
sI1078
I26
sI1079
I26
sI1080
I26
sI1081
I26
sI1082
I26
sI1083
I26
sI1084
I26
sI1085
I26
sI1086
I26
sI1087
I26
sI1088
I26
sI1089
I26
sI1090
I26
sI1091
I26
sI1092
I26
sI1093
I26
sI1094
I26
sI1095
I26
sI1096
I26
sI1097
I26
sI1098
I26
sI1099
I26
sI1100
I26
sI1101
I26
sI1102
I26
sI1103
I26
sI1104
I26
sI1105
I26
sI1106
I26
sI1107
I26
sI1108
I26
sI1109
I26
sI1110
I26
sI1111
I26
sI1112
I26
sI1113
I26
sI1114
I26
sI1115
I26
sI1116
I27
sI1117
I27
sI1118
I27
sI1119
I27
sI1120
I27
sI1121
I27
sI1122
I27
sI1123
I27
sI1124
I27
sI1125
I27
sI1126
I27
sI1127
I27
sI1128
I28
sI1129
I28
sI1130
I28
sI1131
I28
sI1132
I28
sI1133
I28
sI1134
I28
sI1135
I28
sI1136
I28
sI1137
I28
sI1138
I28
sI1139
I28
sI1140
I28
sI1141
I28
sI1142
I28
sI1143
I28
sI1144
I28
sI1145
I28
sI1146
I28
sI1147
I28
sI1148
I28
sI1149
I28
sI1150
I28
sI1151
I28
sI1152
I28
sI1153
I28
sI1154
I28
sI1155
I28
sI1156
I28
sI1157
I28
sI1158
I28
sI1159
I28
sI1160
I28
sI1161
I28
sI1162
I28
sI1163
I28
sI1164
I28
sI1165
I28
sI1166
I28
sI1167
I28
sI1168
I28
sI1169
I28
sI1170
I28
sI1171
I29
sI1172
I29
sI1173
I29
sI1174
I29
sI1175
I29
sI1176
I29
sI1177
I29
sI1178
I29
sI1179
I29
sI1180
I29
sI1181
I29
sI1182
I29
sI1183
I29
sI1184
I29
sI1185
I29
sI1186
I29
sI1187
I29
sI1188
I29
sI1189
I29
sI1190
I29
sI1191
I29
sI1192
I29
sI1193
I29
sI1194
I29
sI1195
I29
sI1196
I29
sI1197
I29
sI1198
I29
sI1199
I29
sI1200
I29
sI1201
I30
sI1202
I30
sI1203
I30
sI1204
I30
sI1205
I30
sI1206
I30
sI1207
I30
sI1208
I30
sI1209
I30
sI1210
I30
sI1211
I30
sI1212
I30
sI1213
I30
sI1214
I30
sI1215
I30
sI1216
I30
sI1217
I30
sI1218
I30
sI1219
I30
sI1220
I30
sI1221
I30
sI1222
I30
sI1223
I30
sI1224
I30
sI1225
I30
sI1226
I30
sI1227
I30
sI1228
I31
sI1229
I31
sI1230
I31
sI1231
I31
sI1232
I31
sI1233
I31
sI1234
I31
sI1235
I32
sI1236
I32
sI1237
I32
sI1238
I32
sI1239
I32
sI1240
I32
sI1241
I32
sI1242
I32
sI1243
I32
sI1244
I32
sI1245
I32
sI1246
I32
sI1247
I32
sI1248
I32
sI1249
I32
sI1250
I32
sI1251
I32
sI1252
I32
sI1253
I32
sI1254
I32
sI1255
I32
sI1256
I32
sI1257
I32
sI1258
I32
sI1259
I32
sI1260
I32
s.