(dp0
I0
(dp1
S'tone'
p2
I0
sS'tongyong'
p3
V\u7368\u7528
p4
sS'sectionlabel'
p5
V\u5f1f\u4e00
p6
sS'number'
p7
V1
p8
sS'finalglyph'
p9
V\u6771
p10
sS'type'
p11
VAB
p12
ssI1
(dp13
g2
I0
sg3
V\u937e\u540c\u7528
p14
sg5
V\u5f1f\u4e8c
p15
sg7
V2
p16
sg9
V\u51ac
p17
sg11
VA
p18
ssI2
(dp19
g2
I0
sg3
V
p20
sg5
V\u5f1f\u4e09
p21
sg7
V3
p22
sg9
V\u937e
p23
sg11
VB
p24
ssI3
(dp25
g2
I0
sg3
V\u7368\u7528
p26
sg5
V\u5f1f\u56db
p27
sg7
V4
p28
sg9
V\u6c5f
p29
sg11
g18
ssI4
(dp30
g2
I0
sg3
V\u8102\u4e4b\u540c\u7528
p31
sg5
V\u5f1f\u4e94
p32
sg7
V5
p33
sg9
V\u652f
p34
sg11
g24
ssI5
(dp35
g2
I0
sg3
g20
sg5
V\u5f1f\u516d
p36
sg7
V6
p37
sg9
V\u8102
p38
sg11
g24
ssI6
(dp39
g2
I0
sg3
g20
sg5
V\u5f1f\u4e03
p40
sg7
V7
p41
sg9
V\u4e4b
p42
sg11
g24
ssI7
(dp43
g2
I0
sg3
V\u7368\u7528
p44
sg5
V\u5f1f\u516b
p45
sg7
V8
p46
sg9
V\u5fae
p47
sg11
g24
ssI8
(dp48
g2
I0
sg3
V\u7368\u7528
p49
sg5
V\u5f1f\u4e5d
p50
sg7
V9
p51
sg9
V\u9b5a
p52
sg11
g24
ssI9
(dp53
g2
I0
sg3
V\u6a21\u540c\u7528
p54
sg5
V\u5f1f\u5341
p55
sg7
V10
p56
sg9
V\u865e
p57
sg11
g24
ssI10
(dp58
g2
I0
sg3
g20
sg5
V\u5f1f\u5341\u4e00
p59
sg7
V11
p60
sg9
V\u6a21
p61
sg11
g18
ssI11
(dp62
g2
I0
sg3
V\u7368\u7528
p63
sg5
V\u5f1f\u5341\u4e8c
p64
sg7
V12
p65
sg9
V\u9f4a
p66
sg11
g18
ssI12
(dp67
g2
I0
sg3
V\u7686\u540c\u7528
p68
sg5
V\u5f1f\u5341\u4e09
p69
sg7
V13
p70
sg9
V\u4f73
p71
sg11
g18
ssI13
(dp72
g2
I0
sg3
g20
sg5
V\u5f1f\u5341\u56db
p73
sg7
V14
p74
sg9
V\u7686
p75
sg11
g18
ssI14
(dp76
g2
I0
sg3
V\u548d\u540c\u7528
p77
sg5
V\u5f1f\u5341\u4e94
p78
sg7
V15
p79
sg9
V\u7070
p80
sg11
g18
ssI15
(dp81
g2
I0
sg3
g20
sg5
V\u5f1f\u5341\u516d
p82
sg7
V16
p83
sg9
V\u548d
p84
sg11
g18
ssI16
(dp85
g2
I0
sg3
V\u8ac4\u81fb\u540c\u7528
p86
sg5
V\u5f1f\u5341\u4e03
p87
sg7
V17
p88
sg9
V\u771f
p89
sg11
g24
ssI17
(dp90
g2
I0
sg3
g20
sg5
V\u5f1f\u5341\u516b
p91
sg7
V18
p92
sg9
V\u8ac4
p93
sg11
g24
ssI18
(dp94
g2
I0
sg3
g20
sg5
V\u5f1f\u5341\u4e5d
p95
sg7
V19
p96
sg9
V\u81fb
p97
sg11
g24
ssI19
(dp98
g2
I0
sg3
V\u7368\u7528
p99
sg5
V\u5f1f\u4e8c\u5341
p100
sg7
V20
p101
sg9
V\u6587
p102
sg11
g24
ssI20
(dp103
g2
I0
sg3
V\u7368\u7528
p104
sg5
V\u5f1f\u4e8c\u5341\u4e00
p105
sg7
V21
p106
sg9
V\u6bb7
p107
sg11
g24
ssI21
(dp108
g2
I0
sg3
V\u4c1f\u75d5\u540c\u7528
p109
sg5
V\u5f1f\u4e8c\u5341\u4e8c
p110
sg7
V22
p111
sg9
V\u5143
p112
sg11
g24
ssI22
(dp113
g2
I0
sg3
g20
sg5
V\u5f1f\u4e8c\u5341\u4e09
p114
sg7
V23
p115
sg9
V\u4c1f
p116
sg11
g18
ssI23
(dp117
g2
I0
sg3
g20
sg5
V\u5f1f\u4e8c\u5341\u56db
p118
sg7
V24
p119
sg9
V\u75d5
p120
sg11
g18
ssI24
(dp121
g2
I0
sg3
V\u6853\u540c\u7528
p122
sg5
V\u5f1f\u4e8c\u5341\u4e94
p123
sg7
V25
p124
sg9
V\u5bd2
p125
sg11
g18
ssI25
(dp126
g2
I0
sg3
g20
sg5
V\u5f1f\u4e8c\u5341\u516d
p127
sg7
V26
p128
sg9
V\u6853
p129
sg11
g18
ssI26
(dp130
g2
I0
sg3
V\u5c71\u540c\u7528
p131
sg5
V\u5f1f\u4e8c\u5341\u4e03
p132
sg7
V27
p133
sg9
V\u522a
p134
sg11
g18
ssI27
(dp135
g2
I0
sg3
g20
sg5
V\u5f1f\u4e8c\u5341\u516b
p136
sg7
V28
p137
sg9
V\u5c71
p138
sg11
g18
ssI28
(dp139
g2
I0
sg3
V\u4ed9\u540c\u7528
p140
sg5
V\u5f1f\u4e00
p141
sg7
V29
p142
sg9
V\u5148
p143
sg11
g18
ssI29
(dp144
g2
I0
sg3
g20
sg5
V\u5f1f\u4e8c
p145
sg7
V30
p146
sg9
V\u4ed9
p147
sg11
g24
ssI30
(dp148
g2
I0
sg3
V\u5bb5\u540c\u7528
p149
sg5
V\u5f1f\u4e09
p150
sg7
V31
p151
sg9
V\u856d
p152
sg11
g24
ssI31
(dp153
g2
I0
sg3
g20
sg5
V\u5f1f\u56db
p154
sg7
V32
p155
sg9
V\u5bb5
p156
sg11
g24
ssI32
(dp157
g2
I0
sg3
V\u7368\u7528
p158
sg5
V\u5f1f\u4e94
p159
sg7
V33
p160
sg9
V\u80b4
p161
sg11
g18
ssI33
(dp162
g2
I0
sg3
V\u7368\u7528
p163
sg5
V\u5f1f\u516d
p164
sg7
V34
p165
sg9
V\u8c6a
p166
sg11
g18
ssI34
(dp167
g2
I0
sg3
V\u6208\u540c\u7528
p168
sg5
V\u5f1f\u4e03
p169
sg7
V35
p170
sg9
V\u6b4c
p171
sg11
g18
ssI35
(dp172
g2
I0
sg3
g20
sg5
V\u5f1f\u516b
p173
sg7
V36
p174
sg9
V\u6208
p175
sg11
g18
ssI36
(dp176
g2
I0
sg3
V\u7368\u7528
p177
sg5
V\u5f1f\u4e5d
p178
sg7
V37
p179
sg9
V\u9ebb
p180
sg11
g18
ssI37
(dp181
g2
I0
sg3
V\u5510\u540c\u7528
p182
sg5
V\u5f1f\u5341
p183
sg7
V38
p184
sg9
V\u967d
p185
sg11
g24
ssI38
(dp186
g2
I0
sg3
g20
sg5
V\u5f1f\u5341\u4e00
p187
sg7
V39
p188
sg9
V\u5510
p189
sg11
g18
ssI39
(dp190
g2
I0
sg3
V\u8015\u6e05\u540c\u7528
p191
sg5
V\u5f1f\u5341\u4e8c
p192
sg7
V40
p193
sg9
V\u5e9a
p194
sg11
VAB
p195
ssI40
(dp196
g2
I0
sg3
g20
sg5
V\u5f1f\u5341\u4e09
p197
sg7
V41
p198
sg9
V\u8015
p199
sg11
g18
ssI41
(dp200
g2
I0
sg3
g20
sg5
V\u5f1f\u5341\u56db
p201
sg7
V42
p202
sg9
V\u6e05
p203
sg11
g18
ssI42
(dp204
g2
I0
sg3
V\u7368\u7528
p205
sg5
V\u5f1f\u5341\u4e94
p206
sg7
V43
p207
sg9
V\u9752
p208
sg11
g18
ssI43
(dp209
g2
I0
sg3
V\u767b\u540c\u7528
p210
sg5
V\u5f1f\u5341\u516d
p211
sg7
V44
p212
sg9
V\u84b8
p213
sg11
g24
ssI44
(dp214
g2
I0
sg3
g20
sg5
V\u5f1f\u5341\u4e03
p215
sg7
V45
p216
sg9
V\u767b
p217
sg11
g24
ssI45
(dp218
g2
I0
sg3
V\u4faf\u5e7d\u540c\u7528
p219
sg5
V\u5f1f\u5341\u516b
p220
sg7
V46
p221
sg9
V\u5c24
p222
sg11
g24
ssI46
(dp223
g2
I0
sg3
g20
sg5
V\u5f1f\u5341\u4e5d
p224
sg7
V47
p225
sg9
V\u4faf
p226
sg11
g18
ssI47
(dp227
g2
I0
sg3
g20
sg5
V\u5f1f\u4e8c\u5341
p228
sg7
V48
p229
sg9
V\u5e7d
p230
sg11
g24
ssI48
(dp231
g2
I0
sg3
V\u7368\u7528
p232
sg5
V\u5f1f\u4e8c\u5341\u4e00
p233
sg7
V49
p234
sg9
V\u4fb5
p235
sg11
g24
ssI49
(dp236
g2
I0
sg3
V\u8ac7\u540c\u7528
p237
sg5
V\u5f1f\u4e8c\u5341\u4e8c
p238
sg7
V50
p239
sg9
V\u8983
p240
sg11
g24
ssI50
(dp241
g2
I0
sg3
g20
sg5
V\u5f1f\u4e8c\u5341\u4e09
p242
sg7
V51
p243
sg9
V\u8ac7
p244
sg11
g24
ssI51
(dp245
g2
I0
sg3
V\u6dfb\u540c\u7528
p246
sg5
V\u5f1f\u4e8c\u5341\u56db
p247
sg7
V52
p248
sg9
V\u9e7d
p249
sg11
g24
ssI52
(dp250
g2
I0
sg3
g20
sg5
V\u5f1f\u4e8c\u5341\u4e94
p251
sg7
V53
p252
sg9
V\u6dfb
p253
sg11
g18
ssI53
(dp254
g2
I0
sg3
V\u929c\u540c\u7528
p255
sg5
V\u5f1f\u4e8c\u5341\u516d
p256
sg7
V54
p257
sg9
V\u54b8
p258
sg11
g24
ssI54
(dp259
g2
I0
sg3
g20
sg5
V\u5f1f\u4e8c\u5341\u4e03
p260
sg7
V55
p261
sg9
V\u929c
p262
sg11
g18
ssI55
(dp263
g2
I0
sg3
V\u51e1\u540c\u7528
p264
sg5
V\u5f1f\u4e8c\u5341\u516b
p265
sg7
V56
p266
sg9
V\u56b4
p267
sg11
g24
ssI56
(dp268
g2
I0
sg3
g20
sg5
V\u5f1f\u4e8c\u5341\u4e5d
p269
sg7
V57
p270
sg9
V\u51e1
p271
sg11
g24
ssI57
(dp272
g2
I1
sg3
V\u7368\u7528
p273
sg5
V\u5f1f\u4e00
p274
sg7
V58
p275
sg9
V\u8463
p276
sg11
VAB
p277
ssI58
(dp278
g2
I1
sg3
V\u7368\u7528
p279
sg5
V\u5f1f\u4e8c
p280
sg7
V59
p281
sg9
V\u816b
p282
sg11
g18
ssI59
(dp283
g2
I1
sg3
V\u7368\u7528
p284
sg5
V\u5f1f\u4e09
p285
sg7
V60
p286
sg9
V\u8b1b
p287
sg11
g18
ssI60
(dp288
g2
I1
sg3
V\u65e8\u6b62\u540c\u7528
p289
sg5
V\u5f1f\u56db
p290
sg7
V61
p291
sg9
V\u7d19
p292
sg11
g24
ssI61
(dp293
g2
I1
sg3
g20
sg5
V\u5f1f\u4e94
p294
sg7
V62
p295
sg9
V\u65e8
p296
sg11
g24
ssI62
(dp297
g2
I1
sg3
g20
sg5
V\u5f1f\u516d
p298
sg7
V63
p299
sg9
V\u6b62
p300
sg11
g24
ssI63
(dp301
g2
I1
sg3
V\u7368\u7528
p302
sg5
V\u5f1f\u4e03
p303
sg7
V64
p304
sg9
V\u5c3e
p305
sg11
g24
ssI64
(dp306
g2
I1
sg3
V\u7368\u7528
p307
sg5
V\u5f1f\u516b
p308
sg7
V65
p309
sg9
V\u8a9e
p310
sg11
g24
ssI65
(dp311
g2
I1
sg3
V\u59e5\u540c\u7528
p312
sg5
V\u5f1f\u4e5d
p313
sg7
V66
p314
sg9
V\u9e8c
p315
sg11
g24
ssI66
(dp316
g2
I1
sg3
g20
sg5
V\u5f1f\u5341
p317
sg7
V67
p318
sg9
V\u59e5
p319
sg11
g18
ssI67
(dp320
g2
I1
sg3
V\u7368\u7528
p321
sg5
V\u5f1f\u5341\u4e00
p322
sg7
V68
p323
sg9
V\u85ba
p324
sg11
g18
ssI68
(dp325
g2
I1
sg3
V\u99ed\u540c\u7528
p326
sg5
V\u5f1f\u5341\u4e8c
p327
sg7
V69
p328
sg9
V\u87f9
p329
sg11
g18
ssI69
(dp330
g2
I1
sg3
g20
sg5
V\u5f1f\u5341\u4e09
p331
sg7
V70
p332
sg9
V\u99ed
p333
sg11
g18
ssI70
(dp334
g2
I1
sg3
V\u6d77\u540c\u7528
p335
sg5
V\u5f1f\u5341\u56db
p336
sg7
V71
p337
sg9
V\u8cc4
p338
sg11
g18
ssI71
(dp339
g2
I1
sg3
g20
sg5
V\u5f1f\u5341\u4e94
p340
sg7
V72
p341
sg9
V\u6d77
p342
sg11
g18
ssI72
(dp343
g2
I1
sg3
V\u6e96\u540c\u7528
p344
sg5
V\u5f1f\u5341\u516d
p345
sg7
V73
p346
sg9
V\u8eeb
p347
sg11
g24
ssI73
(dp348
g2
I1
sg3
g20
sg5
V\u5f1f\u5341\u4e03
p349
sg7
V74
p350
sg9
V\u6e96
p351
sg11
g24
ssI74
(dp352
g2
I1
sg3
V\u7368\u7528
p353
sg5
V\u5f1f\u5341\u516b
p354
sg7
V75
p355
sg9
V\u543b
p356
sg11
g24
ssI75
(dp357
g2
I1
sg3
V\u7368\u7528
p358
sg5
V\u5f1f\u5341\u4e5d
p359
sg7
V76
p360
sg9
V\u96b1
p361
sg11
g24
ssI76
(dp362
g2
I1
sg3
V\u6df7\u5f88\u540c\u7528
p363
sg5
V\u5f1f\u4e8c\u5341
p364
sg7
V77
p365
sg9
V\u962e
p366
sg11
g24
ssI77
(dp367
g2
I1
sg3
g20
sg5
V\u5f1f\u4e8c\u5341\u4e00
p368
sg7
V78
p369
sg9
V\u6df7
p370
sg11
g18
ssI78
(dp371
g2
I1
sg3
g20
sg5
V\u5f1f\u4e8c\u5341\u4e8c
p372
sg7
V79
p373
sg9
V\u5f88
p374
sg11
g18
ssI79
(dp375
g2
I1
sg3
V\u7de9\u540c\u7528
p376
sg5
V\u5f1f\u4e8c\u5341\u4e09
p377
sg7
V80
p378
sg9
V\u65f1
p379
sg11
g18
ssI80
(dp380
g2
I1
sg3
g20
sg5
V\u5f1f\u4e8c\u5341\u56db
p381
sg7
V81
p382
sg9
V\u7de9
p383
sg11
g18
ssI81
(dp384
g2
I1
sg3
V\u7522\u540c\u7528
p385
sg5
V\u5f1f\u4e8c\u5341\u4e94
p386
sg7
V82
p387
sg9
V\u6f78
p388
sg11
g18
ssI82
(dp389
g2
I1
sg3
g20
sg5
V\u5f1f\u4e8c\u5341\u516d
p390
sg7
V83
p391
sg9
V\u7522
p392
sg11
g18
ssI83
(dp393
g2
I1
sg3
V\u736e\u540c\u7528
p394
sg5
V\u5f1f\u4e8c\u5341\u4e03
p395
sg7
V84
p396
sg9
V\u9291
p397
sg11
g18
ssI84
(dp398
g2
I1
sg3
g20
sg5
V\u5f1f\u4e8c\u5341\u516b
p399
sg7
V85
p400
sg9
V\u736e
p401
sg11
g24
ssI85
(dp402
g2
I1
sg3
V\u5c0f\u540c\u7528
p403
sg5
V\u5f1f\u4e8c\u5341\u4e5d
p404
sg7
V86
p405
sg9
V\u7be0
p406
sg11
g18
ssI86
(dp407
g2
I1
sg3
g20
sg5
V\u5f1f\u4e09\u5341
p408
sg7
V87
p409
sg9
V\u5c0f
p410
sg11
g24
ssI87
(dp411
g2
I1
sg3
V\u7368\u7528
p412
sg5
V\u5f1f\u4e09\u5341\u4e00
p413
sg7
V88
p414
sg9
V\u5de7
p415
sg11
g18
ssI88
(dp416
g2
I1
sg3
V\u7368\u7528
p417
sg5
V\u5f1f\u4e09\u5341\u4e8c
p418
sg7
V89
p419
sg9
V\u6667
p420
sg11
g18
ssI89
(dp421
g2
I1
sg3
V\u679c\u540c\u7528
p422
sg5
V\u5f1f\u4e09\u5341\u4e09
p423
sg7
V90
p424
sg9
V\u54ff
p425
sg11
g18
ssI90
(dp426
g2
I1
sg3
g20
sg5
V\u5f1f\u4e09\u5341\u56db
p427
sg7
V91
p428
sg9
V\u679c
p429
sg11
g18
ssI91
(dp430
g2
I1
sg3
V\u7368\u7528
p431
sg5
V\u5f1f\u4e09\u5341\u4e94
p432
sg7
V92
p433
sg9
V\u99ac
p434
sg11
g18
ssI92
(dp435
g2
I1
sg3
V\u8569\u540c\u7528
p436
sg5
V\u5f1f\u4e09\u5341\u516d
p437
sg7
V93
p438
sg9
V\u990a
p439
sg11
g24
ssI93
(dp440
g2
I1
sg3
g20
sg5
V\u5f1f\u4e09\u5341\u4e03
p441
sg7
V94
p442
sg9
V\u8569
p443
sg11
g18
ssI94
(dp444
g2
I1
sg3
V\u803f\u975c\u540c\u7528
p445
sg5
V\u5f1f\u4e09\u5341\u516b
p446
sg7
V95
p447
sg9
V\u6897
p448
sg11
VAB
p449
ssI95
(dp450
g2
I1
sg3
g20
sg5
V\u5f1f\u4e09\u5341\u4e5d
p451
sg7
V96
p452
sg9
V\u803f
p453
sg11
g18
ssI96
(dp454
g2
I1
sg3
g20
sg5
V\u5f1f\u56db\u5341
p455
sg7
V97
p456
sg9
V\u975c
p457
sg11
g24
ssI97
(dp458
g2
I1
sg3
V\u7368\u7528
p459
sg5
V\u5f1f\u56db\u5341\u4e00
p460
sg7
V98
p461
sg9
V\u8fe5
p462
sg11
g18
ssI98
(dp463
g2
I1
sg3
V\u7b49\u540c\u7528
p464
sg5
V\u5f1f\u56db\u5341\u4e8c
p465
sg7
V99
p466
sg9
V\u62ef
p467
sg11
g24
ssI99
(dp468
g2
I1
sg3
g20
sg5
V\u5f1f\u56db\u5341\u4e09
p469
sg7
V100
p470
sg9
V\u7b49
p471
sg11
g18
ssI100
(dp472
g2
I1
sg3
V\u539a\u9edd\u540c\u7528
p473
sg5
V\u5f1f\u56db\u5341\u56db
p474
sg7
V101
p475
sg9
V\u6709
p476
sg11
g24
ssI101
(dp477
g2
I1
sg3
g20
sg5
V\u5f1f\u56db\u5341\u4e94
p478
sg7
V102
p479
sg9
V\u539a
p480
sg11
g18
ssI102
(dp481
g2
I1
sg3
g20
sg5
V\u5f1f\u56db\u5341\u516d
p482
sg7
V103
p483
sg9
V\u9edd
p484
sg11
g24
ssI103
(dp485
g2
I1
sg3
V\u7368\u7528
p486
sg5
V\u5f1f\u56db\u5341\u4e03
p487
sg7
V104
p488
sg9
V\u5bd1
p489
sg11
g24
ssI104
(dp490
g2
I1
sg3
V\u6562\u540c\u7528
p491
sg5
V\u5f1f\u56db\u5341\u516b
p492
sg7
V105
p493
sg9
V\u611f
p494
sg11
g18
ssI105
(dp495
g2
I1
sg3
g20
sg5
V\u5f1f\u56db\u5341\u4e5d
p496
sg7
V106
p497
sg9
V\u6562
p498
sg11
g18
ssI106
(dp499
g2
I1
sg3
V\u5fdd\u540c\u7528
p500
sg5
V\u5f1f\u4e94\u5341
p501
sg7
V107
p502
sg9
V\u7430
p503
sg11
g24
ssI107
(dp504
g2
I1
sg3
g20
sg5
V\u5f1f\u4e94\u5341\u4e00
p505
sg7
V108
p506
sg9
V\u5fdd
p507
sg11
g18
ssI108
(dp508
g2
I1
sg3
V\u6abb\u540c\u7528
p509
sg5
V\u5f1f\u4e94\u5341\u4e8c
p510
sg7
V109
p511
sg9
V\u8c4f
p512
sg11
g24
ssI109
(dp513
g2
I1
sg3
g20
sg5
V\u5f1f\u4e94\u5341\u4e09
p514
sg7
V110
p515
sg9
V\u6abb
p516
sg11
g18
ssI110
(dp517
g2
I1
sg3
V\u8303\u540c\u7528
p518
sg5
V\u5f1f\u4e94\u5341\u56db
p519
sg7
V111
p520
sg9
V\u513c
p521
sg11
g18
ssI111
(dp522
g2
I1
sg3
g20
sg5
V\u4e94\u5341\u4e94
p523
sg7
V112
p524
sg9
V\u8303
p525
sg11
g24
ssI112
(dp526
g2
I2
sg3
V\u7368\u7528
p527
sg5
V\u5f1f\u4e00
p528
sg7
V113
p529
sg9
V\u9001
p530
sg11
VAB
p531
ssI113
(dp532
g2
I2
sg3
V\u7528\u540c\u7528
p533
sg5
V\u5f1f\u4e8c
p534
sg7
V114
p535
sg9
V\u5b8b
p536
sg11
g18
ssI114
(dp537
g2
I2
sg3
g20
sg5
V\u5f1f\u4e09
p538
sg7
V115
p539
sg9
V\u7528
p540
sg11
g24
ssI115
(dp541
g2
I2
sg3
V\u7368\u7528
p542
sg5
V\u5f1f\u56db
p543
sg7
V116
p544
sg9
V\u7d73
p545
sg11
g18
ssI116
(dp546
g2
I2
sg3
V\u81f3\u5fd7\u540c\u7528
p547
sg5
V\u5f1f\u4e94
p548
sg7
V117
p549
sg9
V\u5bd8
p550
sg11
g24
ssI117
(dp551
g2
I2
sg3
g20
sg5
V\u5f1f\u516d
p552
sg7
V118
p553
sg9
V\u81f3
p554
sg11
g24
ssI118
(dp555
g2
I2
sg3
g20
sg5
V\u5f1f\u4e03
p556
sg7
V119
p557
sg9
V\u5fd7
p558
sg11
g24
ssI119
(dp559
g2
I2
sg3
V\u7368\u7528
p560
sg5
V\u5f1f\u516b
p561
sg7
V120
p562
sg9
V\u672a
p563
sg11
g24
ssI120
(dp564
g2
I2
sg3
V\u7368\u7528
p565
sg5
V\u5f1f\u4e5d
p566
sg7
V121
p567
sg9
V\u5fa1
p568
sg11
g18
ssI121
(dp569
g2
I2
sg3
V\u66ae\u540c\u7528
p570
sg5
V\u5f1f\u5341
p571
sg7
V122
p572
sg9
V\u9047
p573
sg11
g18
ssI122
(dp574
g2
I2
sg3
g20
sg5
V\u5f1f\u5341\u4e00
p575
sg7
V123
p576
sg9
V\u66ae
p577
sg11
g18
ssI123
(dp578
g2
I2
sg3
V\u796d\u540c\u7528
p579
sg5
V\u5f1f\u5341\u4e8c
p580
sg7
V124
p581
sg9
V\u973d
p582
sg11
g18
ssI124
(dp583
g2
I2
sg3
g20
sg5
V\u5f1f\u5341\u4e09
p584
sg7
V125
p585
sg9
V\u796d
p586
sg11
g24
ssI125
(dp587
g2
I2
sg3
V\u7368\u7528
p588
sg5
V\u5f1f\u5341\u56db
p589
sg7
V126
p590
sg9
V\u6cf0
p591
sg11
g18
ssI126
(dp592
g2
I2
sg3
V\u602a\u592c\u540c\u7528
p593
sg5
V\u5f1f\u5341\u4e94
p594
sg7
V127
p595
sg9
V\u5366
p596
sg11
g18
ssI127
(dp597
g2
I2
sg3
g20
sg5
V\u5f1f\u5341\u516d
p598
sg7
V128
p599
sg9
V\u602a
p600
sg11
g18
ssI128
(dp601
g2
I2
sg3
g20
sg5
V\u5f1f\u5341\u4e03
p602
sg7
V129
p603
sg9
V\u592c
p604
sg11
g18
ssI129
(dp605
g2
I2
sg3
V\u4ee3\u540c\u7528
p606
sg5
V\u5f1f\u5341\u516b
p607
sg7
V130
p608
sg9
V\u968a
p609
sg11
g18
ssI130
(dp610
g2
I2
sg3
g20
sg5
V\u5f1f\u5341\u4e5d
p611
sg7
V131
p612
sg9
V\u4ee3
p613
sg11
g18
ssI131
(dp614
g2
I2
sg3
V\u7368\u7528
p615
sg5
V\u5f1f\u4e8c\u5341
p616
sg7
V132
p617
sg9
V\u5ee2
p618
sg11
g24
ssI132
(dp619
g2
I2
sg3
V\u7a15\u540c\u7528
p620
sg5
V\u5f1f\u4e8c\u5341\u4e00
p621
sg7
V133
p622
sg9
V\u9707
p623
sg11
g24
ssI133
(dp624
g2
I2
sg3
g20
sg5
V\u5f1f\u4e8c\u5341\u4e8c
p625
sg7
V134
p626
sg9
V\u7a15
p627
sg11
g24
ssI134
(dp628
g2
I2
sg3
V\u7368\u7528
p629
sg5
V\u5f1f\u4e8c\u5341\u4e09
p630
sg7
V135
p631
sg9
V\u554f
p632
sg11
g24
ssI135
(dp633
g2
I2
sg3
V\u7368\u7528
p634
sg5
V\u5f1f\u4e8c\u5341\u56db
p635
sg7
V136
p636
sg9
V\u712e
p637
sg11
g24
ssI136
(dp638
g2
I2
sg3
V\u6141\u6068\u540c\u7528
p639
sg5
V\u5f1f\u4e8c\u5341\u4e94
p640
sg7
V137
p641
sg9
V\u9858
p642
sg11
g24
ssI137
(dp643
g2
I2
sg3
g20
sg5
V\u5f1f\u4e8c\u5341\u516d
p644
sg7
V138
p645
sg9
V\u6141
p646
sg11
g18
ssI138
(dp647
g2
I2
sg3
g20
sg5
V\u5f1f\u4e8c\u5341\u4e03
p648
sg7
V139
p649
sg9
V\u6068
p650
sg11
g18
ssI139
(dp651
g2
I2
sg3
V\u63db\u540c\u7528
p652
sg5
V\u5f1f\u4e8c\u5341\u516b
p653
sg7
V140
p654
sg9
V\u7ff0
p655
sg11
g18
ssI140
(dp656
g2
I2
sg3
g20
sg5
V\u5f1f\u4e8c\u5341\u4e5d
p657
sg7
V141
p658
sg9
V\u63db
p659
sg11
g18
ssI141
(dp660
g2
I2
sg3
V\u8949\u540c\u7528
p661
sg5
V\u5f1f\u4e09\u5341
p662
sg7
V142
p663
sg9
V\u8aeb
p664
sg11
g18
ssI142
(dp665
g2
I2
sg3
g20
sg5
V\u5f1f\u4e09\u5341\u4e00
p666
sg7
V143
p667
sg9
V\u8949
p668
sg11
g18
ssI143
(dp669
g2
I2
sg3
V\u7dda\u540c\u7528
p670
sg5
V\u5f1f\u4e09\u5341\u4e8c
p671
sg7
V144
p672
sg9
V\u9730
p673
sg11
g18
ssI144
(dp674
g2
I2
sg3
g20
sg5
V\u5f1f\u4e09\u5341\u4e09
p675
sg7
V145
p676
sg9
V\u7dda
p677
sg11
g24
ssI145
(dp678
g2
I2
sg3
V\U00025b07\u540c\u7528
p679
sg5
V\u5f1f\u4e09\u5341\u56db
p680
sg7
V146
p681
sg9
V\u562f
p682
sg11
g18
ssI146
(dp683
g2
I2
sg3
g20
sg5
V\u5f1f\u4e09\u5341\u4e94
p684
sg7
V147
p685
sg9
V\U00025b07
p686
sg11
g24
ssI147
(dp687
g2
I2
sg3
V\u7368\u7528
p688
sg5
V\u5f1f\u4e09\u5341\u516d
p689
sg7
V148
p690
sg9
V\u6548
p691
sg11
g18
ssI148
(dp692
g2
I2
sg3
V\u7368\u7528
p693
sg5
V\u5f1f\u4e09\u5341\u4e03
p694
sg7
V149
p695
sg9
V\u53f7
p696
sg11
g18
ssI149
(dp697
g2
I2
sg3
V\u904e\u540c\u7528
p698
sg5
V\u5f1f\u4e09\u5341\u516b
p699
sg7
V150
p700
sg9
V\u7b87
p701
sg11
g18
ssI150
(dp702
g2
I2
sg3
g20
sg5
V\u5f1f\u4e09\u5341\u4e5d
p703
sg7
V151
p704
sg9
V\u904e
p705
sg11
g18
ssI151
(dp706
g2
I2
sg3
V\u7368\u7528
p707
sg5
V\u5f1f\u56db\u5341
p708
sg7
V152
p709
sg9
V\u79a1
p710
sg11
g18
ssI152
(dp711
g2
I2
sg3
V\u5b95\u540c\u7528
p712
sg5
V\u5f1f\u56db\u5341\u4e00
p713
sg7
V153
p714
sg9
V\u6f3e
p715
sg11
g24
ssI153
(dp716
g2
I2
sg3
g20
sg5
V\u5f1f\u56db\u5341\u4e8c
p717
sg7
V154
p718
sg9
V\u5b95
p719
sg11
g18
ssI154
(dp720
g2
I2
sg3
V\u8acd\u5f91\u540c\u7528
p721
sg5
V\u5f1f\u56db\u5341\u4e09
p722
sg7
V155
p723
sg9
V\u6620
p724
sg11
VAB
p725
ssI155
(dp726
g2
I2
sg3
g20
sg5
V\u5f1f\u56db\u5341\u56db
p727
sg7
V156
p728
sg9
V\u8acd
p729
sg11
g18
ssI156
(dp730
g2
I2
sg3
g20
sg5
V\u5f1f\u56db\u5341\u4e94
p731
sg7
V157
p732
sg9
V\u52c1
p733
sg11
g24
ssI157
(dp734
g2
I2
sg3
V\u7368\u7528
p735
sg5
V\u5f1f\u56db\u5341\u516d
p736
sg7
V158
p737
sg9
V\u5f91
p738
sg11
g18
ssI158
(dp739
g2
I2
sg3
V\u5d9d\u540c\u7528
p740
sg5
V\u5f1f\u56db\u5341\u4e03
p741
sg7
V159
p742
sg9
V\u8b49
p743
sg11
g24
ssI159
(dp744
g2
I2
sg3
g20
sg5
V\u5f1f\u56db\u5341\u516b
p745
sg7
V160
p746
sg9
V\u5d9d
p747
sg11
g18
ssI160
(dp748
g2
I2
sg3
V\U000202eb\u5e7c\u540c\u7528
p749
sg5
V\u5f1f\u56db\u5341\u4e5d
p750
sg7
V161
p751
sg9
V\u5ba5
p752
sg11
g24
ssI161
(dp753
g2
I2
sg3
g20
sg5
V\u5f1f\u4e94\u5341
p754
sg7
V162
p755
sg9
V\U000202eb
p756
sg11
g18
ssI162
(dp757
g2
I2
sg3
g20
sg5
V\u5f1f\u4e94\u5341\u4e00
p758
sg7
V163
p759
sg9
V\u5e7c
p760
sg11
g24
ssI163
(dp761
g2
I2
sg3
V\u7368\u7528
p762
sg5
V\u5f1f\u4e94\u5341\u4e8c
p763
sg7
V164
p764
sg9
V\u6c81
p765
sg11
g24
ssI164
(dp766
g2
I2
sg3
V\u95de\u540c\u7528
p767
sg5
V\u5f1f\u4e94\u5341\u4e09
p768
sg7
V165
p769
sg9
V\u52d8
p770
sg11
g18
ssI165
(dp771
g2
I2
sg3
g20
sg5
V\u5f1f\u4e94\u5341\u56db
p772
sg7
V166
p773
sg9
V\u95de
p774
sg11
g18
ssI166
(dp775
g2
I2
sg3
V\u3b87\u91c5\u540c\u7528
p776
sg5
V\u5f1f\u4e94\u5341\u4e94
p777
sg7
V167
p778
sg9
V\u8c54
p779
sg11
g24
ssI167
(dp780
g2
I2
sg3
g20
sg5
V\u5f1f\u4e94\u5341\u516d
p781
sg7
V168
p782
sg9
V\u3b87
p783
sg11
g18
ssI168
(dp784
g2
I2
sg3
g20
sg5
V\u5f1f\u4e94\u5341\u4e03
p785
sg7
V169
p786
sg9
V\u91c5
p787
sg11
g24
ssI169
(dp788
g2
I2
sg3
V\u9451\u68b5\u540c\u7528
p789
sg5
V\u5f1f\u4e94\u5341\u516b
p790
sg7
V170
p791
sg9
V\u9677
p792
sg11
g24
ssI170
(dp793
g2
I2
sg3
g20
sg5
V\u5f1f\u4e94\u5341\u4e5d
p794
sg7
V171
p795
sg9
V\u9451
p796
sg11
g18
ssI171
(dp797
g2
I2
sg3
g20
sg5
V\u5f1f\u516d\u5341
p798
sg7
V172
p799
sg9
V\u68b5
p800
sg11
g24
ssI172
(dp801
g2
I3
sg3
V\u7368\u7528
p802
sg5
V\u5f1f\u4e00
p803
sg7
V173
p804
sg9
V\u5c4b
p805
sg11
VAB
p806
ssI173
(dp807
g2
I3
sg3
V\u71ed\u540c\u7528
p808
sg5
V\u5f1f\u4e8c
p809
sg7
V174
p810
sg9
V\u6c83
p811
sg11
g18
ssI174
(dp812
g2
I3
sg3
g20
sg5
V\u5f1f\u4e09
p813
sg7
V175
p814
sg9
V\u71ed
p815
sg11
g24
ssI175
(dp816
g2
I3
sg3
V\u7368\u7528
p817
sg5
V\u5f1f\u56db
p818
sg7
V176
p819
sg9
V\u89ba
p820
sg11
g18
ssI176
(dp821
g2
I3
sg3
V\u8853\u6adb\u540c\u7528
p822
sg5
V\u5f1f\u4e94
p823
sg7
V177
p824
sg9
V\u8cea
p825
sg11
g24
ssI177
(dp826
g2
I3
sg3
g20
sg5
V\u5f1f\u516d
p827
sg7
V178
p828
sg9
V\u8853
p829
sg11
g24
ssI178
(dp830
g2
I3
sg3
g20
sg5
V\u5f1f\u4e03
p831
sg7
V179
p832
sg9
V\u6adb
p833
sg11
g24
ssI179
(dp834
g2
I3
sg3
V\u7368\u7528
p835
sg5
V\u5f1f\u516b
p836
sg7
V180
p837
sg9
V\u7269
p838
sg11
g24
ssI180
(dp839
g2
I3
sg3
V\u7368\u7528
p840
sg5
V\u5f1f\u4e5d
p841
sg7
V181
p842
sg9
V\u8fc4
p843
sg11
g24
ssI181
(dp844
g2
I3
sg3
V\u6c92\u540c\u7528
p845
sg5
V\u5f1f\u5341
p846
sg7
V182
p847
sg9
V\u6708
p848
sg11
g24
ssI182
(dp849
g2
I3
sg3
g20
sg5
V\u5f1f\u5341\u4e00
p850
sg7
V183
p851
sg9
V\u6c92
p852
sg11
g18
ssI183
(dp853
g2
I3
sg3
V\u672b\u540c\u7528
p854
sg5
V\u5f1f\u5341\u4e8c
p855
sg7
V184
p856
sg9
V\u66f7
p857
sg11
g18
ssI184
(dp858
g2
I3
sg3
g20
sg5
V\u5f1f\u5341\u4e09
p859
sg7
V185
p860
sg9
V\u672b
p861
sg11
g18
ssI185
(dp862
g2
I3
sg3
V\u938b\u540c\u7528
p863
sg5
V\u5f1f\u5341\u56db
p864
sg7
V186
p865
sg9
V\u9ee0
p866
sg11
g18
ssI186
(dp867
g2
I3
sg3
g20
sg5
V\u5f1f\u5341\u4e94
p868
sg7
V187
p869
sg9
V\u938b
p870
sg11
g18
ssI187
(dp871
g2
I3
sg3
V\u859b\u540c\u7528
p872
sg5
V\u5f1f\u5341\u516d
p873
sg7
V188
p874
sg9
V\u5c51
p875
sg11
g18
ssI188
(dp876
g2
I3
sg3
g20
sg5
V\u5f1f\u5341\u4e03
p877
sg7
V189
p878
sg9
V\u859b
p879
sg11
g24
ssI189
(dp880
g2
I3
sg3
V\u9438\u540c\u7528
p881
sg5
V\u5f1f\u5341\u516b
p882
sg7
V190
p883
sg9
V\u85e5
p884
sg11
g24
ssI190
(dp885
g2
I3
sg3
g20
sg5
V\u5f1f\u5341\u4e5d
p886
sg7
V191
p887
sg9
V\u9438
p888
sg11
g18
ssI191
(dp889
g2
I3
sg3
V\u9ea5\u6614\u540c\u7528
p890
sg5
V\u5f1f\u4e8c\u5341
p891
sg7
V192
p892
sg9
V\u964c
p893
sg11
VAB
p894
ssI192
(dp895
g2
I3
sg3
g20
sg5
V\u5f1f\u4e8c\u5341\u4e00
p896
sg7
V193
p897
sg9
V\u9ea5
p898
sg11
g18
ssI193
(dp899
g2
I3
sg3
g20
sg5
V\u5f1f\u4e8c\u5341\u4e8c
p900
sg7
V194
p901
sg9
V\u6614
p902
sg11
g24
ssI194
(dp903
g2
I3
sg3
V\u7368\u7528
p904
sg5
V\u5f1f\u4e8c\u5341\u4e09
p905
sg7
V195
p906
sg9
V\u932b
p907
sg11
g18
ssI195
(dp908
g2
I3
sg3
V\u5fb7\u540c\u7528
p909
sg5
V\u5f1f\u4e8c\u5341\u56db
p910
sg7
V196
p911
sg9
V\u8077
p912
sg11
g24
ssI196
(dp913
g2
I3
sg3
g20
sg5
V\u5f1f\u4e8c\u5341\u4e94
p914
sg7
V197
p915
sg9
V\u5fb7
p916
sg11
g18
ssI197
(dp917
g2
I3
sg3
V\u7368\u7528
p918
sg5
V\u5f1f\u4e8c\u5341\u516d
p919
sg7
V198
p920
sg9
V\u7ddd
p921
sg11
g24
ssI198
(dp922
g2
I3
sg3
V\u76cd\u540c\u7528
p923
sg5
V\u5f1f\u4e8c\u5341\u4e03
p924
sg7
V199
p925
sg9
V\u5408
p926
sg11
g18
ssI199
(dp927
g2
I3
sg3
g20
sg5
V\u5f1f\u4e8c\u5341\u516b
p928
sg7
V200
p929
sg9
V\u76cd
p930
sg11
g18
ssI200
(dp931
g2
I3
sg3
V\u6017\u540c\u7528
p932
sg5
V\u5f1f\u4e8c\u5341\u4e5d
p933
sg7
V201
p934
sg9
V\u8449
p935
sg11
g24
ssI201
(dp936
g2
I3
sg3
g20
sg5
V\u5f1f\u4e09\u5341
p937
sg7
V202
p938
sg9
V\u6017
p939
sg11
g18
ssI202
(dp940
g2
I3
sg3
V\u72ce\u540c\u7528
p941
sg5
V\u5f1f\u4e09\u5341\u4e00
p942
sg7
V203
p943
sg9
V\u6d3d
p944
sg11
g18
ssI203
(dp945
g2
I3
sg3
g20
sg5
V\u5f1f\u4e09\u5341\u4e8c
p946
sg7
V204
p947
sg9
V\u72ce
p948
sg11
g18
ssI204
(dp949
g2
I3
sg3
V\u4e4f\u540c\u7528
p950
sg5
V\u5f1f\u4e09\u5341\u4e09
p951
sg7
V205
p952
sg9
V\u696d
p953
sg11
g24
ssI205
(dp954
g2
I3
sg3
g20
sg5
V\u5f1f\u4e09\u5341\u56db
p955
sg7
V206
p956
sg9
V\u4e4f
p957
sg11
g24
ss.