(dp0
I0
(dp1
S'allograph'
p2
VU+723E
p3
sS'codepoint'
p4
V\ufeffU+5C13
p5
ssI1
(dp6
g2
VU+723E
p7
sg4
VU+4F60
p8
ssI2
(dp9
g2
VU+767C
p10
sg4
VU+24F35
p11
ssI3
(dp12
g2
VU+51E1
p13
sg4
VU+51E2
p14
ssI4
(dp15
g2
VU+90A6
p16
sg4
VU+3013
p17
ssI5
(dp18
g2
VU+5E6B
p19
sg4
VU+5E47
p20
ssI6
(dp21
g2
VU+670D
p22
sg4
VU+3013
p23
ssI7
(dp24
g2
VU+64AB
p25
sg4
VU+636C
p26
ssI8
(dp27
g2
VU+5C03
p28
sg4
VU+65C9
p29
ssI9
(dp30
g2
VU+92EA
p31
sg4
VU+8216
p32
ssI10
(dp33
g2
VU+535A
p34
sg4
VU+613D
p35
ssI11
(dp36
g2
VU+5C03
p37
sg4
VU+65C9
p38
ssI12
(dp39
g2
VU+5A66
p40
sg4
VU+5A8D
p41
ssI13
(dp42
g2
VU+634D
p43
sg4
VU+687F
p44
ssI14
(dp45
g2
VU+8D76
p46
sg4
VU+8D95
p47
ssI15
(dp48
g2
VU+9ED8
p49
sg4
VU+563F
p50
ssI16
(dp51
g2
VU+76CD
p52
sg4
VU+76C7
p53
ssI17
(dp54
g2
VU+58D1
p55
sg4
VU+3561
p56
ssI18
(dp57
g2
VU+202EB
p58
sg4
VU+5019
p59
ssI19
(dp60
g2
VU+6238
p61
sg4
VU+6236
p62
ssI20
(dp63
g2
VU+6238
p64
sg4
VU+6237
p65
ssI21
(dp66
g2
VU+8656
p67
sg4
VU+5611
p68
ssI22
(dp69
g2
VU+26251
p70
sg4
VU+28EF2
p71
ssI23
(dp72
g2
VU+8B41
p73
sg4
VU+5629
p74
ssI24
(dp75
g2
VU+756B
p76
sg4
VU+7575
p77
ssI25
(dp78
g2
VU+756B
p79
sg4
VU+753B
p80
ssI26
(dp81
g2
VU+532F
p82
sg4
VU+6ED9
p83
ssI27
(dp84
g2
VU+5DDF
p85
sg4
VU+3829
p86
ssI28
(dp87
g2
VU+8B0A
p88
sg4
VU+8A64
p89
ssI29
(dp90
g2
VU+9EC3
p91
sg4
VU+78FA
p92
ssI30
(dp93
g2
VU+56DE
p94
sg4
VU+56D8
p95
ssI31
(dp96
g2
VU+8FF4
p97
sg4
VU+5EFB
p98
ssI32
(dp99
g2
VU+6BC0
p100
sg4
VU+6BC1
p101
ssI33
(dp102
g2
VU+8B6D
p103
sg4
VU+46FC
p104
ssI34
(dp105
g2
VU+6141
p106
sg4
VU+3975
p107
ssI35
(dp108
g2
VU+57DF
p109
sg4
VU+3F63
p110
ssI36
(dp111
g2
VU+9109
p112
sg4
VU+9115
p113
ssI37
(dp114
g2
VU+5B5D
p115
sg4
VU+654E
p116
ssI38
(dp117
g2
VU+6559
p118
sg4
VU+75DA
p119
ssI39
(dp120
g2
VU+8105
p121
sg4
VU+8107
p122
ssI40
(dp123
g2
VU+6E1B
p124
sg4
VU+51CF
p125
ssI41
(dp126
g2
VU+929C
p127
sg4
VU+3605
p128
ssI42
(dp129
g2
VU+986F
p130
sg4
VU+3B0E
p131
ssI43
(dp132
g2
VU+5E70
p133
sg4
VU+39A5
p134
ssI44
(dp135
g2
VU+834A
p136
sg4
VU+8346
p137
ssI45
(dp138
g2
VU+81ED
p139
sg4
VU+55C5
p140
ssI46
(dp141
g2
VU+5147
p142
sg4
VU+80F8
p143
ssI47
(dp144
g2
VU+5910
p145
sg4
VU+657B
p146
ssI48
(dp147
g2
VU+8840
p148
sg4
VU+5379
p149
ssI49
(dp150
g2
VU+7A0A
p151
sg4
VU+413A
p152
ssI50
(dp153
g2
VU+66F3
p154
sg4
VU+62FD
p155
ssI51
(dp156
g2
VU+43CC
p157
sg4
VU+4F7E
p158
ssI52
(dp159
g2
VU+71B1
p160
sg4
VU+24360
p161
ssI53
(dp162
g2
VU+61FF
p163
sg4
VU+39A4
p164
ssI54
(dp165
g2
VU+4E59
p166
sg4
VU+200C9
p167
ssI55
(dp168
g2
VU+4E59
p169
sg4
VU+29F90
p170
ssI56
(dp171
g2
VU+7F95
p172
sg4
VU+6A23
p173
ssI57
(dp174
g2
VU+509C
p175
sg4
VU+5FAD
p176
ssI58
(dp177
g2
VU+9059
p178
sg4
VU+9065
p179
ssI59
(dp180
g2
VU+8D17
p181
sg4
VU+8D0B
p182
ssI60
(dp183
g2
VU+7559
p184
sg4
VU+7571
p185
ssI61
(dp186
g2
VU+6D8C
p187
sg4
VU+6E67
p188
ssI62
(dp189
g2
VU+803D
p190
sg4
VU+8EAD
p191
ssI63
(dp192
g2
VU+54C2
p193
sg4
VU+5432
p194
ssI64
(dp195
g2
VU+9670
p196
sg4
VU+4F8C
p197
ssI65
(dp198
g2
VU+24ED8
p199
sg4
VU+766E
p200
ssI66
(dp201
g2
VU+9DF9
p202
sg4
VU+49F9
p203
ssI67
(dp204
g2
VU+5B30
p205
sg4
VU+5B7E
p206
ssI68
(dp207
g2
VU+4C1F
p208
sg4
VU+9B42
p209
ssI69
(dp210
g2
VU+5303
p211
sg4
VU+4E10
p212
ssI70
(dp213
g2
VU+520A
p214
sg4
VU+520B
p215
ssI71
(dp216
g2
VU+7AFF
p217
sg4
VU+2353C
p218
ssI72
(dp219
g2
VU+78E1
p220
sg4
VU+5888
p221
ssI73
(dp222
g2
VU+6667
p223
sg4
VU+7693
p224
ssI74
(dp225
g2
VU+993B
p226
sg4
VU+7CD5
p227
ssI75
(dp228
g2
VU+768B
p229
sg4
VU+81EF
p230
ssI76
(dp231
g2
VU+66A4
p232
sg4
VU+769E
p233
ssI77
(dp234
g2
VU+6046
p235
sg4
VU+6052
p236
ssI78
(dp237
g2
VU+675E
p238
sg4
VU+233CC
p239
ssI79
(dp240
g2
VU+5983
p241
sg4
VU+216B1
p242
ssI80
(dp243
g2
VU+5F50
p244
sg4
VU+5F51
p245
ssI81
(dp246
g2
VU+5F50
p247
sg4
VU+3013
p248
ssI82
(dp249
g2
VU+66A8
p250
sg4
VU+66C1
p251
ssI83
(dp252
g2
VU+3BA3
p253
sg4
VU+69E9
p254
ssI84
(dp255
g2
VU+3BA3
p256
sg4
VU+69EA
p257
ssI85
(dp258
g2
VU+7E7C
p259
sg4
VU+386D
p260
ssI86
(dp261
g2
VU+5951
p262
sg4
VU+34DE
p263
ssI87
(dp264
g2
VU+555F
p265
sg4
VU+5553
p266
ssI88
(dp267
g2
VU+68CA
p268
sg4
VU+68CB
p269
ssI89
(dp270
g2
VU+9699
p271
sg4
VU+28EF6
p272
ssI90
(dp273
g2
VU+75C2
p274
sg4
VU+26672
p275
ssI91
(dp276
g2
VU+964D
p277
sg4
VU+21558
p278
ssI92
(dp279
g2
VU+8591
p280
sg4
VU+8441
p281
ssI93
(dp282
g2
VU+7F8C
p283
sg4
VU+7F97
p284
ssI94
(dp285
g2
VU+5F37
p286
sg4
VU+5F3A
p287
ssI95
(dp288
g2
VU+86DF
p289
sg4
VU+5CE7
p290
ssI96
(dp291
g2
VU+5951
p292
sg4
VU+34DE
p293
ssI97
(dp294
g2
VU+89E3
p295
sg4
VU+89E7
p296
ssI98
(dp297
g2
VU+934A
p298
sg4
VU+7149
p299
ssI99
(dp300
g2
VU+5EC9
p301
sg4
VU+4EB7
p302
ssI100
(dp303
g2
VU+9592
p304
sg4
VU+9593
p305
ssI101
(dp306
g2
VU+25CD1
p307
sg4
VU+7C21
p308
ssI102
(dp309
g2
VU+5E75
p310
sg4
VU+5F00
p311
ssI103
(dp312
g2
VU+598D
p313
sg4
VU+59F8
p314
ssI104
(dp315
g2
VU+7814
p316
sg4
VU+784F
p317
ssI105
(dp318
g2
VU+9834
p319
sg4
VU+7A4E
p320
ssI106
(dp321
g2
VU+53EB
p322
sg4
VU+544C
p323
ssI107
(dp324
g2
VU+67E9
p325
sg4
VU+531B
p326
ssI108
(dp327
g2
VU+97ED
p328
sg4
VU+97EE
p329
ssI109
(dp330
g2
VU+4E18
p331
sg4
VU+5775
p332
ssI110
(dp333
g2
VU+518B
p334
sg4
VU+5182
p335
ssI111
(dp336
g2
VU+7565
p337
sg4
VU+7567
p338
ssI112
(dp339
g2
VU+54E5
p340
sg4
VU+2A0FF
p341
ssI113
(dp342
g2
VU+524B
p343
sg4
VU+5C05
p344
ssI114
(dp345
g2
VU+5BC7
p346
sg4
VU+5BBC
p347
ssI115
(dp348
g2
VU+7F5F
p349
sg4
VU+2629F
p350
ssI116
(dp351
g2
VU+96C7
p352
sg4
VU+50F1
p353
ssI117
(dp354
g2
VU+9F13
p355
sg4
VU+9F14
p356
ssI118
(dp357
g2
VU+88B4
p358
sg4
VU+8932
p359
ssI119
(dp360
g2
VU+639B
p361
sg4
VU+8902
p362
ssI120
(dp363
g2
VU+518E
p364
sg4
VU+53E7
p365
ssI121
(dp366
g2
VU+592C
p367
sg4
VU+223B9
p368
ssI122
(dp369
g2
VU+6C7A
p370
sg4
VU+51B3
p371
ssI123
(dp372
g2
VU+5FEB
p373
sg4
VU+7B77
p374
ssI124
(dp375
g2
VU+5C4A
p376
sg4
VU+5C46
p377
ssI125
(dp378
g2
VU+95DC
p379
sg4
VU+28D7F
p380
ssI126
(dp381
g2
VU+7BA1
p382
sg4
VU+26710
p383
ssI127
(dp384
g2
VU+9928
p385
sg4
VU+8218
p386
ssI128
(dp387
g2
VU+704C
p388
sg4
VU+7F50
p389
ssI129
(dp390
g2
VU+5149
p391
sg4
VU+7097
p392
ssI130
(dp393
g2
VU+9EC3
p394
sg4
VU+9EC4
p395
ssI131
(dp396
g2
VU+8562
p397
sg4
VU+20010
p398
ssI132
(dp399
g2
VU+7F63
p400
sg4
VU+262B1
p401
ssI133
(dp402
g2
VU+9F9C
p403
sg4
VU+F908
p404
ssI134
(dp405
g2
VU+889E
p406
sg4
VU+886E
p407
ssI135
(dp408
g2
VU+53B6
p409
sg4
VU+53B7
p410
ssI136
(dp411
g2
VU+5DE9
p412
sg4
VU+2201C
p413
ssI137
(dp414
g2
VU+95A7
p415
sg4
VU+9B28
p416
ssI138
(dp417
g2
VU+53E5
p418
sg4
VU+52FE
p419
ssI139
(dp420
g2
VU+53E5
p421
sg4
VU+920E
p422
ssI140
(dp423
g2
VU+62D8
p424
sg4
VU+6285
p425
ssI141
(dp426
g2
VU+5F40
p427
sg4
VU+591F
p428
ssI142
(dp429
g2
VU+4F49
p430
sg4
VU+795B
p431
ssI143
(dp432
g2
VU+52AB
p433
sg4
VU+5227
p434
ssI144
(dp435
g2
VU+66F2
p436
sg4
VU+86D0
p437
ssI145
(dp438
g2
VU+9EB4
p439
sg4
VU+9EAF
p440
ssI146
(dp441
g2
VU+5377
p442
sg4
VU+20509
p443
ssI147
(dp444
g2
VU+5377
p445
sg4
VU+29707
p446
ssI148
(dp447
g2
VU+3C7F
p448
sg4
VU+6BBB
p449
ssI149
(dp450
g2
VU+3C7F
p451
sg4
VU+58F3
p452
ssI150
(dp453
g2
VU+88E0
p454
sg4
VU+88D9
p455
ssI151
(dp456
g2
VU+8FA2
p457
sg4
VU+8FA3
p458
ssI152
(dp459
g2
VU+95CC
p460
sg4
VU+49A8
p461
ssI153
(dp462
g2
VU+90CE
p463
sg4
VU+90DE
p464
ssI154
(dp465
g2
VU+7D2F
p466
sg4
VU+7E32
p467
ssI155
(dp468
g2
VU+8385
p469
sg4
VU+849E
p470
ssI156
(dp471
g2
VU+5229
p472
sg4
VU+25762
p473
ssI157
(dp474
g2
VU+5229
p475
sg4
VU+4FD0
p476
ssI158
(dp477
g2
VU+5169
p478
sg4
VU+8F1B
p479
ssI159
(dp480
g2
VU+71CE
p481
sg4
VU+5C1E
p482
ssI160
(dp483
g2
VU+57D2
p484
sg4
VU+57D3
p485
ssI161
(dp486
g2
VU+942E
p487
sg4
VU+4965
p488
ssI162
(dp489
g2
VU+7A1F
p490
sg4
VU+7980
p491
ssI163
(dp492
g2
VU+5EE9
p493
sg4
VU+5EEA
p494
ssI164
(dp495
g2
VU+51DC
p496
sg4
VU+6F9F
p497
ssI165
(dp498
g2
VU+9130
p499
sg4
VU+96A3
p500
ssI166
(dp501
g2
VU+4EE4
p502
sg4
VU+F9A8
p503
ssI167
(dp504
g2
VU+5DBA
p505
sg4
VU+F9AB
p506
ssI168
(dp507
g2
VU+6AFA
p508
sg4
VU+6B1E
p509
ssI169
(dp510
g2
VU+65D2
p511
sg4
VU+342C
p512
ssI170
(dp513
g2
VU+7559
p514
sg4
VU+7571
p515
ssI171
(dp516
g2
VU+843D
p517
sg4
VU+F918
p518
ssI172
(dp519
g2
VU+28E5F
p520
sg4
VU+3537
p521
ssI173
(dp522
g2
VU+28E5F
p523
sg4
VU+964B
p524
ssI174
(dp525
g2
VU+5BE0
p526
sg4
VU+7AB6
p527
ssI175
(dp528
g2
VU+865C
p529
sg4
VU+F930
p530
ssI176
(dp531
g2
VU+779E
p532
sg4
VU+7792
p533
ssI177
(dp534
g2
VU+8E63
p535
sg4
VU+8E52
p536
ssI178
(dp537
g2
VU+7707
p538
sg4
VU+7DF2
p539
ssI179
(dp540
g2
VU+9EAA
p541
sg4
VU+9EAB
p542
ssI180
(dp543
g2
VU+5E55
p544
sg4
VU+5E59
p545
ssI181
(dp546
g2
VU+59E5
p547
sg4
VU+5A12
p548
ssI182
(dp549
g2
VU+5B2D
p550
sg4
VU+5976
p551
ssI183
(dp552
g2
VU+8A25
p553
sg4
VU+5450
p554
ssI184
(dp555
g2
VU+573C
p556
sg4
VU+3013
p557
ssI185
(dp558
g2
VU+573C
p559
sg4
VU+3013
p560
ssI186
(dp561
g2
VU+573C
p562
sg4
VU+363F
p563
ssI187
(dp564
g2
VU+5B7C
p565
sg4
VU+5B7D
p566
ssI188
(dp567
g2
VU+5BCD
p568
sg4
VU+752F
p569
ssI189
(dp570
g2
VU+5BCD
p571
sg4
VU+5BDC
p572
ssI190
(dp573
g2
VU+5BCD
p574
sg4
VU+5BD5
p575
ssI191
(dp576
g2
VU+5384
p577
sg4
VU+9628
p578
ssI192
(dp579
g2
VU+5384
p580
sg4
VU+627C
p581
ssI193
(dp582
g2
VU+5384
p583
sg4
VU+8EDB
p584
ssI194
(dp585
g2
VU+8AE4
p586
sg4
VU+8B8D
p587
ssI195
(dp588
g2
VU+8FEB
p589
sg4
VU+5EF9
p590
ssI196
(dp591
g2
VU+67CF
p592
sg4
VU+6822
p593
ssI197
(dp594
g2
VU+822C
p595
sg4
VU+642C
p596
ssI198
(dp597
g2
VU+791F
p598
sg4
VU+7832
p599
ssI199
(dp600
g2
VU+5099
p601
sg4
VU+5079
p602
ssI200
(dp603
g2
VU+576F
p604
sg4
VU+574F
p605
ssI201
(dp606
g2
VU+5954
p607
sg4
VU+9029
p608
ssI202
(dp609
g2
VU+7E43
p610
sg4
VU+7DB3
p611
ssI203
(dp612
g2
VU+6BD7
p613
sg4
VU+6BD8
p614
ssI204
(dp615
g2
VU+7955
p616
sg4
VU+79D8
p617
ssI205
(dp618
g2
VU+655D
p619
sg4
VU+5F0A
p620
ssI206
(dp621
g2
VU+9F08
p622
sg4
VU+9C49
p623
ssI207
(dp624
g2
VU+62DA
p625
sg4
VU+62E4
p626
ssI208
(dp627
g2
VU+8FA8
p628
sg4
VU+8FA7
p629
ssI209
(dp630
g2
VU+8CD4
p631
sg4
VU+8CD3
p632
ssI210
(dp633
g2
VU+7015
p634
sg4
VU+6FF1
p635
ssI211
(dp636
g2
VU+5E77
p637
sg4
VU+5002
p638
ssI212
(dp639
g2
VU+792E
p640
sg4
VU+791F
p641
ssI213
(dp642
g2
VU+6534
p643
sg4
VU+6535
p644
ssI214
(dp645
g2
VU+4E09
p646
sg4
VU+53C2
p647
ssI215
(dp648
g2
VU+6851
p649
sg4
VU+55D3
p650
ssI216
(dp651
g2
VU+585E
p652
sg4
VU+F96C
p653
ssI217
(dp654
g2
VU+585E
p655
sg4
VU+21A04
p656
ssI218
(dp657
g2
VU+7699
p658
sg4
VU+6670
p659
ssI219
(dp660
g2
VU+7A1A
p661
sg4
VU+7A49
p662
ssI220
(dp663
g2
VU+9D72
p664
sg4
VU+8203
p665
ssI221
(dp666
g2
VU+6930
p667
sg4
VU+3B68
p668
ssI222
(dp669
g2
VU+7F9E
p670
sg4
VU+9948
p671
ssI223
(dp672
g2
VU+984B
p673
sg4
VU+816E
p674
ssI224
(dp675
g2
VU+5EDD
p676
sg4
VU+53AE
p677
ssI225
(dp678
g2
VU+7BE9
p679
sg4
VU+7C1B
p680
ssI226
(dp681
g2
VU+53DF
p682
sg4
VU+5081
p683
ssI227
(dp684
g2
VU+635C
p685
sg4
VU+5ECB
p686
ssI228
(dp687
g2
VU+595E
p688
sg4
VU+369D
p689
ssI229
(dp690
g2
VU+6E96
p691
sg4
VU+51D6
p692
ssI230
(dp693
g2
VU+58FB
p694
sg4
VU+5A7F
p695
ssI231
(dp696
g2
VU+65CB
p697
sg4
VU+6F29
p698
ssI232
(dp699
g2
VU+93C7
p700
sg4
VU+29636
p701
ssI233
(dp702
g2
VU+6247
p703
sg4
VU+6427
p704
ssI234
(dp705
g2
VU+5546
p706
sg4
VU+8B2A
p707
ssI235
(dp708
g2
VU+6DF1
p709
sg4
VU+7F59
p710
ssI236
(dp711
g2
VU+9752
p712
sg4
VU+9751
p713
ssI237
(dp714
g2
VU+9435
p715
sg4
VU+9244
p716
ssI238
(dp717
g2
VU+8996
p718
sg4
VU+2655D
p719
ssI239
(dp720
g2
VU+4E17
p721
sg4
VU+4E16
p722
ssI240
(dp723
g2
VU+5F12
p724
sg4
VU+5F11
p725
ssI241
(dp726
g2
VU+8761
p727
sg4
VU+8815
p728
ssI242
(dp729
g2
VU+854A
p730
sg4
VU+854B
p731
ssI243
(dp732
g2
VU+4B7E
p733
sg4
VU+99B1
p734
ssI244
(dp735
g2
VU+64BB
p736
sg4
VU+97C3
p737
ssI245
(dp738
g2
VU+6B7A
p739
sg4
VU+6B79
p740
ssI246
(dp741
g2
VU+5E36
p742
sg4
VU+5E26
p743
ssI247
(dp744
g2
VU+60EA
p745
sg4
VU+5FB3
p746
ssI248
(dp747
g2
VU+51F3
p748
sg4
VU+6AC8
p749
ssI249
(dp750
g2
VU+85E4
p751
sg4
VU+7C58
p752
ssI250
(dp753
g2
VU+5F14
p754
sg4
VU+540A
p755
ssI251
(dp756
g2
VU+3B2A
p757
sg4
VU+758A
p758
ssI252
(dp759
g2
VU+985B
p760
sg4
VU+5DD3
p761
ssI253
(dp762
g2
VU+9640
p763
sg4
VU+9641
p764
ssI254
(dp765
g2
VU+6A50
p766
sg4
VU+69D6
p767
ssI255
(dp768
g2
VU+99B2
p769
sg4
VU+9A5D
p770
ssI256
(dp771
g2
VU+8799
p772
sg4
VU+8827
p773
ssI257
(dp774
g2
VU+9B25
p775
sg4
VU+9B2A
p776
ssI258
(dp777
g2
VU+9B25
p778
sg4
VU+9B2D
p779
ssI259
(dp780
g2
VU+982D
p781
sg4
VU+4EA0
p782
ssI260
(dp783
g2
VU+5E00
p784
sg4
VU+531D
p785
ssI261
(dp786
g2
VU+22992
p787
sg4
VU+2298F
p788
ssI262
(dp789
g2
VU+8C7A
p790
sg4
VU+72B2
p791
ssI263
(dp792
g2
VU+8CDB
p793
sg4
VU+8D0A
p794
ssI264
(dp795
g2
VU+6F5B
p796
sg4
VU+6F5C
p797
ssI265
(dp798
g2
VU+5003
p799
sg4
VU+5592
p800
ssI266
(dp801
g2
VU+53C3
p802
sg4
VU+53C2
p803
ssI267
(dp804
g2
VU+81E7
p805
sg4
VU+81DF
p806
ssI268
(dp807
g2
VU+6414
p808
sg4
VU+63BB
p809
ssI269
(dp810
g2
VU+9A37
p811
sg4
VU+9A12
p812
ssI270
(dp813
g2
VU+7681
p814
sg4
VU+7682
p815
ssI271
(dp816
g2
VU+5608
p817
sg4
VU+470A
p818
ssI272
(dp819
g2
VU+5EC1
p820
sg4
VU+53A0
p821
ssI273
(dp822
g2
VU+537D
p823
sg4
VU+768D
p824
ssI274
(dp825
g2
VU+84BA
p826
sg4
VU+26DB1
p827
ssI275
(dp828
g2
VU+96C6
p829
sg4
VU+4EBC
p830
ssI276
(dp831
g2
VU+96DC
p832
sg4
VU+96D1
p833
ssI277
(dp834
g2
VU+734E
p835
sg4
VU+596C
p836
ssI278
(dp837
g2
VU+69F3
p838
sg4
VU+42A2
p839
ssI279
(dp840
g2
VU+67E5
p841
sg4
VU+67FB
p842
ssI280
(dp843
g2
VU+97F1
p844
sg4
VU+97EF
p845
ssI281
(dp846
g2
VU+97F1
p847
sg4
VU+22A06
p848
ssI282
(dp849
g2
VU+5C16
p850
sg4
VU+39B0
p851
ssI283
(dp852
g2
VU+7C64
p853
sg4
VU+471F
p854
ssI284
(dp855
g2
VU+7C64
p856
sg4
VU+7C3D
p857
ssI285
(dp858
g2
VU+5333
p859
sg4
VU+5969
p860
ssI286
(dp861
g2
VU+6649
p862
sg4
VU+664B
p863
ssI287
(dp864
g2
VU+76E1
p865
sg4
VU+5118
p866
ssI288
(dp867
g2
VU+4FB5
p868
sg4
VU+20B36
p869
ssI289
(dp870
g2
VU+4E3C
p871
sg4
VU+4E95
p872
ssI290
(dp873
g2
VU+7A7D
p874
sg4
VU+9631
p875
ssI291
(dp876
g2
VU+9752
p877
sg4
VU+9751
p878
ssI292
(dp879
g2
VU+6E05
p880
sg4
VU+6DF8
p881
ssI293
(dp882
g2
VU+FA1D
p883
sg4
VU+FA1D
p884
ssI294
(dp885
g2
VU+5179
p886
sg4
VU+8332
p887
ssI295
(dp888
g2
VU+74F7
p889
sg4
VU+78C1
p890
ssI296
(dp891
g2
VU+6E4A
p892
sg4
VU+51D1
p893
ssI297
(dp894
g2
VU+89DC
p895
sg4
VU+5634
p896
ssI298
(dp897
g2
VU+6936
p898
sg4
VU+68D5
p899
ssI299
(dp900
g2
VU+9A23
p901
sg4
VU+9A0C
p902
ssI300
(dp903
g2
VU+60A4
p904
sg4
VU+60A4
p905
ssI301
(dp906
g2
VU+8066
p907
sg4
VU+8070
p908
ssI302
(dp909
g2
VU+7DE3
p910
sg4
VU+7E01
p911
ssI303
(dp912
g2
VU+68B2
p913
sg4
VU+68C1
p914
ssI304
(dp915
g2
VU+58A9
p916
sg4
VU+58AA
p917
ssI305
(dp918
g2
VU+524E
p919
sg4
VU+5239
p920
ssI306
(dp921
g2
VU+67E5
p922
sg4
VU+67FB
p923
ssI307
(dp924
g2
VU+69A8
p925
sg4
VU+91A1
p926
ssI308
(dp927
g2
VU+5E33
p928
sg4
VU+8CEC
p929
ssI309
(dp930
g2
VU+5021
p931
sg4
VU+5A3C
p932
ssI310
(dp933
g2
VU+52E6
p934
sg4
VU+527F
p935
ssI311
(dp936
g2
VU+716E
p937
sg4
VU+7151
p938
ssI312
(dp939
g2
VU+8457
p940
sg4
VU+7740
p941
ssI313
(dp942
g2
VU+7DD2
p943
sg4
VU+7DD6
p944
ssI314
(dp945
g2
VU+771F
p946
sg4
VU+771E
p947
ssI315
(dp948
g2
VU+699B
p949
sg4
VU+4EB2
p950
ssI316
(dp951
g2
VU+5F81
p952
sg4
VU+2231B
p953
ssI317
(dp954
g2
VU+4E57
p955
sg4
VU+4E58
p956
ssI318
(dp957
g2
VU+5269
p958
sg4
VU+5270
p959
ssI319
(dp960
g2
VU+725A
p961
sg4
VU+6490
p962
ssI320
(dp963
g2
VU+6065
p964
sg4
VU+803B
p965
ssI321
(dp966
g2
VU+503C
p967
sg4
VU+5024
p968
ssI322
(dp969
g2
VU+5668
p970
sg4
VU+5650
p971
ssI323
(dp972
g2
VU+7590
p973
sg4
VU+24D21
p974
ssI324
(dp975
g2
VU+577C
p976
sg4
VU+62C6
p977
ssI325
(dp978
g2
VU+5468
p979
sg4
VU+9031
p980
ssI326
(dp981
g2
VU+5F6B
p982
sg4
VU+34EE
p983
ssI327
(dp984
g2
VU+8B8E
p985
sg4
VU+8B90
p986
ssI328
(dp987
g2
VU+4E3B
p988
sg4
VU+2562D
p989
ssI329
(dp990
g2
VU+8655
p991
sg4
VU+51E6
p992
ssI330
(dp993
g2
VU+82BB
p994
sg4
VU+84AD
p995
ssI331
(dp996
g2
VU+750E
p997
sg4
VU+78DA
p998
ssI332
(dp999
g2
VU+5DE1
p1000
sg4
VU+5EF5
p1001
ssI333
(dp1002
g2
VU+599D
p1003
sg4
VU+7CA7
p1004
ssI334
(dp1005
g2
VU+56EA
p1006
sg4
VU+56F1
p1007
ssI335
(dp1008
g2
VU+41AB
p1009
sg4
VU+7A97
p1010
ssI336
(dp1011
g2
VU+6031
p1012
sg4
VU+60A4
p1013
ssI337
(dp1014
g2
VU+5782
p1015
sg4
VU+57C0
p1016
ssI338
(dp1017
g2
VU+6C96
p1018
sg4
VU+51B2
p1019
ssI339
(dp1020
g2
VU+543B
p1021
sg4
VU+80B3
p1022
ssI340
(dp1023
g2
VU+5C23
p1024
sg4
VU+5C22
p1025
ssI341
(dp1026
g2
VU+4EA1
p1027
sg4
VU+5166
p1028
ssI342
(dp1029
g2
VU+8771
p1030
sg4
VU+27249
p1031
ssI343
(dp1032
g2
VU+885E
p1033
sg4
VU+885B
p1034
ssI344
(dp1035
g2
VU+25055
p1036
sg4
VU+6637
p1037
ssI345
(dp1038
g2
VU+6EAB
p1039
sg4
VU+6E29
p1040
ssI346
(dp1041
g2
VU+4E8E
p1042
sg4
VU+4E8F
p1043
ssI347
(dp1044
g2
VU+6C59
p1045
sg4
VU+6C5A
p1046
ssI348
(dp1047
g2
VU+6558
p1048
sg4
VU+53D9
p1049
ssI349
(dp1050
g2
VU+4FDE
p1051
sg4
VU+516A
p1052
ssI350
(dp1053
g2
VU+55BB
p1054
sg4
VU+55A9
p1055
ssI351
(dp1056
g2
VU+6900
p1057
sg4
VU+7897
p1058
ssI352
(dp1059
g2
VU+5713
p1060
sg4
VU+54E1
p1061
ss.