(dp0
V189 he 4
p1
(dp2
Vat
p3
(dp4
S'front'
p5
Vwjet
p6
sS'type'
p7
g5
sS'height'
p8
S'low'
p9
sssV189 he 3
p10
(dp11
g3
(dp12
g5
Vw(r)jet
p13
sS'plain'
p14
Vw(r)jat
p15
sg7
g14
sS'rounded'
p16
Vw(r)jot
p17
sg8
g9
sssV189 he 2
p18
(dp19
g3
(dp20
g5
Vwrjet
p21
sg14
Vwrjat
p22
sg7
g14
sg16
Vwrjot
p23
sg8
g9
sssV13 he 2
p24
(dp25
Ve
p26
(dp27
g5
Vwre
p28
sg7
g5
sg8
g9
sssV147 kai 4
p29
(dp30
Vawk
p31
(dp32
g5
Vjewks
p33
sg7
g5
sg8
g9
ssVaw
p34
(dp35
g5
Vjews
p36
sg7
g5
sg8
g9
sssV147 kai 3
p37
(dp38
g31
(dp39
g5
V(r)jewks
p40
sg14
V(r)jawks
p41
sg7
g14
sg16
V(r)jowks
p42
sg8
g9
ssg34
(dp43
g5
V(r)jews
p44
sg14
V(r)jaws
p45
sg7
g14
sg16
V(r)jows
p46
sg8
g9
sssV165 kai 1
p47
(dp48
V\u0268m
p49
(dp50
g5
Vims
p51
sg14
V\u0268ms
p52
sg7
g14
sg16
Vums
p53
sg8
S'high'
p54
sssV114 kai 1
p55
(dp56
Vung
p57
(dp58
g7
g16
sg16
Vungs
p59
sg8
g54
sssV206 he 3
p60
(dp61
Vap
p62
(dp63
g5
Vjwep
p64
sg14
Vjwap
p65
sg7
g14
sg16
Vjwop
p66
sg8
g9
sssV193 he 2
p67
(dp68
V\u0268k
p69
(dp70
g5
Vwrik
p71
sg14
Vwr\u0268k
p72
sg7
g14
sg16
Vwruk
p73
sg8
g54
ssVak
p74
(dp75
g5
Vwrek
p76
sg7
g5
sg8
g9
ssVek
p77
(dp78
g5
Vwrek
p79
sg7
g5
sg8
g9
sssV176 kai 2
p80
(dp81
Vawk
p82
(dp83
g5
Vrewk
p84
sg14
Vrawk
p85
sg7
g14
sg16
Vrowk
p86
sg8
g9
ssVok
p87
(dp88
g7
g16
sg16
Vrok
p89
sg8
g9
ssVuk
p90
(dp91
g7
g16
sg16
Vruk
p92
sg8
g54
sssV36 he 1
p93
(dp94
Vaj
p95
(dp96
g5
Vwej
p97
sg14
Vwaj
p98
sg7
g14
sg16
Vwoj
p99
sg8
g9
sssV52 kai 3
p100
(dp101
Vam
p102
(dp103
g5
V(r)jem
p104
sg7
g5
sg8
g9
sssV52 kai 4
p105
(dp106
g102
(dp107
g5
Vjem
p108
sg7
g5
sg8
g9
sssV68 he 4
p109
(dp110
V\u0268j
p111
(dp112
g5
Vwij\u0294
p113
sg14
Vw\u0268j\u0294
p114
sg7
g14
sg16
Vwuj\u0294
p115
sg8
g54
ssVij
p116
(dp117
g5
Vwij\u0294
p118
sg7
g5
sg8
g54
ssg26
(dp119
g5
Vwe\u0294
p120
sg7
g5
sg8
g9
sssV32 kai 3
p121
(dp122
g34
(dp123
g5
V(r)jew
p124
sg14
V(r)jaw
p125
sg7
g14
sg16
V(r)jow
p126
sg8
g9
sssV58 kai 1
p127
(dp128
Vong
p129
(dp130
g7
g16
sg16
Vong\u0294
p131
sg8
g9
ssV\u0268m
p132
(dp133
S'none'
p134
V-\u0294
p135
sg7
g134
sg8
g134
sssV156 kai 2
p136
(dp137
Vet
p138
(dp139
g5
Vrets
p140
sg7
g5
sg8
g9
ssV\u0268ng
p141
(dp142
g5
Vrings
p143
sg14
Vr\u0268ngs
p144
sg7
g14
sg16
Vrungs
p145
sg8
g54
ssVeng
p146
(dp147
g5
Vrengs
p148
sg7
g5
sg8
g9
sssV155 kai 4
p149
(dp150
Vang
p151
(dp152
g5
Vrjengs
p153
sg14
Vrjangs
p154
sg7
g14
sg16
Vrjongs
p155
sg8
g9
ssVeng
p156
(dp157
g5
Vjengs
p158
sg7
g5
sg8
g9
sssV5 kai 3
p159
(dp160
Vaj
p161
(dp162
g5
V(r)jej
p163
sg14
V(r)jaj
p164
sg7
g14
sg16
V(r)joj
p165
sg8
g9
ssg26
(dp166
g5
V(r)je
p167
sg7
g5
sg8
g9
sssV5 kai 2
p168
(dp169
g161
(dp170
g5
Vrjej
p171
sg14
Vrjaj
p172
sg7
g14
sg16
Vrjoj
p173
sg8
g9
ssg26
(dp174
g5
Vrje
p175
sg7
g5
sg8
g9
sssV125 he 4
p176
(dp177
Vap
p178
(dp179
g5
Vwjeps
p180
sg7
g5
sg8
g9
ssVat
p181
(dp182
g5
Vwjets
p183
sg7
g5
sg8
g9
sssV125 he 3
p184
(dp185
g178
(dp186
g5
Vw(r)jeps
p187
sg14
Vw(r)japs
p188
sg7
g14
sg16
Vw(r)jops
p189
sg8
g9
ssg181
(dp190
g5
Vw(r)jets
p191
sg14
Vw(r)jats
p192
sg7
g14
sg16
Vw(r)jots
p193
sg8
g9
sssV125 he 1
p194
(dp195
g178
(dp196
g134
V-s
p197
sg7
g134
sg8
g134
sssV190 kai 2
p198
(dp199
Vak
p200
(dp201
g5
Vjek
p202
sg14
Vjak
p203
sg7
g14
sg16
Vjok
p204
sg8
g9
sssV190 kai 3
p205
(dp206
g200
(dp207
g5
Vjek
p208
sg14
Vjak
p209
sg7
g14
sg16
Vjok
p210
sg8
g9
ssVawk
p211
(dp212
g5
V(r)jewk
p213
sg14
V(r)jawk
p214
sg7
g14
sg16
V(r)jowk
p215
sg8
g9
sssV146 kai 1
p216
(dp217
Vawk
p218
(dp219
ssV156 he 2
p220
(dp221
g138
(dp222
g5
Vwrets
p223
sg7
g5
sg8
g9
ssg141
(dp224
g5
Vwrings
p225
sg14
Vwr\u0268ngs
p226
sg7
g14
sg16
Vwrungs
p227
sg8
g54
ssg146
(dp228
g5
Vwrengs
p229
sg7
g5
sg8
g9
sssV190 kai 4
p230
(dp231
g200
(dp232
g5
Vjek
p233
sg14
Vjak
p234
sg7
g14
sg16
Vjok
p235
sg8
g9
ssg211
(dp236
g5
Vjewk
p237
sg14
Vjawk
p238
sg7
g14
sg16
Vjowk
p239
sg8
g9
sssV146 kai 4
p240
(dp241
g218
(dp242
g5
Vewks
p243
sg7
g5
sg8
g9
ssVu
p244
(dp245
g5
Viws
p246
sg7
g5
sg8
g54
ssVaw
p247
(dp248
g5
Vews
p249
sg7
g5
sg8
g9
ssVuk
p250
(dp251
g5
Viwks
p252
sg7
g5
sg8
g54
sssV94 kai 1
p253
(dp254
Vang
p255
(dp256
g5
Veng\u0294
p257
sg14
Vang\u0294
p258
sg7
g14
sg16
Vong\u0294
p259
sg8
g9
sssV27 kai 1
p260
(dp261
Van
p262
(dp263
g134
V-
p264
sg7
g134
sg8
g134
sssV27 kai 2
p265
(dp266
g262
(dp267
g5
Vren
p268
sg14
Vran
p269
sg7
g14
sg16
Vron
p270
sg8
g9
sssV130 he 1
p271
(dp272
V\u0268j
p273
(dp274
g5
Vwijs
p275
sg14
Vw\u0268js
p276
sg7
g14
sg16
Vwujs
p277
sg8
g54
ssV\u0268
p278
(dp279
g5
Vwis
p280
sg14
Vw\u0268s
p281
sg7
g14
sg16
Vwus
p282
sg8
g54
ssV\u0268p
p283
(dp284
g5
Vwips
p285
sg14
Vw\u0268ps
p286
sg7
g14
sg16
Vwups
p287
sg8
g54
ssV\u0268t
p288
(dp289
g5
Vwits
p290
sg14
Vw\u0268ts
p291
sg7
g14
sg16
Vwuts
p292
sg8
g54
ssV\u0268k
p293
(dp294
g5
Vwiks
p295
sg14
Vw\u0268ks
p296
sg7
g14
sg16
Vwuks
p297
sg8
g54
sssV104 kai 1
p298
(dp299
Vim
p300
(dp301
g134
V- \u0294
p302
sg7
g134
sg8
g134
sssV135 he 3
p303
(dp304
V\u0268n
p305
(dp306
g7
g16
sg16
Vjuns
p307
sg8
g54
sssV104 kai 3
p308
(dp309
g300
(dp310
g5
V(r)jim\u0294
p311
sg14
V(r)j\u0268m\u0294
p312
sg7
g14
sg16
V(r)jum\u0294
p313
sg8
g54
sssV104 kai 2
p314
(dp315
g300
(dp316
g5
Vrjim\u0294
p317
sg14
Vrj\u0268m\u0294
p318
sg7
g14
sg16
Vrjum\u0294
p319
sg8
g54
sssV104 kai 4
p320
(dp321
g300
(dp322
g5
Vjim\u0294
p323
sg7
g5
sg8
g54
sssV198 kai 2
p324
(dp325
V\u0268p
p326
(dp327
g5
Vrjip
p328
sg14
Vrj\u0268p
p329
sg7
g14
sg16
Vrjup
p330
sg8
g54
sssV198 kai 3
p331
(dp332
g326
(dp333
g5
V(r)jip
p334
sg14
V(r)j\u0268p
p335
sg7
g14
sg16
V(r)jup
p336
sg8
g54
sssV75 kai 3
p337
(dp338
g305
(dp339
g5
Vi\u032f\u01ddn\u0294
p340
sg7
g5
sg8
g54
sssV198 kai 1
p341
(dp342
g326
(dp343
g134
g264
sg7
g134
sg8
g134
sssV22 he 3
p344
(dp345
Van
p346
(dp347
g5
Vwjen
p348
sg14
Vwjan
p349
sg7
g14
sg16
Vwjon
p350
sg8
g9
sssV198 kai 4
p351
(dp352
g326
(dp353
g5
Vjip
p354
sg7
g5
sg8
g54
sssV16 kai 1
p355
(dp356
V\u0268j
p357
(dp358
g5
Vij
p359
sg14
V\u0268j
p360
sg7
g14
sg16
Vuj
p361
sg8
g54
ssV\u0268
p362
(dp363
g5
Vi
p364
sg14
V\u0268
p365
sg7
g14
sg16
Vu
p366
sg8
g54
sssV16 kai 3
p367
(dp368
g357
(dp369
g5
Vij
p370
sg14
V\u0268j
p371
sg7
g14
sg16
Vuj
p372
sg8
g54
sssV16 kai 4
p373
(dp374
g362
(dp375
g5
Vi
p376
sg14
V\u0268
p377
sg7
g14
sg16
Vu
p378
sg8
g54
sssV50 kai 1
p379
(dp380
g49
(dp381
g5
Vim
p382
sg14
V\u0268m
p383
sg7
g14
sg16
Vum
p384
sg8
g54
sssV80 kai 1
p385
(dp386
Van
p387
(dp388
g5
Ven\u0294
p389
sg14
Van\u0294
p390
sg7
g14
sg16
Von\u0294
p391
sg8
g9
sssV45 kai 1
p392
(dp393
V\u0268ng
p394
(dp395
g5
Ving
p396
sg14
V\u0268ng
p397
sg7
g14
sg16
Vung
p398
sg8
g54
sssV112 he 3
p399
(dp400
Vam
p401
(dp402
g5
Vwjem\u0294
p403
sg14
Vwjam\u0294
p404
sg7
g14
sg16
Vwjom\u0294
p405
sg8
g9
sssV125 kai 2
p406
(dp407
g178
(dp408
g134
V-s
p409
sg7
g134
sg8
g134
sssV125 kai 3
p410
(dp411
g178
(dp412
g5
V(r)jeps
p413
sg14
V(r)japs
p414
sg7
g14
sg16
V(r)jops
p415
sg8
g9
ssg181
(dp416
g5
V(r)jets
p417
sg14
V(r)jats
p418
sg7
g14
sg16
V(r)jots
p419
sg8
g9
sssV157 kai 3
p420
(dp421
Veng
p422
(dp423
g5
Vjengs
p424
sg7
g5
sg8
g9
sssV3 kai 1
p425
(dp426
Vong
p427
(dp428
g134
g264
sg7
g134
sg8
g134
sssV157 kai 4
p429
(dp430
g422
(dp431
g5
Vengs
p432
sg7
g5
sg8
g9
sssV82 he 2
p433
(dp434
g262
(dp435
g5
Vwren\u0294
p436
sg14
Vwran\u0294
p437
sg7
g14
sg16
Vwron\u0294
p438
sg8
g9
sssV88 kai 2
p439
(dp440
g244
(dp441
g7
g16
sg16
Vru\u0294
p442
sg8
g54
ssVaw
p443
(dp444
g5
Vrew\u0294
p445
sg14
Vraw\u0294
p446
sg7
g14
sg16
Vrow\u0294
p447
sg8
g9
sssV55 kai 2
p448
(dp449
Vam
p450
(dp451
g5
Vrem
p452
sg14
Vram
p453
sg7
g14
sg16
Vrom
p454
sg8
g9
sssV177 he 4
p455
(dp456
Vit
p457
(dp458
g5
Vwjit
p459
sg7
g5
sg8
g54
ssV\u0268t
p460
(dp461
g5
Vwjit
p462
sg7
g5
sg8
g54
sssV177 he 2
p463
(dp464
g460
(dp465
g5
Vwrjit
p466
sg14
Vwrj\u0268t
p467
sg7
g14
sg16
Vwrjut
p468
sg8
g54
sssV177 he 3
p469
(dp470
g457
(dp471
g5
V[wrjit]
p472
sg7
g5
sg8
g54
sssV21 kai 3
p473
(dp474
V\u0268n
p475
(dp476
g5
Vjin
p477
sg14
Vj\u0268n
p478
sg7
g14
sg16
Vjun
p479
sg8
g54
sssV126 kai 1
p480
(dp481
Vap
p482
(dp483
g5
Veps
p484
sg14
Vaps
p485
sg7
g14
sg16
Vops
p486
sg8
g9
ssVat
p487
(dp488
g5
Vets
p489
sg14
Vats
p490
sg7
g14
sg16
Vots
p491
sg8
g9
sssV59 kai 1
p492
(dp493
g427
(dp494
g134
V-\u0294
p495
sg7
g134
sg8
g134
sssV59 kai 4
p496
(dp497
g427
(dp498
g134
V-\u0294
p499
sg7
g134
sg8
g134
sssV42 kai 3
p500
(dp501
g422
(dp502
g5
Vjeng
p503
sg7
g5
sg8
g9
sssV89 kai 1
p504
(dp505
g244
(dp506
g7
g16
sg16
Vu\u0294
p507
sg8
g54
ssVaw
p508
(dp509
g5
Vew\u0294
p510
sg14
Vaw\u0294
p511
sg7
g14
sg16
Vow\u0294
p512
sg8
g9
sssV42 kai 4
p513
(dp514
g422
(dp515
g5
Veng
p516
sg7
g5
sg8
g9
sssV197 kai 1
p517
(dp518
V\u0268k
p519
(dp520
g5
Vik
p521
sg14
V\u0268k
p522
sg7
g14
sg16
Vuk
p523
sg8
g54
sssV160 he 1
p524
(dp525
g394
(dp526
g5
Vwings
p527
sg14
Vw\u0268ngs
p528
sg7
g14
sg16
Vwungs
p529
sg8
g54
sssV86 kai 4
p530
(dp531
g244
(dp532
g5
Viw\u0294
p533
sg7
g5
sg8
g54
ssg247
(dp534
g5
Vew\u0294
p535
sg7
g5
sg8
g9
sssV188 he 4
p536
(dp537
Vat
p538
(dp539
g5
Vwet
p540
sg7
g5
sg8
g9
ssV\u0268t
p541
(dp542
g5
Vwit
p543
sg14
Vw\u0268t
p544
sg7
g14
sg16
Vwut
p545
sg8
g54
ssVit
p546
(dp547
g5
Vwit
p548
sg7
g5
sg8
g54
sssV119 kai 4
p549
(dp550
V\u0268
p551
(dp552
g5
Vjis
p553
sg14
Vj\u0268s
p554
sg7
g14
sg16
Vjus
p555
sg8
g54
ssV\u0268k
p556
(dp557
g5
Vjiks
p558
sg14
Vj\u0268ks
p559
sg7
g14
sg16
Vjuks
p560
sg8
g54
sssV119 kai 3
p561
(dp562
g551
(dp563
g5
V(r)jis
p564
sg14
V(r)j\u0268s
p565
sg7
g14
sg16
V(r)jus
p566
sg8
g54
ssg556
(dp567
g5
V(r)jiks
p568
sg14
V(r)j\u0268ks
p569
sg7
g14
sg16
V(r)juks
p570
sg8
g54
sssV119 kai 2
p571
(dp572
g551
(dp573
g5
Vrjis
p574
sg14
Vrj\u0268s
p575
sg7
g14
sg16
Vrjus
p576
sg8
g54
ssg556
(dp577
g5
Vrjiks
p578
sg14
Vrj\u0268ks
p579
sg7
g14
sg16
Vrjuks
p580
sg8
g54
sssV69 he 2
p581
(dp582
g26
(dp583
g5
Vwre\u0294
p584
sg7
g5
sg8
g9
sssV10 he 3
p585
(dp586
Va
p587
(dp588
g5
Vw(r)je
p589
sg14
Vw(r)ja
p590
sg7
g14
sg16
Vw(r)jo
p591
sg8
g9
ssVo
p592
(dp593
g7
g16
sg16
V(r)jo
p594
sg8
g9
sssV10 he 2
p595
(dp596
g587
(dp597
g5
Vw(r)je
p598
sg14
Vw(r)ja
p599
sg7
g14
sg16
Vw(r)jo
p600
sg8
g9
ssg592
(dp601
g7
g16
sg16
Vrjo
p602
sg8
g9
sssV13 kai 2
p603
(dp604
g26
(dp605
g5
Vre
p606
sg7
g5
sg8
g9
sssV123 he 1
p607
(dp608
g587
(dp609
g5
Ves
p610
sg14
Vas
p611
sg7
g14
sg16
Vos
p612
sg8
g9
sssV10 he 4
p613
(dp614
g587
(dp615
g5
Vw(r)je
p616
sg14
Vw(r)ja
p617
sg7
g14
sg16
Vw(r)jo
p618
sg8
g9
ssg592
(dp619
g7
g16
sg16
Vjo
p620
sg8
g9
sssV189 kai 3
p621
(dp622
g3
(dp623
g5
V(r)jet
p624
sg14
V(r)jat
p625
sg7
g14
sg16
V(r)jot
p626
sg8
g9
sssV189 kai 4
p627
(dp628
g3
(dp629
g5
Vjet
p630
sg7
g5
sg8
g9
sssV199 kai 2
p631
(dp632
V\u0268p
p633
(dp634
g5
Vip
p635
sg14
V\u0268p
p636
sg7
g14
sg16
Vup
p637
sg8
g54
sssV199 kai 1
p638
(dp639
g633
(dp640
g5
Vip
p641
sg14
V\u0268p
p642
sg7
g14
sg16
Vup
p643
sg8
g54
sssV150 kai 1
p644
(dp645
Vaj
p646
(dp647
g5
Vejs
p648
sg14
Vajs
p649
sg7
g14
sg16
Vojs
p650
sg8
g9
sssV17 he 3
p651
(dp652
V\u0268n
p653
(dp654
g7
g16
sg16
Vrjun
p655
sg8
g54
ssVin
p656
(dp657
g5
Vwrjin
p658
sg7
g5
sg8
g54
sssV149 kai 1
p659
(dp660
g244
(dp661
g7
g16
sg16
Vus
p662
sg8
g54
ssg508
(dp663
g5
Vews
p664
sg14
Vaws
p665
sg7
g14
sg16
Vows
p666
sg8
g9
ssVuk
p667
(dp668
g7
g16
sg16
Vuks
p669
sg8
g54
sssV138 he 1
p670
(dp671
V\u0268n
p672
(dp673
g7
g16
sg16
Vuns
p674
sg8
g54
sssV137 he 3
p675
(dp676
g346
(dp677
g5
Vwjens
p678
sg14
Vwjans
p679
sg7
g14
sg16
Vwjons
p680
sg8
g9
sssV118 he 4
p681
(dp682
V\u0268j
p683
(dp684
g5
Vwjijs
p685
sg14
Vwj\u0268js
p686
sg7
g14
sg16
Vwjujs
p687
sg8
g54
ssV\u0268p
p688
(dp689
g5
Vwjips
p690
sg14
Vwj\u0268ps
p691
sg7
g14
sg16
Vwjups
p692
sg8
g54
ssVit
p693
(dp694
sV\u0268t
p695
(dp696
g5
Vwjits
p697
sg14
Vwj\u0268ts
p698
sg7
g14
sg16
Vwjuts
p699
sg8
g54
sssV118 he 3
p700
(dp701
V\u0268
p702
(dp703
g5
Vwrjis
p704
sg14
Vwrj\u0268s
p705
sg7
g14
sg16
Vwrjus
p706
sg8
g54
ssg688
(dp707
g5
Vwrjips
p708
sg14
Vwrj\u0268ps
p709
sg7
g14
sg16
Vwrjups
p710
sg8
g54
ssg693
(dp711
g5
V[wjit]s
p712
sg7
g5
sg8
g54
ssg695
(dp713
g5
Vwrjits
p714
sg14
Vwrj\u0268ts
p715
sg7
g14
sg16
Vwrjuts
p716
sg8
g54
ssg683
(dp717
g5
Vwrjijs
p718
sg14
Vwrj\u0268js
p719
sg7
g14
sg16
Vwrjujs
p720
sg8
g54
ssV\u0268k
p721
(dp722
g5
Vwrjiks
p723
sg14
Vwrj\u0268ks
p724
sg7
g14
sg16
Vwrjuks
p725
sg8
g54
sssV118 he 2
p726
(dp727
g683
(dp728
g5
Vwrjijs
p729
sg14
Vwrj\u0268js
p730
sg7
g14
sg16
Vwrjujs
p731
sg8
g54
ssg693
(dp732
g5
V[w(r)jit]s
p733
sg7
g5
sg8
g54
sssV118 he 1
p734
(dp735
g693
(dp736
g5
V[wrjit]s
p737
sg7
g5
sg8
g54
sssV30 kai 4
p738
(dp739
Van
p740
(dp741
g5
Vjen
p742
sg7
g5
sg8
g9
sssV30 kai 2
p743
(dp744
g740
(dp745
g5
V[rjen]
p746
sg14
V[rjan]
p747
sg7
g14
sg16
V[rjon]
p748
sg8
g9
sssV30 kai 3
p749
(dp750
g740
(dp751
g5
V(r)jen
p752
sg14
V(r)jan
p753
sg7
g14
sg16
V(r)jon
p754
sg8
g9
sssV62 he 2
p755
(dp756
g683
(dp757
g5
Vwrjij\u0294
p758
sg14
Vwrj\u0268j\u0294
p759
sg7
g14
sg16
Vwrjuj\u0294
p760
sg8
g54
sssV62 he 3
p761
(dp762
g683
(dp763
g5
Vwrjij\u0294
p764
sg14
Vwrj\u0268j\u0294
p765
sg7
g14
sg16
Vwrjuj\u0294
p766
sg8
g54
ssg702
(dp767
g5
Vwrji\u0294
p768
sg14
Vwrj\u0268\u0294
p769
sg7
g14
sg16
Vwrju\u0294
p770
sg8
g54
sssV62 he 4
p771
(dp772
g683
(dp773
g5
Vwjij\u0294
p774
sg14
Vwj\u0268j\u0294
p775
sg7
g14
sg16
Vwjuj\u0294
p776
sg8
g54
sssV170 kai 2
p777
(dp778
Vam
p779
(dp780
g5
Vrems
p781
sg7
g5
sg8
g9
ssV\u0268m
p782
(dp783
g5
Vrims
p784
sg14
Vr\u0268ms
p785
sg7
g14
sg16
Vrums
p786
sg8
g54
sssV170 kai 3
p787
(dp788
g782
(dp789
g5
Vrims
p790
sg14
Vr\u0268ms
p791
sg7
g14
sg16
Vrums
p792
sg8
g54
sssV67 he 1
p793
(dp794
g587
(dp795
g5
Ve\u0294
p796
sg14
Va\u0294
p797
sg7
g14
sg16
Vo\u0294
p798
sg8
g9
sssV202 kai 4
p799
(dp800
Vap
p801
(dp802
g5
Vep
p803
sg7
g5
sg8
g9
ssV\u0268p
p804
(dp805
g5
Vip
p806
sg7
g5
sg8
g54
sssV151 kai 3
p807
(dp808
g95
(dp809
g14
VjAjs
p810
sg7
g14
sg8
g9
sssV151 kai 1
p811
(dp812
g95
(dp813
g5
Vejs
p814
sg14
Vajs
p815
sg7
g14
sg16
Vojs
p816
sg8
g9
sssV173 kai 4
p817
(dp818
Vuk
p819
(dp820
g7
g16
sg16
V(r)juk
p821
sg8
g54
sssV173 kai 3
p822
(dp823
V\u0268k
p824
(dp825
g5
Vwjik
p826
sg14
Vwj\u0268k
p827
sg7
g14
sg16
Vwjuk
p828
sg8
g54
ssg819
(dp829
g7
g16
sg16
V(r)juk
p830
sg8
g54
sssV173 kai 2
p831
(dp832
g819
(dp833
g7
g16
sg16
Vrjuk
p834
sg8
g54
sssV173 kai 1
p835
(dp836
Vok
p837
(dp838
g7
g16
sg16
Vok
p839
sg8
g9
sssV98 he 4
p840
(dp841
Vet
p842
(dp843
g5
Vwe\u0294
p844
sg7
g5
sg8
g9
ssVeng
p845
(dp846
g5
Vweng\u0294
p847
sg7
g5
sg8
g9
sssV77 kai 3
p848
(dp849
g346
(dp850
g5
Vjen\u0294
p851
sg14
Vjan\u0294
p852
sg7
g14
sg16
Vjon\u0294
p853
sg8
g9
sssV54 kai 2
p854
(dp855
g779
(dp856
g5
Vrem
p857
sg7
g5
sg8
g9
ssg782
(dp858
g5
Vrim
p859
sg14
Vr\u0268m
p860
sg7
g14
sg16
Vrum
p861
sg8
g54
sssV169 kai 3
p862
(dp863
Vam
p864
(dp865
g5
V(r)jems
p866
sg14
V(r)jams
p867
sg7
g14
sg16
V(r)joms
p868
sg8
g9
sssV32 kai 4
p869
(dp870
g34
(dp871
g5
Vjew
p872
sg7
g5
sg8
g9
sssV7 kai 3
p873
(dp874
g551
(dp875
g5
V(r)ji
p876
sg14
V(r)j\u0268
p877
sg7
g14
sg16
V(r)ju
p878
sg8
g54
sssV183 kai 1
p879
(dp880
V\u0268t
p881
(dp882
g5
Vit
p883
sg14
V\u0268t
p884
sg7
g14
sg16
Vut
p885
sg8
g54
sssV7 kai 4
p886
(dp887
g551
(dp888
g5
Vji
p889
sg14
Vj\u0268
p890
sg7
g14
sg16
Vju
p891
sg8
g54
sssV115 kai 3
p892
(dp893
g427
(dp894
g134
V-s
p895
sg7
g134
sg8
g134
sssV5 kai 4
p896
(dp897
g161
(dp898
g5
Vjej
p899
sg14
Vjaj
p900
sg7
g14
sg16
Vjoj
p901
sg8
g9
ssg26
(dp902
g5
Vje
p903
sg7
g5
sg8
g9
sssV121 kai 4
p904
(dp905
g587
(dp906
g5
Vjes
p907
sg14
Vjas
p908
sg7
g14
sg16
Vjos
p909
sg8
g9
sssV155 kai 3
p910
(dp911
g151
(dp912
g5
Vrjengs
p913
sg14
Vrjangs
p914
sg7
g14
sg16
Vrjongs
p915
sg8
g9
ssg156
(dp916
g5
V(r)jengs
p917
sg7
g5
sg8
g9
sssV29 he 4
p918
(dp919
Vin
p920
(dp921
g5
Vwin
p922
sg7
g5
sg8
g54
ssV\u0268n
p923
(dp924
g5
Vwin
p925
sg14
Vw\u0268n
p926
sg7
g14
sg16
Vwun
p927
sg8
g54
ssVan
p928
(dp929
g5
Vwen
p930
sg7
g5
sg8
g9
sssV29 he 3
p931
(dp932
g923
(dp933
g5
Vwin
p934
sg14
Vw\u0268n
p935
sg7
g14
sg16
Vwun
p936
sg8
g54
ssg920
(dp937
g5
Vwin
p938
sg7
g5
sg8
g54
sssV155 kai 2
p939
(dp940
g151
(dp941
g5
Vrengs
p942
sg14
Vrangs
p943
sg7
g14
sg16
Vrongs
p944
sg8
g9
ssg156
(dp945
g5
Vrjengs
p946
sg7
g5
sg8
g9
sssV136 kai 3
p947
(dp948
g475
(dp949
g5
Vjins
p950
sg14
Vj\u0268ns
p951
sg7
g14
sg16
Vjuns
p952
sg8
g54
sssV142 kai 2
p953
(dp954
g262
(dp955
g5
Vrens
p956
sg14
Vrans
p957
sg7
g14
sg16
Vrons
p958
sg8
g9
sssV142 kai 1
p959
(dp960
g262
(dp961
g134
V-s
p962
sg7
g134
sg8
g134
sssV200 kai 1
p963
(dp964
Vap
p965
(dp966
g5
Vep
p967
sg14
Vap
p968
sg7
g14
sg16
Vop
p969
sg8
g9
sssV128 kai 3
p970
(dp971
Vij
p972
(dp973
g5
Vrijs
p974
sg7
g5
sg8
g54
sssV128 kai 2
p975
(dp976
V\u0268k
p977
(dp978
g5
Vriks
p979
sg14
Vr\u0268ks
p980
sg7
g14
sg16
Vruks
p981
sg8
g54
ssV\u0268
p982
(dp983
g5
Vris
p984
sg14
Vr\u0268s
p985
sg7
g14
sg16
Vrus
p986
sg8
g54
ssV\u0268p
p987
(dp988
g5
Vrips
p989
sg14
Vr\u0268ps
p990
sg7
g14
sg16
Vrups
p991
sg8
g54
ssVit
p992
(dp993
g5
Vrits
p994
sg7
g5
sg8
g54
ssV\u0268t
p995
(dp996
g5
Vrits
p997
sg14
Vr\u0268ts
p998
sg7
g14
sg16
Vruts
p999
sg8
g54
ssV\u0268j
p1000
(dp1001
g5
Vrijs
p1002
sg14
Vr\u0268js
p1003
sg7
g14
sg16
Vrujs
p1004
sg8
g54
ssVap
p1005
(dp1006
g5
Vreps
p1007
sg7
g5
sg8
g9
ssg972
(dp1008
g5
Vrijs
p1009
sg7
g5
sg8
g54
ssVat
p1010
(dp1011
g5
Vrets
p1012
sg7
g5
sg8
g9
sssV148 kai 1
p1013
(dp1014
Vawk
p1015
(dp1016
ssV144 kai 4
p1017
(dp1018
g920
(dp1019
g5
Vins
p1020
sg7
g5
sg8
g54
ssg923
(dp1021
g5
Vins
p1022
sg14
V\u0268ns
p1023
sg7
g14
sg16
Vuns
p1024
sg8
g54
ssg928
(dp1025
g5
Vens
p1026
sg7
g5
sg8
g9
sssV148 kai 2
p1027
(dp1028
g1015
(dp1029
g5
Vrewks
p1030
sg14
Vrawks
p1031
sg7
g14
sg16
Vrowks
p1032
sg8
g9
ssg244
(dp1033
g7
g16
sg16
Vrus
p1034
sg8
g54
ssg443
(dp1035
g5
Vrews
p1036
sg14
Vraws
p1037
sg7
g14
sg16
Vrows
p1038
sg8
g9
ssVuk
p1039
(dp1040
g7
g16
sg16
Vruks
p1041
sg8
g54
sssV93 he 2
p1042
(dp1043
Vang
p1044
(dp1045
g5
Vwrjeng\u0294
p1046
sg14
Vwrjang\u0294
p1047
sg7
g14
sg16
Vwrjong\u0294
p1048
sg8
g9
sssV93 he 3
p1049
(dp1050
g1044
(dp1051
g5
Vwjeng\u0294
p1052
sg14
Vwjang\u0294
p1053
sg7
g14
sg16
Vwjong\u0294
p1054
sg8
g9
sssV124 he 4
p1055
(dp1056
g26
(dp1057
g5
Vwes
p1058
sg7
g5
sg8
g9
ssV\u0268p
p1059
(dp1060
g5
Vwips
p1061
sg14
Vw\u0268ps
p1062
sg7
g14
sg16
Vwups
p1063
sg8
g54
ssVit
p1064
(dp1065
g5
Vwijs
p1066
sg7
g5
sg8
g54
ssV\u0268t
p1067
(dp1068
g5
Vwits
p1069
sg14
Vw\u0268ts
p1070
sg7
g14
sg16
Vwuts
p1071
sg8
g54
ssg111
(dp1072
g5
Vwijs
p1073
sg14
Vw\u0268js
p1074
sg7
g14
sg16
Vwujs
p1075
sg8
g54
ssg116
(dp1076
g5
Vwijs
p1077
sg7
g5
sg8
g54
sssV141 he 1
p1078
(dp1079
Van
p1080
(dp1081
g5
Vwens
p1082
sg14
Vwans
p1083
sg7
g14
sg16
Vwons
p1084
sg8
g9
sssV92 kai 4
p1085
(dp1086
g587
(dp1087
g14
VjA\u0294
p1088
sg7
g14
sg8
g9
ssVaj
p1089
(dp1090
g14
VjAj\u0294
p1091
sg7
g14
sg8
g9
sssV135 kai 3
p1092
(dp1093
g305
(dp1094
g5
Vi\u032f\u01ddns
p1095
sg7
g5
sg8
g54
sssV68 kai 4
p1096
(dp1097
g111
(dp1098
g5
Vij\u0294
p1099
sg14
V\u0268j\u0294
p1100
sg7
g14
sg16
Vuj\u0294
p1101
sg8
g54
ssg116
(dp1102
g5
Vij\u0294
p1103
sg7
g5
sg8
g54
ssg26
(dp1104
g5
Ve\u0294
p1105
sg7
g5
sg8
g9
sssV12 kai 4
p1106
(dp1107
g111
(dp1108
g5
Vij
p1109
sg14
V\u0268j
p1110
sg7
g14
sg16
Vuj
p1111
sg8
g54
ssg116
(dp1112
g5
Vij
p1113
sg7
g5
sg8
g54
ssg26
(dp1114
g5
g26
sg7
g5
sg8
g9
sssV137 kai 3
p1115
(dp1116
g346
(dp1117
g5
Vjens
p1118
sg14
Vjans
p1119
sg7
g14
sg16
Vjons
p1120
sg8
g9
sssV28 he 2
p1121
(dp1122
V\u0268n
p1123
(dp1124
g5
Vwrin
p1125
sg14
Vwr\u0268n
p1126
sg7
g14
sg16
Vwrun
p1127
sg8
g54
ssVan
p1128
(dp1129
g5
Vwren
p1130
sg7
g5
sg8
g9
sssV191 kai 1
p1131
(dp1132
Vak
p1133
(dp1134
g5
Vek
p1135
sg14
Vak
p1136
sg7
g14
sg16
Vok
p1137
sg8
g9
ssVawk
p1138
(dp1139
g5
Vewk
p1140
sg14
Vawk
p1141
sg7
g14
sg16
Vowk
p1142
sg8
g9
sssV191 he 1
p1143
(dp1144
g1133
(dp1145
g5
Vwek
p1146
sg14
Vwak
p1147
sg7
g14
sg16
Vwok
p1148
sg8
g9
sssV171 kai 2
p1149
(dp1150
g450
(dp1151
g5
Vrems
p1152
sg14
Vrams
p1153
sg7
g14
sg16
Vroms
p1154
sg8
g9
sssV8 kai 3
p1155
(dp1156
V\u0268j
p1157
(dp1158
g5
Vjij
p1159
sg14
Vj\u0268j
p1160
sg7
g14
sg16
Vjuj
p1161
sg8
g54
sssV193 kai 1
p1162
(dp1163
g74
(dp1164
g134
g264
sg7
g134
sg8
g134
sssV153 kai 4
p1165
(dp1166
g1044
(dp1167
g5
Vjengs
p1168
sg14
Vjangs
p1169
sg7
g14
sg16
Vjongs
p1170
sg8
g9
sssV20 he 3
p1171
(dp1172
g305
(dp1173
g7
g16
sg16
Vjun
p1174
sg8
g54
sssV65 he 3
p1175
(dp1176
g587
(dp1177
g134
V-\u0294
p1178
sg7
g134
sg8
g134
sssV153 kai 3
p1179
(dp1180
g1044
(dp1181
g5
Vrjengs
p1182
sg14
Vrjangs
p1183
sg7
g14
sg16
Vrjongs
p1184
sg8
g9
sssV153 kai 2
p1185
(dp1186
g1044
(dp1187
g5
Vrengs
p1188
sg14
Vrangs
p1189
sg7
g14
sg16
Vrongs
p1190
sg8
g9
sssV201 kai 3
p1191
(dp1192
Vap
p1193
(dp1194
g5
V(r)jep
p1195
sg7
g5
sg8
g9
sssV201 kai 4
p1196
(dp1197
g1193
(dp1198
g5
Vjep
p1199
sg7
g5
sg8
g9
sssV181 kai 3
p1200
(dp1201
V\u0268t
p1202
(dp1203
g5
Vjit
p1204
sg14
Vj\u0268t
p1205
sg7
g14
sg16
Vjut
p1206
sg8
g54
sssV60 kai 2
p1207
(dp1208
Vong
p1209
(dp1210
g7
g16
sg16
Vrong\u0294
p1211
sg8
g9
ssVung
p1212
(dp1213
g7
g16
sg16
Vrung\u0294
p1214
sg8
g54
sssV110 kai 2
p1215
(dp1216
g450
(dp1217
g5
Vrem\u0294
p1218
sg14
Vram\u0294
p1219
sg7
g14
sg16
Vrom\u0294
p1220
sg8
g9
sssV47 kai 1
p1221
(dp1222
V\u0268
p1223
(dp1224
g7
g16
sg16
V(r)o
p1225
sg8
g9
ssg244
(dp1226
g134
g264
sg7
g134
sg8
g134
ssg592
(dp1227
g7
g16
sg16
Vrjo
p1228
sg8
g9
sssV3 he 3
p1229
(dp1230
g427
(dp1231
g7
g16
sg16
Vrjong
p1232
sg8
g9
sssV102 kai 1
p1233
(dp1234
g1223
(dp1235
g7
g16
sg16
V(r)o\u0294
p1236
sg8
g9
ssg244
(dp1237
g134
V-\u0294
p1238
sg7
g134
sg8
g134
ssg592
(dp1239
g7
g16
sg16
Vrjo\u0294
p1240
sg8
g9
sssV155 he 2
p1241
(dp1242
g151
(dp1243
g5
Vwre\u014bs
p1244
sg14
Vwra\u014bs
p1245
sg7
g14
sg16
Vwro\u014bs
p1246
sg8
g9
sssV3 he 4
p1247
(dp1248
g427
(dp1249
g7
g16
sg16
Vjong
p1250
sg8
g9
sssV77 he 3
p1251
(dp1252
g346
(dp1253
g5
Vwjen\u0294
p1254
sg14
Vwjan\u0294
p1255
sg7
g14
sg16
Vwjon\u0294
p1256
sg8
g9
sssV128 he 2
p1257
(dp1258
g977
(dp1259
g5
Vwriks
p1260
sg14
Vwr\u0268ks
p1261
sg7
g14
sg16
Vwruks
p1262
sg8
g54
ssg982
(dp1263
g5
Vwris
p1264
sg14
Vwr\u0268s
p1265
sg7
g14
sg16
Vwrus
p1266
sg8
g54
ssg987
(dp1267
g5
Vwrips
p1268
sg14
Vwr\u0268ps
p1269
sg7
g14
sg16
Vwrups
p1270
sg8
g54
ssg992
(dp1271
g5
V[writ]s
p1272
sg7
g5
sg8
g54
ssg995
(dp1273
g5
Vwrits
p1274
sg14
Vwr\u0268ts
p1275
sg7
g14
sg16
Vwruts
p1276
sg8
g54
ssg1000
(dp1277
g5
Vwrijs
p1278
sg14
Vwr\u0268js
p1279
sg7
g14
sg16
Vwrujs
p1280
sg8
g54
ssg1005
(dp1281
g5
Vwreps
p1282
sg7
g5
sg8
g9
ssg1010
(dp1283
g5
Vwrets
p1284
sg7
g5
sg8
g9
sssV58 kai 4
p1285
(dp1286
Vung
p1287
(dp1288
g7
g16
sg16
Vjung\u0294
p1289
sg8
g54
ssg132
(dp1290
g134
V-\u0294
p1291
sg7
g134
sg8
g134
sssV58 kai 2
p1292
(dp1293
g1287
(dp1294
g7
g16
sg16
Vrjung\u0294
p1295
sg8
g54
ssg132
(dp1296
g134
V-\u0294
p1297
sg7
g134
sg8
g134
sssV58 kai 3
p1298
(dp1299
g1287
(dp1300
g7
g16
sg16
V(r)jung\u0294
p1301
sg8
g54
ssV\u0268ng
p1302
(dp1303
g5
Vwjing\u0294
p1304
sg14
Vwj\u0268ng\u0294
p1305
sg7
g14
sg16
Vwjung\u0294
p1306
sg8
g54
ssg132
(dp1307
g5
V(r)jim\u0294
p1308
sg14
V(r)j\u0268m\u0294
p1309
sg7
g14
sg16
V(r)jum\u0294
p1310
sg8
g54
sssV120 he 3
p1311
(dp1312
g1157
(dp1313
g5
Vwjijs
p1314
sg14
Vwj\u0268js
p1315
sg7
g14
sg16
Vwjujs
p1316
sg8
g54
ssV\u0268p
p1317
(dp1318
g5
Vwjips
p1319
sg14
Vwj\u0268ps
p1320
sg7
g14
sg16
Vwjups
p1321
sg8
g54
ssV\u0268t
p1322
(dp1323
g5
Vwjits
p1324
sg14
Vwj\u0268ts
p1325
sg7
g14
sg16
Vwjuts
p1326
sg8
g54
sssV113 kai 1
p1327
(dp1328
g129
(dp1329
g7
g16
sg16
Vongs
p1330
sg8
g9
ssg132
(dp1331
g134
V-s
p1332
sg7
g134
sg8
g134
sssV113 kai 3
p1333
(dp1334
g1287
(dp1335
g7
g16
sg16
V(r)jungs
p1336
sg8
g54
ssg1302
(dp1337
g5
Vwjings
p1338
sg14
Vwj\u0268ngs
p1339
sg7
g14
sg16
Vwjungs
p1340
sg8
g54
ssg132
(dp1341
g5
V(r)jims
p1342
sg14
V(r)j\u0268ms
p1343
sg7
g14
sg16
V(r)jums
p1344
sg8
g54
sssV113 kai 2
p1345
(dp1346
g1287
(dp1347
g7
g16
sg16
Vrjungs
p1348
sg8
g54
ssg132
(dp1349
g134
V-s
p1350
sg7
g134
sg8
g134
sssV113 kai 4
p1351
(dp1352
g1287
(dp1353
g7
g16
sg16
Vjungs
p1354
sg8
g54
ssg132
(dp1355
g134
V-s
p1356
sg7
g134
sg8
g134
sssV40 kai 4
p1357
(dp1358
g151
(dp1359
g5
Vrjeng
p1360
sg14
Vrjang
p1361
sg7
g14
sg16
Vrjong
p1362
sg8
g9
ssg156
(dp1363
g5
Vjeng
p1364
sg7
g5
sg8
g9
sssV111 kai 3
p1365
(dp1366
g864
(dp1367
g5
V(r)jem\u0294
p1368
sg14
V(r)jam\u0294
p1369
sg7
g14
sg16
V(r)jom\u0294
p1370
sg8
g9
sssV40 kai 3
p1371
(dp1372
g151
(dp1373
g5
Vrjeng
p1374
sg14
Vrjang
p1375
sg7
g14
sg16
Vrjong
p1376
sg8
g9
ssg156
(dp1377
g5
V(r)jeng
p1378
sg7
g5
sg8
g9
sssV40 kai 2
p1379
(dp1380
g151
(dp1381
g5
Vreng
p1382
sg14
Vrang
p1383
sg7
g14
sg16
Vrong
p1384
sg8
g9
ssg156
(dp1385
g5
Vrjeng
p1386
sg7
g5
sg8
g9
sssV39 kai 1
p1387
(dp1388
g255
(dp1389
g5
Veng
p1390
sg14
Vang
p1391
sg7
g14
sg16
Vong
p1392
sg8
g9
sssV42 he 3
p1393
(dp1394
g422
(dp1395
g5
Vwjeng
p1396
sg7
g5
sg8
g9
sssV42 he 4
p1397
(dp1398
g422
(dp1399
g5
Vwjeng
p1400
sg7
g5
sg8
g9
sssV37 kai 3
p1401
(dp1402
g587
(dp1403
g14
VjA
p1404
sg7
g14
sg8
g9
ssg1089
(dp1405
g14
VjAj
p1406
sg7
g14
sg8
g9
sssV37 kai 2
p1407
(dp1408
g587
(dp1409
g5
Vre
p1410
sg14
Vra
p1411
sg7
g14
sg16
Vro
p1412
sg8
g9
ssg1089
(dp1413
g5
Vrej
p1414
sg14
Vraj
p1415
sg7
g14
sg16
Vroj
p1416
sg8
g9
sssV25 kai 1
p1417
(dp1418
g387
(dp1419
g5
Ven
p1420
sg14
Van
p1421
sg7
g14
sg16
Von
p1422
sg8
g9
sssV105 kai 1
p1423
(dp1424
g49
(dp1425
g5
Vim\u0294
p1426
sg14
V\u0268m\u0294
p1427
sg7
g14
sg16
Vum\u0294
p1428
sg8
g54
sssV37 kai 4
p1429
(dp1430
g587
(dp1431
g14
VjA
p1432
sg7
g14
sg8
g9
ssg1089
(dp1433
g14
VjAj
p1434
sg7
g14
sg8
g9
sssV115 he 3
p1435
(dp1436
g427
(dp1437
g7
g16
sg16
Vrjongs
p1438
sg8
g9
sssV185 he 1
p1439
(dp1440
Vat
p1441
(dp1442
g5
Vwet
p1443
sg14
Vwat
p1444
sg7
g14
sg16
Vwot
p1445
sg8
g9
sssV76 kai 3
p1446
(dp1447
g475
(dp1448
g5
Vjin\u0294
p1449
sg14
Vj\u0268n\u0294
p1450
sg7
g14
sg16
Vjun\u0294
p1451
sg8
g54
sssV40 he 4
p1452
(dp1453
g156
(dp1454
g5
Vwjeng
p1455
sg7
g5
sg8
g9
sssV40 he 2
p1456
(dp1457
g151
(dp1458
g5
Vwre\u014b
p1459
sg14
Vwra\u014b
p1460
sg7
g14
sg16
Vwro\u014b
p1461
sg8
g9
sssV40 he 3
p1462
(dp1463
g151
(dp1464
g5
Vwrjeng
p1465
sg14
Vwrjang
p1466
sg7
g14
sg16
Vwrjong
p1467
sg8
g9
ssg156
(dp1468
g5
Vw(r)jeng
p1469
sg7
g5
sg8
g9
sssV80 he 1
p1470
(dp1471
g387
(dp1472
g5
Vwen\u0294
p1473
sg14
Vwan\u0294
p1474
sg7
g14
sg16
Vwon\u0294
p1475
sg8
g9
sssV14 he 2
p1476
(dp1477
g1000
(dp1478
g5
Vwrij
p1479
sg14
Vwr\u0268j
p1480
sg7
g14
sg16
Vwruj
p1481
sg8
g54
ssg982
(dp1482
g5
Vwri
p1483
sg14
Vwr\u0268
p1484
sg7
g14
sg16
Vwru
p1485
sg8
g54
sssV158 he 4
p1486
(dp1487
g842
(dp1488
g5
Vwes
p1489
sg7
g5
sg8
g9
ssg845
(dp1490
g5
Vwengs
p1491
sg7
g5
sg8
g9
sssV79 kai 1
p1492
(dp1493
V\u0268n
p1494
(dp1495
g5
Vin\u0294
p1496
sg14
V\u0268n\u0294
p1497
sg7
g14
sg16
Vun\u0294
p1498
sg8
g54
sssV56 kai 3
p1499
(dp1500
g864
(dp1501
g5
V(r)jem
p1502
sg14
V(r)jam
p1503
sg7
g14
sg16
V(r)jom
p1504
sg8
g9
sssV8 he 3
p1505
(dp1506
g1157
(dp1507
g5
Vwjij
p1508
sg14
Vwj\u0268j
p1509
sg7
g14
sg16
Vwjuj
p1510
sg8
g54
sssV91 he 1
p1511
(dp1512
g95
(dp1513
g5
Vwej\u0294
p1514
sg14
Vwaj\u0294
p1515
sg7
g14
sg16
Vwoj\u0294
p1516
sg8
g9
sssV92 kai 2
p1517
(dp1518
g587
(dp1519
g5
Vre\u0294
p1520
sg14
Vra\u0294
p1521
sg7
g14
sg16
Vro\u0294
p1522
sg8
g9
ssg1089
(dp1523
g5
Vrej\u0294
p1524
sg14
Vraj\u0294
p1525
sg7
g14
sg16
Vroj\u0294
p1526
sg8
g9
sssV92 kai 3
p1527
(dp1528
g587
(dp1529
g14
VjA\u0294
p1530
sg7
g14
sg8
g9
ssg1089
(dp1531
g14
VjAj\u0294
p1532
sg7
g14
sg8
g9
sssV164 kai 3
p1533
(dp1534
g300
(dp1535
g5
V(r)jims
p1536
sg14
V(r)j\u0268ms
p1537
sg7
g14
sg16
V(r)jums
p1538
sg8
g54
sssV164 kai 2
p1539
(dp1540
g300
(dp1541
g5
Vrjims
p1542
sg14
Vrj\u0268ms
p1543
sg7
g14
sg16
Vrjums
p1544
sg8
g54
sssV164 kai 1
p1545
(dp1546
g300
(dp1547
g134
V- s
p1548
sg7
g134
sg8
g134
sssV155 he 3
p1549
(dp1550
g151
(dp1551
g5
Vwrjengs
p1552
sg14
Vwrjangs
p1553
sg7
g14
sg16
Vwrjongs
p1554
sg8
g9
ssg156
(dp1555
g5
Vw(r)jengs
p1556
sg7
g5
sg8
g9
sssV155 he 4
p1557
(dp1558
g156
(dp1559
g5
Vwjengs
p1560
sg7
g5
sg8
g9
sssV59 kai 3
p1561
(dp1562
g427
(dp1563
g134
V-\u0294
p1564
sg7
g134
sg8
g134
sssV164 kai 4
p1565
(dp1566
g300
(dp1567
g5
Vjims
p1568
sg7
g5
sg8
g54
sssV12 he 4
p1569
(dp1570
g111
(dp1571
g5
Vwij
p1572
sg14
Vw\u0268j
p1573
sg7
g14
sg16
Vwuj
p1574
sg8
g54
ssg116
(dp1575
g5
Vwij
p1576
sg7
g5
sg8
g54
ssg26
(dp1577
g5
Vwe
p1578
sg7
g5
sg8
g9
sssV65 he 4
p1579
(dp1580
g587
(dp1581
g134
V-\u0294
p1582
sg7
g134
sg8
g134
sssV57 he 3
p1583
(dp1584
g401
(dp1585
g5
Vwjem
p1586
sg14
Vwjam
p1587
sg7
g14
sg16
Vwjom
p1588
sg8
g9
sssV179 kai 2
p1589
(dp1590
Vit
p1591
(dp1592
g5
Vrit
p1593
sg7
g5
sg8
g54
sssV182 kai 3
p1594
(dp1595
Vat
p1596
(dp1597
g5
Vjet
p1598
sg14
Vjat
p1599
sg7
g14
sg16
Vjot
p1600
sg8
g9
sssV134 he 3
p1601
(dp1602
V\u0268n
p1603
(dp1604
g7
g16
sg16
Vrjuns
p1605
sg8
g54
sssV99 kai 4
p1606
(dp1607
V\u0268ng
p1608
(dp1609
g5
Vjing\u0294
p1610
sg14
Vj\u0268ng\u0294
p1611
sg7
g14
sg16
Vjung\u0294
p1612
sg8
g54
sssV99 kai 3
p1613
(dp1614
g1608
(dp1615
g5
V(r)jing\u0294
p1616
sg14
V(r)j\u0268ng\u0294
p1617
sg7
g14
sg16
V(r)jung\u0294
p1618
sg8
g54
sssV134 he 4
p1619
(dp1620
g1603
(dp1621
g7
g16
sg16
Vjuns
p1622
sg8
g54
sssV154 he 1
p1623
(dp1624
g255
(dp1625
g5
Vwengs
p1626
sg14
Vwangs
p1627
sg7
g14
sg16
Vwongs
p1628
sg8
g9
sssV163 kai 4
p1629
(dp1630
g244
(dp1631
g5
Vjiws
p1632
sg7
g5
sg8
g54
ssVuk
p1633
(dp1634
g5
Vjiwks
p1635
sg7
g5
sg8
g54
sssV117 he 4
p1636
(dp1637
Vet
p1638
(dp1639
g5
Vwjets
p1640
sg7
g5
sg8
g9
ssg161
(dp1641
g5
Vwjejs
p1642
sg14
Vwjajs
p1643
sg7
g14
sg16
Vwjojs
p1644
sg8
g9
ssg26
(dp1645
g5
Vwjes
p1646
sg7
g5
sg8
g9
sssV117 he 2
p1647
(dp1648
g161
(dp1649
g134
V-s
p1650
sg7
g134
sg8
g134
sssV117 he 3
p1651
(dp1652
g1638
(dp1653
g5
Vwrjets
p1654
sg7
g5
sg8
g9
ssg161
(dp1655
g5
Vw(r)jejs
p1656
sg14
Vw(r)jajs
p1657
sg7
g14
sg16
Vw(r)jojs
p1658
sg8
g9
ssg26
(dp1659
g5
Vwrjes
p1660
sg7
g5
sg8
g9
sssV95 kai 3
p1661
(dp1662
g151
(dp1663
g5
Vrjeng\u0294
p1664
sg14
Vrjang\u0294
p1665
sg7
g14
sg16
Vrjong\u0294
p1666
sg8
g9
ssg156
(dp1667
g5
V(r)jeng\u0294
p1668
sg7
g5
sg8
g9
sssV95 kai 2
p1669
(dp1670
g151
(dp1671
g5
Vreng\u0294
p1672
sg14
Vrang\u0294
p1673
sg7
g14
sg16
Vrong\u0294
p1674
sg8
g9
ssg156
(dp1675
g5
Vrjeng\u0294
p1676
sg7
g5
sg8
g9
sssV95 kai 4
p1677
(dp1678
g151
(dp1679
g5
Vrjeng\u0294
p1680
sg14
Vrjang\u0294
p1681
sg7
g14
sg16
Vrjong\u0294
p1682
sg8
g9
ssg156
(dp1683
g5
Vjeng\u0294
p1684
sg7
g5
sg8
g9
sssV97 he 4
p1685
(dp1686
g422
(dp1687
g5
Vwjeng\u0294
p1688
sg7
g5
sg8
g9
sssV101 kai 2
p1689
(dp1690
g244
(dp1691
g7
g16
sg16
Vrju\u0294
p1692
sg8
g54
ssg592
(dp1693
g7
g16
sg16
Vro\u0294
p1694
sg8
g9
sssV101 kai 3
p1695
(dp1696
V\u0268
p1697
(dp1698
g5
Vwji\u0294
p1699
sg14
Vwj\u0268\u0294
p1700
sg7
g14
sg16
Vwju\u0294
p1701
sg8
g54
ssg244
(dp1702
g7
g16
sg16
V(r)ju\u0294
p1703
sg8
g54
ssg592
(dp1704
g7
g16
sg16
Vo\u0294
p1705
sg8
g9
sssV101 kai 4
p1706
(dp1707
g1697
(dp1708
g5
Vwji\u0294
p1709
sg14
Vwj\u0268\u0294
p1710
sg7
g14
sg16
Vwju\u0294
p1711
sg8
g54
ssg244
(dp1712
g7
g16
sg16
Vju\u0294
p1713
sg8
g54
ssg592
(dp1714
g7
g16
sg16
Vjo\u0294
p1715
sg8
g9
sssV29 kai 4
p1716
(dp1717
g920
(dp1718
g5
Vin
p1719
sg7
g5
sg8
g54
ssg923
(dp1720
g5
Vin
p1721
sg14
V\u0268n
p1722
sg7
g14
sg16
Vun
p1723
sg8
g54
ssg928
(dp1724
g5
Ven
p1725
sg7
g5
sg8
g9
sssV97 he 3
p1726
(dp1727
g422
(dp1728
g5
Vwjeng\u0294
p1729
sg7
g5
sg8
g9
sssV7 kai 2
p1730
(dp1731
g551
(dp1732
g5
Vrji
p1733
sg14
Vrj\u0268
p1734
sg7
g14
sg16
Vrju
p1735
sg8
g54
sssV35 kai 1
p1736
(dp1737
g646
(dp1738
g5
Vej
p1739
sg14
Vaj
p1740
sg7
g14
sg16
Voj
p1741
sg8
g9
sssV144 he 4
p1742
(dp1743
g920
(dp1744
g5
Vwins
p1745
sg7
g5
sg8
g54
ssg923
(dp1746
g5
Vwins
p1747
sg14
Vw\u0268ns
p1748
sg7
g14
sg16
Vwuns
p1749
sg8
g54
ssg928
(dp1750
g5
Vwens
p1751
sg7
g5
sg8
g9
sssV144 he 3
p1752
(dp1753
g923
(dp1754
g5
Vwins
p1755
sg14
Vw\u0268ns
p1756
sg7
g14
sg16
Vwuns
p1757
sg8
g54
ssg920
(dp1758
g5
Vwins
p1759
sg7
g5
sg8
g54
sssV179 he 2
p1760
(dp1761
g1591
(dp1762
g5
Vwrit
p1763
sg7
g5
sg8
g54
sssV38 he 3
p1764
(dp1765
g1044
(dp1766
g5
Vwjeng
p1767
sg14
Vwjang
p1768
sg7
g14
sg16
Vwjong
p1769
sg8
g9
sssV38 he 2
p1770
(dp1771
g1044
(dp1772
g5
Vwrjeng
p1773
sg14
Vwrjang
p1774
sg7
g14
sg16
Vwrjong
p1775
sg8
g9
sssV1 kai 3
p1776
(dp1777
g1287
(dp1778
g7
g16
sg16
V(r)jung
p1779
sg8
g54
ssg1302
(dp1780
g5
Vwjing
p1781
sg14
Vwj\u0268ng
p1782
sg7
g14
sg16
Vwjung
p1783
sg8
g54
ssg132
(dp1784
g5
V(r)jim
p1785
sg14
V(r)j\u0268m
p1786
sg7
g14
sg16
V(r)jum
p1787
sg8
g54
sssV1 kai 2
p1788
(dp1789
g1287
(dp1790
g7
g16
sg16
Vrjung
p1791
sg8
g54
ssg132
(dp1792
g134
g264
sg7
g134
sg8
g134
sssV1 kai 1
p1793
(dp1794
g129
(dp1795
g7
g16
sg16
Vong
p1796
sg8
g9
ssg132
(dp1797
g134
g264
sg7
g134
sg8
g134
sssV82 kai 2
p1798
(dp1799
g262
(dp1800
g5
Vren\u0294
p1801
sg14
Vran\u0294
p1802
sg7
g14
sg16
Vron\u0294
p1803
sg8
g9
sssV82 kai 1
p1804
(dp1805
g262
(dp1806
g134
V-\u0294
p1807
sg7
g134
sg8
g134
sssV1 kai 4
p1808
(dp1809
g1287
(dp1810
g7
g16
sg16
Vjung
p1811
sg8
g54
ssg132
(dp1812
g134
g264
sg7
g134
sg8
g134
sssV38 kai 4
p1813
(dp1814
g1044
(dp1815
g5
Vjeng
p1816
sg14
Vjang
p1817
sg7
g14
sg16
Vjong
p1818
sg8
g9
sssV38 kai 2
p1819
(dp1820
g1044
(dp1821
g5
Vreng
p1822
sg14
Vrang
p1823
sg7
g14
sg16
Vrong
p1824
sg8
g9
sssV38 kai 3
p1825
(dp1826
g1044
(dp1827
g5
Vrjeng
p1828
sg14
Vrjang
p1829
sg7
g14
sg16
Vrjong
p1830
sg8
g9
sssV196 he 3
p1831
(dp1832
V\u0268k
p1833
(dp1834
g5
Vwrjik
p1835
sg14
Vwrj\u0268k
p1836
sg7
g14
sg16
Vwrjuk
p1837
sg8
g54
sssV100 he 1
p1838
(dp1839
g394
(dp1840
g5
Vwing\u0294
p1841
sg14
Vw\u0268ng\u0294
p1842
sg7
g14
sg16
Vwung\u0294
p1843
sg8
g54
sssV142 he 2
p1844
(dp1845
g262
(dp1846
g5
Vwrens
p1847
sg14
Vwrans
p1848
sg7
g14
sg16
Vwrons
p1849
sg8
g9
sssV70 he 2
p1850
(dp1851
g1000
(dp1852
g5
Vwrij\u0294
p1853
sg14
Vwr\u0268j\u0294
p1854
sg7
g14
sg16
Vwruj\u0294
p1855
sg8
g54
ssg982
(dp1856
g5
Vwri\u0294
p1857
sg14
Vwr\u0268\u0294
p1858
sg7
g14
sg16
Vwru\u0294
p1859
sg8
g54
sssV167 kai 3
p1860
(dp1861
g102
(dp1862
g5
V(r)jems
p1863
sg7
g5
sg8
g9
sssV167 kai 4
p1864
(dp1865
g102
(dp1866
g5
Vjems
p1867
sg7
g5
sg8
g9
sssV91 kai 3
p1868
(dp1869
g95
(dp1870
g14
VjAj\u0294
p1871
sg7
g14
sg8
g9
sssV180 he 3
p1872
(dp1873
V\u0268t
p1874
(dp1875
g7
g16
sg16
Vjut
p1876
sg8
g54
sssV91 kai 1
p1877
(dp1878
g95
(dp1879
g5
Vej\u0294
p1880
sg14
Vaj\u0294
p1881
sg7
g14
sg16
Voj\u0294
p1882
sg8
g9
sssV129 he 2
p1883
(dp1884
Vap
p1885
(dp1886
g5
Vwreps
p1887
sg14
Vwraps
p1888
sg7
g14
sg16
Vwrops
p1889
sg8
g9
ssVat
p1890
(dp1891
g5
Vwrets
p1892
sg14
Vwrats
p1893
sg7
g14
sg16
Vwrots
p1894
sg8
g9
sssV124 kai 4
p1895
(dp1896
g26
(dp1897
g5
Ves
p1898
sg7
g5
sg8
g9
ssg1059
(dp1899
g5
Vips
p1900
sg14
V\u0268ps
p1901
sg7
g14
sg16
Vups
p1902
sg8
g54
ssg1064
(dp1903
g5
Vijs
p1904
sg7
g5
sg8
g54
ssg1067
(dp1905
g5
Vits
p1906
sg14
V\u0268ts
p1907
sg7
g14
sg16
Vuts
p1908
sg8
g54
ssg111
(dp1909
g5
Vijs
p1910
sg14
V\u0268js
p1911
sg7
g14
sg16
Vujs
p1912
sg8
g54
ssg116
(dp1913
g5
Vijs
p1914
sg7
g5
sg8
g54
sssV4 kai 2
p1915
(dp1916
g1209
(dp1917
g7
g16
sg16
Vrong
p1918
sg8
g9
ssg1212
(dp1919
g7
g16
sg16
Vrung
p1920
sg8
g54
sssV205 kai 3
p1921
(dp1922
Vap
p1923
(dp1924
g5
V(r)jep
p1925
sg14
V(r)jap
p1926
sg7
g14
sg16
V(r)jop
p1927
sg8
g9
sssV81 he 1
p1928
(dp1929
g1080
(dp1930
g5
Vwen\u0294
p1931
sg14
Vwan\u0294
p1932
sg7
g14
sg16
Vwon\u0294
p1933
sg8
g9
sssV15 he 1
p1934
(dp1935
g273
(dp1936
g5
Vwij
p1937
sg14
Vw\u0268j
p1938
sg7
g14
sg16
Vwuj
p1939
sg8
g54
ssg278
(dp1940
g5
Vwi
p1941
sg14
Vw\u0268
p1942
sg7
g14
sg16
Vwu
p1943
sg8
g54
sssV203 kai 2
p1944
(dp1945
Vap
p1946
(dp1947
g5
Vrep
p1948
sg7
g5
sg8
g9
ssV\u0268p
p1949
(dp1950
g5
Vrip
p1951
sg14
Vr\u0268p
p1952
sg7
g14
sg16
Vrup
p1953
sg8
g54
sssV121 he 3
p1954
(dp1955
g587
(dp1956
g134
V-s
p1957
sg7
g134
sg8
g134
ssVak
p1958
(dp1959
g5
Vw(r)jeks
p1960
sg14
Vw(r)jaks
p1961
sg7
g14
sg16
Vw(r)joks
p1962
sg8
g9
ssVok
p1963
(dp1964
g7
g16
sg16
Vjoks
p1965
sg8
g9
ssg592
(dp1966
g7
g16
sg16
V(r)jos
p1967
sg8
g9
sssV121 he 2
p1968
(dp1969
g1963
(dp1970
g7
g16
sg16
Vrjoks
p1971
sg8
g9
ssg592
(dp1972
g7
g16
sg16
Vrjos
p1973
sg8
g9
sssV19 kai 2
p1974
(dp1975
V\u0268n
p1976
(dp1977
g5
Vrjin
p1978
sg14
Vrj\u0268n
p1979
sg7
g14
sg16
Vrjun
p1980
sg8
g54
sssV121 he 4
p1981
(dp1982
g587
(dp1983
g134
V-s
p1984
sg7
g134
sg8
g134
ssg592
(dp1985
g7
g16
sg16
Vjos
p1986
sg8
g9
sssV152 he 2
p1987
(dp1988
g587
(dp1989
g5
Vwres
p1990
sg14
Vwras
p1991
sg7
g14
sg16
Vwros
p1992
sg8
g9
ssVak
p1993
(dp1994
g5
Vwreks
p1995
sg14
Vwraks
p1996
sg7
g14
sg16
Vwroks
p1997
sg8
g9
ssg1089
(dp1998
g5
Vwrejs
p1999
sg14
Vwrajs
p2000
sg7
g14
sg16
Vwrojs
p2001
sg8
g9
sssV161 kai 2
p2002
(dp2003
Vok
p2004
(dp2005
g7
g16
sg16
Vroks
p2006
sg8
g9
ssg244
(dp2007
g7
g16
sg16
Vrjus
p2008
sg8
g54
ssg592
(dp2009
g7
g16
sg16
Vros
p2010
sg8
g9
ssVuk
p2011
(dp2012
g7
g16
sg16
Vrjuks
p2013
sg8
g54
sssV161 kai 3
p2014
(dp2015
g2004
(dp2016
g7
g16
sg16
Voks
p2017
sg8
g9
ssg1697
(dp2018
g5
Vwjis
p2019
sg14
Vwj\u0268s
p2020
sg7
g14
sg16
Vwjus
p2021
sg8
g54
ssg592
(dp2022
g7
g16
sg16
Vos
p2023
sg8
g9
ssV\u0268k
p2024
(dp2025
g5
Vwjiks
p2026
sg14
Vwj\u0268ks
p2027
sg7
g14
sg16
Vwjuks
p2028
sg8
g54
ssg244
(dp2029
g7
g16
sg16
V(r)jus
p2030
sg8
g54
ssg2011
(dp2031
g7
g16
sg16
V(r)juks
p2032
sg8
g54
sssV73 kai 3
p2033
(dp2034
g653
(dp2035
g5
Vrjin\u0294
p2036
sg14
Vrj\u0268n\u0294
p2037
sg7
g14
sg16
Vrjun\u0294
p2038
sg8
g54
ssg656
(dp2039
g5
Vrjin\u0294
p2040
sg7
g5
sg8
g54
sssV73 kai 2
p2041
(dp2042
g653
(dp2043
g5
Vrjin\u0294
p2044
sg14
Vrj\u0268n\u0294
p2045
sg7
g14
sg16
Vrjun\u0294
p2046
sg8
g54
ssg656
(dp2047
g5
Vrjin\u0294
p2048
sg7
g5
sg8
g54
sssV66 he 4
p2049
(dp2050
g587
(dp2051
g5
Vw(r)je\u0294
p2052
sg14
Vw(r)ja\u0294
p2053
sg7
g14
sg16
Vw(r)jo\u0294
p2054
sg8
g9
ssg592
(dp2055
g7
g16
sg16
Vjo\u0294
p2056
sg8
g9
sssV139 kai 1
p2057
(dp2058
g1494
(dp2059
g5
Vins
p2060
sg14
V\u0268ns
p2061
sg7
g14
sg16
Vuns
p2062
sg8
g54
sssV66 he 3
p2063
(dp2064
g587
(dp2065
g5
Vw(r)je\u0294
p2066
sg14
Vw(r)ja\u0294
p2067
sg7
g14
sg16
Vw(r)jo\u0294
p2068
sg8
g9
ssg592
(dp2069
g7
g16
sg16
V(r)jo\u0294
p2070
sg8
g9
sssV73 kai 4
p2071
(dp2072
g653
(dp2073
g5
Vjin\u0294
p2074
sg14
Vj\u0268n\u0294
p2075
sg7
g14
sg16
Vjun\u0294
p2076
sg8
g54
ssg656
(dp2077
g5
Vjin\u0294
p2078
sg7
g5
sg8
g54
sssV66 he 2
p2079
(dp2080
g587
(dp2081
g5
Vw(r)je\u0294
p2082
sg14
Vw(r)ja\u0294
p2083
sg7
g14
sg16
Vw(r)jo\u0294
p2084
sg8
g9
ssg592
(dp2085
g7
g16
sg16
Vrjo\u0294
p2086
sg8
g9
sssV51 kai 1
p2087
(dp2088
Vam
p2089
(dp2090
g5
Vem
p2091
sg14
Vam
p2092
sg7
g14
sg16
Vom
p2093
sg8
g9
sssV177 kai 3
p2094
(dp2095
g457
(dp2096
g5
Vrjit
p2097
sg7
g5
sg8
g54
ssg460
(dp2098
g5
V(r)jit
p2099
sg14
V(r)j\u0268t
p2100
sg7
g14
sg16
V(r)jut
p2101
sg8
g54
sssV177 kai 4
p2102
(dp2103
g457
(dp2104
g5
Vjit
p2105
sg7
g5
sg8
g54
ssg460
(dp2106
g5
Vjit
p2107
sg14
Vj\u0268t
p2108
sg7
g14
sg16
Vjut
p2109
sg8
g54
sssV98 kai 4
p2110
(dp2111
g842
(dp2112
g5
Ve\u0294
p2113
sg7
g5
sg8
g9
ssg845
(dp2114
g5
Veng\u0294
p2115
sg7
g5
sg8
g9
sssV49 kai 1
p2116
(dp2117
g300
(dp2118
g134
V- 
p2119
sg7
g134
sg8
g134
sssV49 kai 2
p2120
(dp2121
g300
(dp2122
g5
Vrjim
p2123
sg14
Vrj\u0268m
p2124
sg7
g14
sg16
Vrjum
p2125
sg8
g54
sssV49 kai 3
p2126
(dp2127
g300
(dp2128
g5
V(r)jim
p2129
sg14
V(r)j\u0268m
p2130
sg7
g14
sg16
V(r)jum
p2131
sg8
g54
sssV49 kai 4
p2132
(dp2133
g300
(dp2134
g5
Vjim
p2135
sg7
g5
sg8
g54
sssV115 he 4
p2136
(dp2137
g427
(dp2138
g7
g16
sg16
Vjongs
p2139
sg8
g9
sssV48 kai 4
p2140
(dp2141
g244
(dp2142
g5
Vjiw
p2143
sg7
g5
sg8
g54
sssV70 kai 2
p2144
(dp2145
g1000
(dp2146
g5
Vrij\u0294
p2147
sg14
Vr\u0268j\u0294
p2148
sg7
g14
sg16
Vruj\u0294
p2149
sg8
g54
ssg982
(dp2150
g5
Vri\u0294
p2151
sg14
Vr\u0268\u0294
p2152
sg7
g14
sg16
Vru\u0294
p2153
sg8
g54
ssg972
(dp2154
g5
Vrij\u0294
p2155
sg7
g5
sg8
g54
sssV70 kai 3
p2156
(dp2157
g972
(dp2158
g5
Vrij\u0294
p2159
sg7
g5
sg8
g54
sssV160 kai 1
p2160
(dp2161
g394
(dp2162
g5
Vings
p2163
sg14
V\u0268ngs
p2164
sg7
g14
sg16
Vungs
p2165
sg8
g54
sssV37 he 2
p2166
(dp2167
g587
(dp2168
g5
Vwre
p2169
sg14
Vwra
p2170
sg7
g14
sg16
Vwro
p2171
sg8
g9
ssg1089
(dp2172
g5
Vwrej
p2173
sg14
Vwraj
p2174
sg7
g14
sg16
Vwroj
p2175
sg8
g9
sssV131 kai 4
p2176
(dp2177
g362
(dp2178
g5
Vis
p2179
sg14
V\u0268s
p2180
sg7
g14
sg16
Vus
p2181
sg8
g54
sssV131 kai 1
p2182
(dp2183
g357
(dp2184
g5
Vijs
p2185
sg14
V\u0268js
p2186
sg7
g14
sg16
Vujs
p2187
sg8
g54
ssg362
(dp2188
g5
Vis
p2189
sg14
V\u0268s
p2190
sg7
g14
sg16
Vus
p2191
sg8
g54
ssV\u0268p
p2192
(dp2193
g5
Vips
p2194
sg14
V\u0268ps
p2195
sg7
g14
sg16
Vups
p2196
sg8
g54
ssV\u0268t
p2197
(dp2198
g5
Vits
p2199
sg14
V\u0268ts
p2200
sg7
g14
sg16
Vuts
p2201
sg8
g54
ssV\u0268k
p2202
(dp2203
g5
Viks
p2204
sg14
V\u0268ks
p2205
sg7
g14
sg16
Vuks
p2206
sg8
g54
sssV131 kai 3
p2207
(dp2208
g357
(dp2209
g5
Vijs
p2210
sg14
V\u0268js
p2211
sg7
g14
sg16
Vujs
p2212
sg8
g54
sssV133 kai 3
p2213
(dp2214
g653
(dp2215
g5
Vrjins
p2216
sg14
Vrj\u0268ns
p2217
sg7
g14
sg16
Vrjuns
p2218
sg8
g54
ssg656
(dp2219
g5
Vrjins
p2220
sg7
g5
sg8
g54
sssV133 kai 2
p2221
(dp2222
g653
(dp2223
g5
Vrjins
p2224
sg14
Vrj\u0268ns
p2225
sg7
g14
sg16
Vrjuns
p2226
sg8
g54
ssg656
(dp2227
g5
Vrjins
p2228
sg7
g5
sg8
g54
sssV133 kai 4
p2229
(dp2230
g653
(dp2231
g5
Vjins
p2232
sg14
Vj\u0268ns
p2233
sg7
g14
sg16
Vjuns
p2234
sg8
g54
ssg656
(dp2235
g5
Vjins
p2236
sg7
g5
sg8
g54
sssV30 he 3
p2237
(dp2238
g740
(dp2239
g5
Vwrjen
p2240
sg14
Vwrjan
p2241
sg7
g14
sg16
Vwrjon
p2242
sg8
g9
sssV30 he 2
p2243
(dp2244
g740
(dp2245
g5
Vw(r)jen
p2246
sg14
Vw(r)jan
p2247
sg7
g14
sg16
Vw(r)jon
p2248
sg8
g9
sssV30 he 4
p2249
(dp2250
g740
(dp2251
g5
Vwjen
p2252
sg7
g5
sg8
g9
sssV193 kai 2
p2253
(dp2254
g69
(dp2255
g5
Vrik
p2256
sg14
Vr\u0268k
p2257
sg7
g14
sg16
Vruk
p2258
sg8
g54
ssg74
(dp2259
g5
Vrek
p2260
sg7
g5
sg8
g9
ssg77
(dp2261
g5
Vrek
p2262
sg7
g5
sg8
g9
sssV3 kai 4
p2263
(dp2264
g427
(dp2265
g134
g264
sg7
g134
sg8
g134
sssV158 kai 4
p2266
(dp2267
g842
(dp2268
g5
Ves
p2269
sg7
g5
sg8
g9
ssg845
(dp2270
g5
Vengs
p2271
sg7
g5
sg8
g9
sssV125 kai 4
p2272
(dp2273
g178
(dp2274
g5
Vjeps
p2275
sg7
g5
sg8
g9
ssg181
(dp2276
g5
Vjets
p2277
sg7
g5
sg8
g9
sssV116 kai 2
p2278
(dp2279
g1209
(dp2280
g7
g16
sg16
Vrongs
p2281
sg8
g9
ssg1212
(dp2282
g7
g16
sg16
Vrungs
p2283
sg8
g54
sssV19 he 3
p2284
(dp2285
g1976
(dp2286
g7
g16
sg16
Vrjun
p2287
sg8
g54
sssV18 he 3
p2288
(dp2289
g1603
(dp2290
g7
g16
sg16
Vrjun
p2291
sg8
g54
sssV18 he 4
p2292
(dp2293
g1603
(dp2294
g7
g16
sg16
Vjun
p2295
sg8
g54
sssV53 kai 4
p2296
(dp2297
Vam
p2298
(dp2299
g5
Vem
p2300
sg7
g5
sg8
g9
ssVim
p2301
(dp2302
g5
Vim
p2303
sg7
g5
sg8
g54
sssV41 kai 2
p2304
(dp2305
g138
(dp2306
g5
Vret
p2307
sg7
g5
sg8
g9
ssg141
(dp2308
g5
Vring
p2309
sg14
Vr\u0268ng
p2310
sg7
g14
sg16
Vrung
p2311
sg8
g54
ssg146
(dp2312
g5
Vreng
p2313
sg7
g5
sg8
g9
sssV168 kai 4
p2314
(dp2315
g2298
(dp2316
g5
Vems
p2317
sg7
g5
sg8
g9
ssg2301
(dp2318
g5
Vims
p2319
sg7
g5
sg8
g54
sssV168 kai 3
p2320
(dp2321
g2301
(dp2322
g5
Vims
p2323
sg7
g5
sg8
g54
sssV53 kai 3
p2324
(dp2325
g2301
(dp2326
g5
Vim
p2327
sg7
g5
sg8
g54
sssV64 kai 3
p2328
(dp2329
g1157
(dp2330
g5
Vjij\u0294
p2331
sg14
Vj\u0268j\u0294
p2332
sg7
g14
sg16
Vjuj\u0294
p2333
sg8
g54
sssV183 he 1
p2334
(dp2335
g881
(dp2336
g5
Vwit
p2337
sg14
Vw\u0268t
p2338
sg7
g14
sg16
Vwut
p2339
sg8
g54
sssV143 he 2
p2340
(dp2341
g1123
(dp2342
g5
Vwrins
p2343
sg14
Vwr\u0268ns
p2344
sg7
g14
sg16
Vwruns
p2345
sg8
g54
ssg1128
(dp2346
g5
Vwrens
p2347
sg7
g5
sg8
g9
sssV117 kai 4
p2348
(dp2349
g1638
(dp2350
g5
Vjets
p2351
sg7
g5
sg8
g9
ssg161
(dp2352
g5
Vjejs
p2353
sg14
Vjajs
p2354
sg7
g14
sg16
Vjojs
p2355
sg8
g9
ssg26
(dp2356
g5
Vjes
p2357
sg7
g5
sg8
g9
sssV96 kai 2
p2358
(dp2359
g138
(dp2360
g5
Vret\u0294
p2361
sg7
g5
sg8
g9
ssg141
(dp2362
g5
Vring\u0294
p2363
sg14
Vr\u0268ng\u0294
p2364
sg7
g14
sg16
Vrung\u0294
p2365
sg8
g54
ssg146
(dp2366
g5
Vreng\u0294
p2367
sg7
g5
sg8
g9
sssV74 he 4
p2368
(dp2369
g1603
(dp2370
g7
g16
sg16
Vjun\u0294
p2371
sg8
g54
sssV117 kai 3
p2372
(dp2373
g1638
(dp2374
g5
V(r)jets
p2375
sg7
g5
sg8
g9
ssg161
(dp2376
g5
V(r)jejs
p2377
sg14
V(r)jajs
p2378
sg7
g14
sg16
V(r)jojs
p2379
sg8
g9
ssg26
(dp2380
g5
V(r)jes
p2381
sg7
g5
sg8
g9
sssV117 kai 2
p2382
(dp2383
g1638
(dp2384
g5
Vrjets
p2385
sg7
g5
sg8
g9
ssg161
(dp2386
g5
Vrjejs
p2387
sg14
Vrjajs
p2388
sg7
g14
sg16
Vrjojs
p2389
sg8
g9
ssg26
(dp2390
g5
Vrjes
p2391
sg7
g5
sg8
g9
sssV72 kai 3
p2392
(dp2393
g357
(dp2394
g5
Vij\u0294
p2395
sg14
V\u0268j\u0294
p2396
sg7
g14
sg16
Vuj\u0294
p2397
sg8
g54
sssV118 kai 2
p2398
(dp2399
Vij
p2400
(dp2401
g5
Vrjijs
p2402
sg7
g5
sg8
g54
ssg693
(dp2403
g5
V(r)jits
p2404
sg7
g5
sg8
g54
sssV118 kai 3
p2405
(dp2406
g721
(dp2407
g5
Vwrjiks
p2408
sg14
Vwrj\u0268ks
p2409
sg7
g14
sg16
Vwrjuks
p2410
sg8
g54
ssg2400
(dp2411
g5
V(r)jijs
p2412
sg7
g5
sg8
g54
ssg693
(dp2413
g5
Vjits
p2414
sg7
g5
sg8
g54
sssV115 kai 1
p2415
(dp2416
g427
(dp2417
g134
V-s
p2418
sg7
g134
sg8
g134
sssV118 kai 1
p2419
(dp2420
g693
(dp2421
g5
Vrjits
p2422
sg7
g5
sg8
g54
sssV59 he 4
p2423
(dp2424
g427
(dp2425
g7
g16
sg16
Vjong\u0294
p2426
sg8
g9
sssV118 kai 4
p2427
(dp2428
g2400
(dp2429
g5
Vjijs
p2430
sg7
g5
sg8
g54
sssV115 kai 4
p2431
(dp2432
g427
(dp2433
g134
V-s
p2434
sg7
g134
sg8
g134
sssV72 kai 1
p2435
(dp2436
g357
(dp2437
g5
Vij\u0294
p2438
sg14
V\u0268j\u0294
p2439
sg7
g14
sg16
Vuj\u0294
p2440
sg8
g54
ssg362
(dp2441
g5
Vi\u0294
p2442
sg14
V\u0268\u0294
p2443
sg7
g14
sg16
Vu\u0294
p2444
sg8
g54
sssV23 he 1
p2445
(dp2446
g672
(dp2447
g7
g16
sg16
Vun
p2448
sg8
g54
sssV94 he 1
p2449
(dp2450
g255
(dp2451
g5
Vweng\u0294
p2452
sg14
Vwang\u0294
p2453
sg7
g14
sg16
Vwong\u0294
p2454
sg8
g9
sssV87 kai 4
p2455
(dp2456
g34
(dp2457
g5
Vjew\u0294
p2458
sg7
g5
sg8
g9
sssV87 kai 3
p2459
(dp2460
g34
(dp2461
g5
V(r)jew\u0294
p2462
sg14
V(r)jaw\u0294
p2463
sg7
g14
sg16
V(r)jow\u0294
p2464
sg8
g9
sssV127 kai 2
p2465
(dp2466
g26
(dp2467
g5
Vres
p2468
sg7
g5
sg8
g9
sssV85 he 4
p2469
(dp2470
g740
(dp2471
g5
Vwjen\u0294
p2472
sg7
g5
sg8
g9
sssV65 kai 4
p2473
(dp2474
g587
(dp2475
g5
Vje\u0294
p2476
sg14
Vja\u0294
p2477
sg7
g14
sg16
Vjo\u0294
p2478
sg8
g9
sssV65 kai 2
p2479
(dp2480
g587
(dp2481
g5
Vrje\u0294
p2482
sg14
Vrja\u0294
p2483
sg7
g14
sg16
Vrjo\u0294
p2484
sg8
g9
sssV65 kai 3
p2485
(dp2486
g587
(dp2487
g5
V(r)je\u0294
p2488
sg14
V(r)ja\u0294
p2489
sg7
g14
sg16
V(r)jo\u0294
p2490
sg8
g9
sssV85 he 3
p2491
(dp2492
g740
(dp2493
g5
Vwrjen\u0294
p2494
sg14
Vwrjan\u0294
p2495
sg7
g14
sg16
Vwrjon\u0294
p2496
sg8
g9
sssV85 he 2
p2497
(dp2498
g740
(dp2499
g5
Vw(r)jen\u0294
p2500
sg14
Vw(r)jan\u0294
p2501
sg7
g14
sg16
Vw(r)jon\u0294
p2502
sg8
g9
sssV175 kai 4
p2503
(dp2504
Vok
p2505
(dp2506
g7
g16
sg16
Vjok
p2507
sg8
g9
sssV175 kai 3
p2508
(dp2509
g2505
(dp2510
g7
g16
sg16
V(r)jok
p2511
sg8
g9
sssV122 kai 4
p2512
(dp2513
Vak
p2514
(dp2515
g5
Vjeks
p2516
sg14
Vjaks
p2517
sg7
g14
sg16
Vjoks
p2518
sg8
g9
sssV126 he 1
p2519
(dp2520
g482
(dp2521
g5
Vweps
p2522
sg14
Vwaps
p2523
sg7
g14
sg16
Vwops
p2524
sg8
g9
ssg487
(dp2525
g5
Vwets
p2526
sg14
Vwats
p2527
sg7
g14
sg16
Vwots
p2528
sg8
g9
sssV122 kai 3
p2529
(dp2530
g2514
(dp2531
g5
V(r)jeks
p2532
sg14
V(r)jaks
p2533
sg7
g14
sg16
V(r)joks
p2534
sg8
g9
sssV122 kai 2
p2535
(dp2536
g2514
(dp2537
g5
Vrjeks
p2538
sg14
Vrjaks
p2539
sg7
g14
sg16
Vrjoks
p2540
sg8
g9
sssV143 kai 2
p2541
(dp2542
Vin
p2543
(dp2544
g5
Vrins
p2545
sg7
g5
sg8
g54
ssg1123
(dp2546
g5
Vrins
p2547
sg14
Vr\u0268ns
p2548
sg7
g14
sg16
Vruns
p2549
sg8
g54
ssg1128
(dp2550
g5
Vrens
p2551
sg7
g5
sg8
g9
sssV92 he 2
p2552
(dp2553
g587
(dp2554
g5
Vwre\u0294
p2555
sg14
Vwra\u0294
p2556
sg7
g14
sg16
Vwro\u0294
p2557
sg8
g9
ssg1089
(dp2558
g5
Vwrej\u0294
p2559
sg14
Vwraj\u0294
p2560
sg7
g14
sg16
Vwroj\u0294
p2561
sg8
g9
sssV186 he 2
p2562
(dp2563
Vat
p2564
(dp2565
g5
Vwret
p2566
sg14
Vwrat
p2567
sg7
g14
sg16
Vwrot
p2568
sg8
g9
ssV\u0268t
p2569
(dp2570
g5
Vwrit
p2571
sg14
Vwr\u0268t
p2572
sg7
g14
sg16
Vwrut
p2573
sg8
g54
sssV196 kai 2
p2574
(dp2575
g1833
(dp2576
g5
Vrjik
p2577
sg14
Vrj\u0268k
p2578
sg7
g14
sg16
Vrjuk
p2579
sg8
g54
sssV71 he 1
p2580
(dp2581
g273
(dp2582
g5
Vwij\u0294
p2583
sg14
Vw\u0268j\u0294
p2584
sg7
g14
sg16
Vwuj\u0294
p2585
sg8
g54
ssg278
(dp2586
g5
Vwi\u0294
p2587
sg14
Vw\u0268\u0294
p2588
sg7
g14
sg16
Vwu\u0294
p2589
sg8
g54
sssV121 kai 2
p2590
(dp2591
g587
(dp2592
g5
Vrjes
p2593
sg14
Vrjas
p2594
sg7
g14
sg16
Vrjos
p2595
sg8
g9
sssV109 kai 2
p2596
(dp2597
g779
(dp2598
g5
Vrem\u0294
p2599
sg7
g5
sg8
g9
ssg782
(dp2600
g5
Vrim\u0294
p2601
sg14
Vr\u0268m\u0294
p2602
sg7
g14
sg16
Vrum\u0294
p2603
sg8
g54
sssV109 kai 3
p2604
(dp2605
g782
(dp2606
g5
Vrim\u0294
p2607
sg14
Vr\u0268m\u0294
p2608
sg7
g14
sg16
Vrum\u0294
p2609
sg8
g54
sssV121 kai 3
p2610
(dp2611
g587
(dp2612
g5
V(r)jes
p2613
sg14
V(r)jas
p2614
sg7
g14
sg16
V(r)jos
p2615
sg8
g9
sssV6 kai 4
p2616
(dp2617
g2400
(dp2618
g5
Vjij
p2619
sg7
g5
sg8
g54
sssV6 kai 2
p2620
(dp2621
g2400
(dp2622
g5
Vrjij
p2623
sg7
g5
sg8
g54
sssV6 kai 3
p2624
(dp2625
g2400
(dp2626
g5
V(r)jij
p2627
sg7
g5
sg8
g54
sssV2 kai 1
p2628
(dp2629
g57
(dp2630
g7
g16
sg16
Vung
p2631
sg8
g54
sssV33 kai 2
p2632
(dp2633
g244
(dp2634
g7
g16
sg16
Vru
p2635
sg8
g54
ssg443
(dp2636
g5
Vrew
p2637
sg14
Vraw
p2638
sg7
g14
sg16
Vrow
p2639
sg8
g9
sssV5 he 4
p2640
(dp2641
g161
(dp2642
g5
Vwjej
p2643
sg14
Vwjaj
p2644
sg7
g14
sg16
Vwjoj
p2645
sg8
g9
ssg26
(dp2646
g5
Vwje
p2647
sg7
g5
sg8
g9
sssV187 he 2
p2648
(dp2649
Vat
p2650
(dp2651
g5
Vwret
p2652
sg7
g5
sg8
g9
sssV5 he 2
p2653
(dp2654
g161
(dp2655
g134
g264
sg7
g134
sg8
g134
sssV5 he 3
p2656
(dp2657
g161
(dp2658
g5
Vw(r)jej
p2659
sg14
Vw(r)jaj
p2660
sg7
g14
sg16
Vw(r)joj
p2661
sg8
g9
ssg26
(dp2662
g5
Vwrje
p2663
sg7
g5
sg8
g9
sssV39 he 1
p2664
(dp2665
g255
(dp2666
g5
Vweng
p2667
sg14
Vwang
p2668
sg7
g14
sg16
Vwong
p2669
sg8
g9
sssV194 kai 4
p2670
(dp2671
Vak
p2672
(dp2673
g14
VjAk
p2674
sg7
g14
sg8
g9
ssVek
p2675
(dp2676
g5
Vjek
p2677
sg7
g5
sg8
g9
sssV192 he 2
p2678
(dp2679
Vak
p2680
(dp2681
g5
Vwrek
p2682
sg14
Vwrak
p2683
sg7
g14
sg16
Vwrok
p2684
sg8
g9
sssV194 kai 3
p2685
(dp2686
g2672
(dp2687
g5
Vrjek
p2688
sg14
Vrjak
p2689
sg7
g14
sg16
Vrjok
p2690
sg8
g9
ssg2675
(dp2691
g5
Vjek
p2692
sg7
g5
sg8
g9
sssV108 kai 4
p2693
(dp2694
g2298
(dp2695
g5
Vem\u0294
p2696
sg7
g5
sg8
g9
ssg2301
(dp2697
g5
Vim\u0294
p2698
sg7
g5
sg8
g54
sssV85 kai 2
p2699
(dp2700
g740
(dp2701
g5
V[rjen]\u0294
p2702
sg14
V[rjan]\u0294
p2703
sg7
g14
sg16
V[rjon]\u0294
p2704
sg8
g9
sssV85 kai 3
p2705
(dp2706
g740
(dp2707
g5
V(r)jen\u0294
p2708
sg14
V(r)jan\u0294
p2709
sg7
g14
sg16
V(r)jon\u0294
p2710
sg8
g9
sssV85 kai 4
p2711
(dp2712
g740
(dp2713
g5
Vjen\u0294
p2714
sg7
g5
sg8
g9
sssV108 kai 3
p2715
(dp2716
g2301
(dp2717
g5
Vim\u0294
p2718
sg7
g5
sg8
g54
sssV9 kai 3
p2719
(dp2720
g587
(dp2721
g5
V(r)je
p2722
sg14
V(r)ja
p2723
sg7
g14
sg16
V(r)jo
p2724
sg8
g9
sssV9 kai 2
p2725
(dp2726
g587
(dp2727
g5
Vrje
p2728
sg14
Vrja
p2729
sg7
g14
sg16
Vrjo
p2730
sg8
g9
sssV151 he 1
p2731
(dp2732
g95
(dp2733
g5
Vwejs
p2734
sg14
Vwajs
p2735
sg7
g14
sg16
Vwojs
p2736
sg8
g9
sssV9 kai 4
p2737
(dp2738
g587
(dp2739
g5
Vje
p2740
sg14
Vja
p2741
sg7
g14
sg16
Vjo
p2742
sg8
g9
sssV159 kai 3
p2743
(dp2744
g1608
(dp2745
g5
V(r)jings
p2746
sg14
V(r)j\u0268ngs
p2747
sg7
g14
sg16
V(r)jungs
p2748
sg8
g54
sssV152 kai 2
p2749
(dp2750
g587
(dp2751
g5
Vres
p2752
sg14
Vras
p2753
sg7
g14
sg16
Vros
p2754
sg8
g9
ssg1993
(dp2755
g5
Vreks
p2756
sg14
Vraks
p2757
sg7
g14
sg16
Vroks
p2758
sg8
g9
ssg1089
(dp2759
g5
Vrejs
p2760
sg14
Vrajs
p2761
sg7
g14
sg16
Vrojs
p2762
sg8
g9
sssV152 kai 3
p2763
(dp2764
g587
(dp2765
g14
VjAs
p2766
sg7
g14
sg8
g9
ssg1993
(dp2767
g14
VjAks
p2768
sg7
g14
sg8
g9
ssg1089
(dp2769
g14
VjAjs
p2770
sg7
g14
sg8
g9
sssV152 kai 4
p2771
(dp2772
g587
(dp2773
g14
VjAs
p2774
sg7
g14
sg8
g9
ssg1993
(dp2775
g14
VjAks
p2776
sg7
g14
sg8
g9
ssg1089
(dp2777
g14
VjAjs
p2778
sg7
g14
sg8
g9
sssV22 kai 3
p2779
(dp2780
g346
(dp2781
g5
Vjen
p2782
sg14
Vjan
p2783
sg7
g14
sg16
Vjon
p2784
sg8
g9
sssV159 kai 4
p2785
(dp2786
g1608
(dp2787
g5
Vjings
p2788
sg14
Vj\u0268ngs
p2789
sg7
g14
sg16
Vjungs
p2790
sg8
g54
sssV26 he 1
p2791
(dp2792
g1080
(dp2793
g5
Vwen
p2794
sg14
Vwan
p2795
sg7
g14
sg16
Vwon
p2796
sg8
g9
sssV194 he 4
p2797
(dp2798
g2675
(dp2799
g5
Vwjek
p2800
sg7
g5
sg8
g9
sssV157 he 3
p2801
(dp2802
g422
(dp2803
g5
Vwjengs
p2804
sg7
g5
sg8
g9
sssV157 he 4
p2805
(dp2806
g422
(dp2807
g5
Vwjengs
p2808
sg7
g5
sg8
g9
sssV182 he 3
p2809
(dp2810
g1596
(dp2811
g5
Vwjet
p2812
sg14
Vwjat
p2813
sg7
g14
sg16
Vwjot
p2814
sg8
g9
sssV195 he 4
p2815
(dp2816
Vek
p2817
(dp2818
g5
Vwek
p2819
sg7
g5
sg8
g9
sssV190 he 3
p2820
(dp2821
g200
(dp2822
g5
Vwjek
p2823
sg14
Vwjak
p2824
sg7
g14
sg16
Vwjok
p2825
sg8
g9
sssV174 kai 1
p2826
(dp2827
Vawk
p2828
(dp2829
g5
Vewk
p2830
sg14
Vawk
p2831
sg7
g14
sg16
Vowk
p2832
sg8
g9
ssVuk
p2833
(dp2834
g7
g16
sg16
Vuk
p2835
sg8
g54
sssV6 he 4
p2836
(dp2837
g683
(dp2838
g5
Vwjij
p2839
sg14
Vwj\u0268j
p2840
sg7
g14
sg16
Vwjuj
p2841
sg8
g54
sssV178 he 3
p2842
(dp2843
Vit
p2844
(dp2845
g5
Vwjit
p2846
sg7
g5
sg8
g54
sssV196 kai 3
p2847
(dp2848
g1833
(dp2849
g5
Vrjik
p2850
sg14
Vrj\u0268k
p2851
sg7
g14
sg16
Vrjuk
p2852
sg8
g54
sssV196 kai 4
p2853
(dp2854
g1833
(dp2855
g5
Vjik
p2856
sg14
Vj\u0268k
p2857
sg7
g14
sg16
Vjuk
p2858
sg8
g54
sssV178 he 4
p2859
(dp2860
g2844
(dp2861
g5
Vwjit
p2862
sg7
g5
sg8
g54
sssV27 he 2
p2863
(dp2864
g262
(dp2865
g5
Vwren
p2866
sg14
Vwran
p2867
sg7
g14
sg16
Vwron
p2868
sg8
g9
sssV41 he 2
p2869
(dp2870
g138
(dp2871
g5
Vwret
p2872
sg7
g5
sg8
g9
ssg141
(dp2873
g5
Vwring
p2874
sg14
Vwr\u0268ng
p2875
sg7
g14
sg16
Vwrung
p2876
sg8
g54
ssg146
(dp2877
g5
Vwreng
p2878
sg7
g5
sg8
g9
sssV69 kai 2
p2879
(dp2880
g26
(dp2881
g5
Vre\u0294
p2882
sg7
g5
sg8
g9
sssV162 kai 1
p2883
(dp2884
g1223
(dp2885
g7
g16
sg16
V(r)os
p2886
sg8
g9
ssg244
(dp2887
g134
V-s
p2888
sg7
g134
sg8
g134
ssVok
p2889
(dp2890
g7
g16
sg16
Voks
p2891
sg8
g9
ssg592
(dp2892
g7
g16
sg16
Vrjos
p2893
sg8
g9
ssV\u0268k
p2894
(dp2895
g134
V-s
p2896
sg7
g134
sg8
g134
sssV186 kai 2
p2897
(dp2898
g2564
(dp2899
g5
Vret
p2900
sg14
Vrat
p2901
sg7
g14
sg16
Vrot
p2902
sg8
g9
ssg2569
(dp2903
g5
Vrit
p2904
sg14
Vr\u0268t
p2905
sg7
g14
sg16
Vrut
p2906
sg8
g54
ssVit
p2907
(dp2908
g5
Vrit
p2909
sg7
g5
sg8
g54
sssV84 kai 4
p2910
(dp2911
g920
(dp2912
g5
Vin\u0294
p2913
sg7
g5
sg8
g54
ssg923
(dp2914
g5
Vin\u0294
p2915
sg14
V\u0268n\u0294
p2916
sg7
g14
sg16
Vun\u0294
p2917
sg8
g54
ssg928
(dp2918
g5
Ven\u0294
p2919
sg7
g5
sg8
g9
sssV74 he 3
p2920
(dp2921
g1603
(dp2922
g7
g16
sg16
Vrjun\u0294
p2923
sg8
g54
sssV140 kai 1
p2924
(dp2925
g387
(dp2926
g5
Vens
p2927
sg14
Vans
p2928
sg7
g14
sg16
Vons
p2929
sg8
g9
sssV100 kai 1
p2930
(dp2931
g394
(dp2932
g5
Ving\u0294
p2933
sg14
V\u0268ng\u0294
p2934
sg7
g14
sg16
Vung\u0294
p2935
sg8
g54
sssV122 he 4
p2936
(dp2937
g587
(dp2938
g5
Vw(r)jes
p2939
sg14
Vw(r)jas
p2940
sg7
g14
sg16
Vw(r)jos
p2941
sg8
g9
sssV122 he 2
p2942
(dp2943
g587
(dp2944
g5
Vw(r)jes
p2945
sg14
Vw(r)jas
p2946
sg7
g14
sg16
Vw(r)jos
p2947
sg8
g9
sssV122 he 3
p2948
(dp2949
g587
(dp2950
g5
Vw(r)jes
p2951
sg14
Vw(r)jas
p2952
sg7
g14
sg16
Vw(r)jos
p2953
sg8
g9
sssV31 kai 4
p2954
(dp2955
g244
(dp2956
g5
Viw
p2957
sg7
g5
sg8
g54
ssg247
(dp2958
g5
Vew
p2959
sg7
g5
sg8
g9
sssV17 kai 4
p2960
(dp2961
g653
(dp2962
g5
Vjin
p2963
sg14
Vj\u0268n
p2964
sg7
g14
sg16
Vjun
p2965
sg8
g54
ssg656
(dp2966
g5
Vjin
p2967
sg7
g5
sg8
g54
sssV17 kai 3
p2968
(dp2969
g653
(dp2970
g5
Vrjin
p2971
sg14
Vrj\u0268n
p2972
sg7
g14
sg16
Vrjun
p2973
sg8
g54
ssg656
(dp2974
g5
Vrjin
p2975
sg7
g5
sg8
g54
sssV17 kai 2
p2976
(dp2977
g653
(dp2978
g5
Vrjin
p2979
sg14
Vrj\u0268n
p2980
sg7
g14
sg16
Vrjun
p2981
sg8
g54
ssg656
(dp2982
g5
Vrjin
p2983
sg7
g5
sg8
g54
sssV95 he 2
p2984
(dp2985
g151
(dp2986
g5
Vwre\u014b\u0294
p2987
sg14
Vwra\u014b\u0294
p2988
sg7
g14
sg16
Vwro\u014b\u0294
p2989
sg8
g9
sssV95 he 3
p2990
(dp2991
g151
(dp2992
g5
Vwrjeng\u0294
p2993
sg14
Vwrjang\u0294
p2994
sg7
g14
sg16
Vwrjong\u0294
p2995
sg8
g9
ssg156
(dp2996
g5
Vw(r)jeng\u0294
p2997
sg7
g5
sg8
g9
sssV95 he 4
p2998
(dp2999
g156
(dp3000
g5
Vwjeng\u0294
p3001
sg7
g5
sg8
g9
sssV34 kai 1
p3002
(dp3003
g244
(dp3004
g7
g16
sg16
g244
sg8
g54
ssg508
(dp3005
g5
Vew
p3006
sg14
Vaw
p3007
sg7
g14
sg16
Vow
p3008
sg8
g9
sssV153 he 2
p3009
(dp3010
g1044
(dp3011
g5
Vwrjengs
p3012
sg14
Vwrjangs
p3013
sg7
g14
sg16
Vwrjongs
p3014
sg8
g9
sssV153 he 3
p3015
(dp3016
g1044
(dp3017
g5
Vwjengs
p3018
sg14
Vwjangs
p3019
sg7
g14
sg16
Vwjongs
p3020
sg8
g9
sssV73 he 3
p3021
(dp3022
g653
(dp3023
g7
g16
sg16
Vrjun\u0294
p3024
sg8
g54
ssg656
(dp3025
g5
Vwrjin\u0294
p3026
sg7
g5
sg8
g54
sssV107 kai 3
p3027
(dp3028
g102
(dp3029
g5
V(r)jem\u0294
p3030
sg7
g5
sg8
g9
sssV44 kai 3
p3031
(dp3032
g1608
(dp3033
g5
V(r)jing
p3034
sg14
V(r)j\u0268ng
p3035
sg7
g14
sg16
V(r)jung
p3036
sg8
g54
sssV43 he 4
p3037
(dp3038
g842
(dp3039
g5
Vwe
p3040
sg7
g5
sg8
g9
ssg845
(dp3041
g5
Vweng
p3042
sg7
g5
sg8
g9
sssV44 kai 4
p3043
(dp3044
g1608
(dp3045
g5
Vjing
p3046
sg14
Vj\u0268ng
p3047
sg7
g14
sg16
Vjung
p3048
sg8
g54
sssV107 kai 4
p3049
(dp3050
g102
(dp3051
g5
Vjem\u0294
p3052
sg7
g5
sg8
g9
sssV45 he 1
p3053
(dp3054
g394
(dp3055
g5
Vwing
p3056
sg14
Vw\u0268ng
p3057
sg7
g14
sg16
Vwung
p3058
sg8
g54
sssV195 kai 4
p3059
(dp3060
Vawk
p3061
(dp3062
g5
Vewk
p3063
sg7
g5
sg8
g9
ssVuk
p3064
(dp3065
g5
Viwk
p3066
sg7
g5
sg8
g54
ssg2817
(dp3067
g5
Vek
p3068
sg7
g5
sg8
g9
sssV172 he 3
p3069
(dp3070
g401
(dp3071
g5
Vwjems
p3072
sg14
Vwjams
p3073
sg7
g14
sg16
Vwjoms
p3074
sg8
g9
sssV133 he 3
p3075
(dp3076
g653
(dp3077
g7
g16
sg16
Vrjuns
p3078
sg8
g54
ssg656
(dp3079
g5
Vwrjins
p3080
sg7
g5
sg8
g54
sssV129 kai 2
p3081
(dp3082
g1885
(dp3083
g5
Vreps
p3084
sg14
Vraps
p3085
sg7
g14
sg16
Vrops
p3086
sg8
g9
ssg1890
(dp3087
g5
Vrets
p3088
sg14
Vrats
p3089
sg7
g14
sg16
Vrots
p3090
sg8
g9
sssV127 he 2
p3091
(dp3092
g26
(dp3093
g5
Vwres
p3094
sg7
g5
sg8
g9
sssV78 he 1
p3095
(dp3096
g672
(dp3097
g7
g16
sg16
Vun\u0294
p3098
sg8
g54
sssV166 kai 1
p3099
(dp3100
g2089
(dp3101
g5
Vems
p3102
sg14
Vams
p3103
sg7
g14
sg16
Voms
p3104
sg8
g9
sssV83 kai 2
p3105
(dp3106
g2543
(dp3107
g5
Vrin\u0294
p3108
sg7
g5
sg8
g54
ssg1123
(dp3109
g5
Vrin\u0294
p3110
sg14
Vr\u0268n\u0294
p3111
sg7
g14
sg16
Vrun\u0294
p3112
sg8
g54
ssg1128
(dp3113
g5
Vren\u0294
p3114
sg7
g5
sg8
g9
sssV90 kai 1
p3115
(dp3116
g646
(dp3117
g5
Vej\u0294
p3118
sg14
Vaj\u0294
p3119
sg7
g14
sg16
Voj\u0294
p3120
sg8
g9
sssV192 kai 2
p3121
(dp3122
g2680
(dp3123
g5
Vrek
p3124
sg14
Vrak
p3125
sg7
g14
sg16
Vrok
p3126
sg8
g9
sssV192 kai 3
p3127
(dp3128
g2680
(dp3129
g5
Vrek
p3130
sg14
Vrak
p3131
sg7
g14
sg16
Vrok
p3132
sg8
g9
sssV36 kai 3
p3133
(dp3134
g95
(dp3135
g14
VjAj
p3136
sg7
g14
sg8
g9
sssV36 kai 1
p3137
(dp3138
g95
(dp3139
g5
Vej
p3140
sg14
Vaj
p3141
sg7
g14
sg16
Voj
p3142
sg8
g9
sssV11 he 1
p3143
(dp3144
g587
(dp3145
g5
Ve
p3146
sg14
g587
sg7
g14
sg16
Vo
p3147
sg8
g9
sssV20 kai 3
p3148
(dp3149
g305
(dp3150
g5
Vi\u032f\u01ddn
p3151
sg7
g5
sg8
g54
sssV197 he 1
p3152
(dp3153
g519
(dp3154
g5
Vwik
p3155
sg14
Vw\u0268k
p3156
sg7
g14
sg16
Vwuk
p3157
sg8
g54
sssV59 he 3
p3158
(dp3159
g427
(dp3160
g7
g16
sg16
Vrjong\u0294
p3161
sg8
g9
sssV97 kai 4
p3162
(dp3163
g422
(dp3164
g5
Veng\u0294
p3165
sg7
g5
sg8
g9
sssV84 he 4
p3166
(dp3167
g920
(dp3168
g5
Vwin\u0294
p3169
sg7
g5
sg8
g54
ssg923
(dp3170
g5
Vwin\u0294
p3171
sg14
Vw\u0268n\u0294
p3172
sg7
g14
sg16
Vwun\u0294
p3173
sg8
g54
ssg928
(dp3174
g5
Vwen\u0294
p3175
sg7
g5
sg8
g9
sssV84 he 3
p3176
(dp3177
g923
(dp3178
g5
Vwin\u0294
p3179
sg14
Vw\u0268n\u0294
p3180
sg7
g14
sg16
Vwun\u0294
p3181
sg8
g54
ssg920
(dp3182
g5
Vwin\u0294
p3183
sg7
g5
sg8
g54
sssV97 kai 3
p3184
(dp3185
g422
(dp3186
g5
Vjeng\u0294
p3187
sg7
g5
sg8
g9
sssV204 kai 2
p3188
(dp3189
Vap
p3190
(dp3191
g5
Vrep
p3192
sg14
Vrap
p3193
sg7
g14
sg16
Vrop
p3194
sg8
g9
sssV62 kai 3
p3195
(dp3196
g2400
(dp3197
g5
V(r)jij\u0294
p3198
sg7
g5
sg8
g54
sssV62 kai 2
p3199
(dp3200
g2400
(dp3201
g5
Vrjij\u0294
p3202
sg7
g5
sg8
g54
sssV62 kai 4
p3203
(dp3204
g2400
(dp3205
g5
Vjij\u0294
p3206
sg7
g5
sg8
g54
sssV120 kai 3
p3207
(dp3208
g1157
(dp3209
g5
Vjijs
p3210
sg14
Vj\u0268js
p3211
sg7
g14
sg16
Vjujs
p3212
sg8
g54
ssg1317
(dp3213
g5
Vjips
p3214
sg14
Vj\u0268ps
p3215
sg7
g14
sg16
Vjups
p3216
sg8
g54
ssg1322
(dp3217
g5
Vjits
p3218
sg14
Vj\u0268ts
p3219
sg7
g14
sg16
Vjuts
p3220
sg8
g54
sssV83 he 2
p3221
(dp3222
g1123
(dp3223
g5
Vwrin\u0294
p3224
sg14
Vwr\u0268n\u0294
p3225
sg7
g14
sg16
Vwrun\u0294
p3226
sg8
g54
ssg1128
(dp3227
g5
Vwren\u0294
p3228
sg7
g5
sg8
g9
sssV161 kai 4
p3229
(dp3230
g2004
(dp3231
g7
g16
sg16
Voks
p3232
sg8
g9
ssg1697
(dp3233
g5
Vwjis
p3234
sg14
Vwj\u0268s
p3235
sg7
g14
sg16
Vwjus
p3236
sg8
g54
ssg592
(dp3237
g7
g16
sg16
Vjos
p3238
sg8
g9
ssg2024
(dp3239
g5
Vwjiks
p3240
sg14
Vwj\u0268ks
p3241
sg7
g14
sg16
Vwjuks
p3242
sg8
g54
ssg244
(dp3243
g7
g16
sg16
Vjus
p3244
sg8
g54
ssg2011
(dp3245
g7
g16
sg16
Vjuks
p3246
sg8
g54
sssV132 he 3
p3247
(dp3248
Vap
p3249
(dp3250
g5
Vwjeps
p3251
sg14
Vwjaps
p3252
sg7
g14
sg16
Vwjops
p3253
sg8
g9
ssVat
p3254
(dp3255
g5
Vwjets
p3256
sg14
Vwjats
p3257
sg7
g14
sg16
Vwjots
p3258
sg8
g9
sssV188 kai 4
p3259
(dp3260
g538
(dp3261
g5
Vet
p3262
sg7
g5
sg8
g9
ssg541
(dp3263
g5
Vit
p3264
sg14
V\u0268t
p3265
sg7
g14
sg16
Vut
p3266
sg8
g54
ssg546
(dp3267
g5
Vit
p3268
sg7
g5
sg8
g54
sssV43 kai 4
p3269
(dp3270
g842
(dp3271
g5
g26
sg7
g5
sg8
g9
ssg845
(dp3272
g5
Veng
p3273
sg7
g5
sg8
g9
sssV103 kai 4
p3274
(dp3275
g244
(dp3276
g5
Vjiw\u0294
p3277
sg7
g5
sg8
g54
sssV72 kai 4
p3278
(dp3279
g362
(dp3280
g5
Vi\u0294
p3281
sg14
V\u0268\u0294
p3282
sg7
g14
sg16
Vu\u0294
p3283
sg8
g54
sssV132 kai 3
p3284
(dp3285
g3249
(dp3286
g5
Vjeps
p3287
sg14
Vjaps
p3288
sg7
g14
sg16
Vjops
p3289
sg8
g9
ssg3254
(dp3290
g5
Vjets
p3291
sg14
Vjats
p3292
sg7
g14
sg16
Vjots
p3293
sg8
g9
sssV96 he 2
p3294
(dp3295
g138
(dp3296
g5
Vwret\u0294
p3297
sg7
g5
sg8
g9
ssg141
(dp3298
g5
Vwring\u0294
p3299
sg14
Vwr\u0268ng\u0294
p3300
sg7
g14
sg16
Vwrung\u0294
p3301
sg8
g54
ssg146
(dp3302
g5
Vwreng\u0294
p3303
sg7
g5
sg8
g9
sssV25 he 1
p3304
(dp3305
g387
(dp3306
g5
Vwen
p3307
sg14
Vwan
p3308
sg7
g14
sg16
Vwon
p3309
sg8
g9
sssV63 kai 4
p3310
(dp3311
g551
(dp3312
g5
Vji\u0294
p3313
sg14
Vj\u0268\u0294
p3314
sg7
g14
sg16
Vju\u0294
p3315
sg8
g54
sssV28 kai 2
p3316
(dp3317
g2543
(dp3318
g5
Vrin
p3319
sg7
g5
sg8
g54
ssg1123
(dp3320
g5
Vrin
p3321
sg14
Vr\u0268n
p3322
sg7
g14
sg16
Vrun
p3323
sg8
g54
ssg1128
(dp3324
g5
Vren
p3325
sg7
g5
sg8
g9
sssV64 he 3
p3326
(dp3327
g1157
(dp3328
g5
Vwjij\u0294
p3329
sg14
Vwj\u0268j\u0294
p3330
sg7
g14
sg16
Vwjuj\u0294
p3331
sg8
g54
sssV63 kai 2
p3332
(dp3333
g551
(dp3334
g5
Vrji\u0294
p3335
sg14
Vrj\u0268\u0294
p3336
sg7
g14
sg16
Vrju\u0294
p3337
sg8
g54
sssV63 kai 3
p3338
(dp3339
g551
(dp3340
g5
V(r)ji\u0294
p3341
sg14
V(r)j\u0268\u0294
p3342
sg7
g14
sg16
V(r)ju\u0294
p3343
sg8
g54
sssV154 kai 1
p3344
(dp3345
g255
(dp3346
g5
Vengs
p3347
sg14
Vangs
p3348
sg7
g14
sg16
Vongs
p3349
sg8
g9
sssV61 kai 2
p3350
(dp3351
g161
(dp3352
g5
Vrjej\u0294
p3353
sg14
Vrjaj\u0294
p3354
sg7
g14
sg16
Vrjoj\u0294
p3355
sg8
g9
ssg26
(dp3356
g5
Vrje\u0294
p3357
sg7
g5
sg8
g9
sssV61 kai 3
p3358
(dp3359
g161
(dp3360
g5
V(r)jej\u0294
p3361
sg14
V(r)jaj\u0294
p3362
sg7
g14
sg16
V(r)joj\u0294
p3363
sg8
g9
ssg26
(dp3364
g5
V(r)je\u0294
p3365
sg7
g5
sg8
g9
sssV61 kai 4
p3366
(dp3367
g161
(dp3368
g5
Vjej\u0294
p3369
sg14
Vjaj\u0294
p3370
sg7
g14
sg16
Vjoj\u0294
p3371
sg8
g9
ssg26
(dp3372
g5
Vje\u0294
p3373
sg7
g5
sg8
g9
sssV187 kai 2
p3374
(dp3375
g2650
(dp3376
g5
Vret
p3377
sg7
g5
sg8
g9
sssV145 kai 2
p3378
(dp3379
g740
(dp3380
g5
V[rjen]s
p3381
sg14
V[rjan]s
p3382
sg7
g14
sg16
V[rjon]s
p3383
sg8
g9
sssV145 kai 3
p3384
(dp3385
g740
(dp3386
g5
V(r)jens
p3387
sg14
V(r)jans
p3388
sg7
g14
sg16
V(r)jons
p3389
sg8
g9
sssV145 kai 4
p3390
(dp3391
g740
(dp3392
g5
Vjens
p3393
sg7
g5
sg8
g9
sssV6 he 3
p3394
(dp3395
g683
(dp3396
g5
Vwrjij
p3397
sg14
Vwrj\u0268j
p3398
sg7
g14
sg16
Vwrjuj
p3399
sg8
g54
ssg702
(dp3400
g5
Vwrji
p3401
sg14
Vwrj\u0268
p3402
sg7
g14
sg16
Vwrju
p3403
sg8
g54
sssV6 he 2
p3404
(dp3405
g683
(dp3406
g5
Vwrjij
p3407
sg14
Vwrj\u0268j
p3408
sg7
g14
sg16
Vwrjuj
p3409
sg8
g54
sssV14 kai 2
p3410
(dp3411
g1000
(dp3412
g5
Vrij
p3413
sg14
Vr\u0268j
p3414
sg7
g14
sg16
Vruj
p3415
sg8
g54
ssg982
(dp3416
g5
Vri
p3417
sg14
Vr\u0268
p3418
sg7
g14
sg16
Vru
p3419
sg8
g54
ssg972
(dp3420
g5
Vrij
p3421
sg7
g5
sg8
g54
sssV14 kai 3
p3422
(dp3423
g972
(dp3424
g5
Vrij
p3425
sg7
g5
sg8
g54
sssV9 he 3
p3426
(dp3427
g587
(dp3428
g134
g264
sg7
g134
sg8
g134
sssV9 he 4
p3429
(dp3430
g587
(dp3431
g134
g264
sg7
g134
sg8
g134
sssV93 kai 4
p3432
(dp3433
g1044
(dp3434
g5
Vjeng\u0294
p3435
sg14
Vjang\u0294
p3436
sg7
g14
sg16
Vjong\u0294
p3437
sg8
g9
sssV75 he 3
p3438
(dp3439
g305
(dp3440
g7
g16
sg16
Vjun\u0294
p3441
sg8
g54
sssV140 he 1
p3442
(dp3443
g387
(dp3444
g5
Vwens
p3445
sg14
Vwans
p3446
sg7
g14
sg16
Vwons
p3447
sg8
g9
sssV145 he 4
p3448
(dp3449
g740
(dp3450
g5
Vwjens
p3451
sg7
g5
sg8
g9
sssV184 kai 1
p3452
(dp3453
Vat
p3454
(dp3455
g5
Vet
p3456
sg14
Vat
p3457
sg7
g14
sg16
Vot
p3458
sg8
g9
sssV54 kai 3
p3459
(dp3460
g782
(dp3461
g5
Vrim
p3462
sg14
Vr\u0268m
p3463
sg7
g14
sg16
Vrum
p3464
sg8
g54
sssV46 kai 4
p3465
(dp3466
g1697
(dp3467
g5
Vwji
p3468
sg14
Vwj\u0268
p3469
sg7
g14
sg16
Vwju
p3470
sg8
g54
ssg244
(dp3471
g7
g16
sg16
Vju
p3472
sg8
g54
ssg592
(dp3473
g7
g16
sg16
Vjo
p3474
sg8
g9
sssV46 kai 3
p3475
(dp3476
g1697
(dp3477
g5
Vwji
p3478
sg14
Vwj\u0268
p3479
sg7
g14
sg16
Vwju
p3480
sg8
g54
ssg244
(dp3481
g7
g16
sg16
V(r)ju
p3482
sg8
g54
ssg592
(dp3483
g7
g16
sg16
g592
sg8
g9
sssV46 kai 2
p3484
(dp3485
g244
(dp3486
g7
g16
sg16
Vrju
p3487
sg8
g54
ssg592
(dp3488
g7
g16
sg16
Vro
p3489
sg8
g9
sssV3 kai 3
p3490
(dp3491
g427
(dp3492
g134
g264
sg7
g134
sg8
g134
sssV93 kai 3
p3493
(dp3494
g1044
(dp3495
g5
Vrjeng\u0294
p3496
sg14
Vrjang\u0294
p3497
sg7
g14
sg16
Vrjong\u0294
p3498
sg8
g9
sssV93 kai 2
p3499
(dp3500
g1044
(dp3501
g5
Vreng\u0294
p3502
sg14
Vrang\u0294
p3503
sg7
g14
sg16
Vrong\u0294
p3504
sg8
g9
sssV106 kai 1
p3505
(dp3506
g2089
(dp3507
g5
Vem\u0294
p3508
sg14
Vam\u0294
p3509
sg7
g14
sg16
Vom\u0294
p3510
sg8
g9
sssV24 kai 1
p3511
(dp3512
g1494
(dp3513
g5
Vin
p3514
sg14
V\u0268n
p3515
sg7
g14
sg16
Vun
p3516
sg8
g54
sssV61 he 3
p3517
(dp3518
g161
(dp3519
g5
Vw(r)jej\u0294
p3520
sg14
Vw(r)jaj\u0294
p3521
sg7
g14
sg16
Vw(r)joj\u0294
p3522
sg8
g9
ssg26
(dp3523
g5
Vwrje\u0294
p3524
sg7
g5
sg8
g9
sssV61 he 2
p3525
(dp3526
g161
(dp3527
g134
V-\u0294
p3528
sg7
g134
sg8
g134
sssV61 he 4
p3529
(dp3530
g161
(dp3531
g5
Vwjej\u0294
p3532
sg14
Vwjaj\u0294
p3533
sg7
g14
sg16
Vwjoj\u0294
p3534
sg8
g9
ssg26
(dp3535
g5
Vwje\u0294
p3536
sg7
g5
sg8
g9
sssV145 he 3
p3537
(dp3538
g740
(dp3539
g5
Vwrjens
p3540
sg14
Vwrjans
p3541
sg7
g14
sg16
Vwrjons
p3542
sg8
g9
sssV145 he 2
p3543
(dp3544
g740
(dp3545
g5
Vw(r)jens
p3546
sg14
Vw(r)jans
p3547
sg7
g14
sg16
Vw(r)jons
p3548
sg8
g9
sss.