(dp0
I0
(dp1
sI1
(dp2
sI2
(dp3
sI3
(dp4
sI4
(dp5
sI5
(dp6
sI6
(dp7
sI7
(dp8
sI8
(dp9
sI9
(dp10
sI10
(dp11
sI11
(dp12
sI12
(dp13
sI13
(dp14
sI14
(dp15
sI15
(dp16
sI16
(dp17
sI17
(dp18
sI18
(dp19
sI19
(dp20
sI20
(dp21
sI21
(dp22
sI22
(dp23
sI23
(dp24
sI24
(dp25
sI25
(dp26
sI26
(dp27
sI27
(dp28
sI28
(dp29
sI29
(dp30
sI30
(dp31
sI31
(dp32
sI32
(dp33
sI33
(dp34
sI34
(dp35
sI35
(dp36
sI36
(dp37
sI37
(dp38
sI38
(dp39
sI39
(dp40
sI40
(dp41
sI41
(dp42
sI42
(dp43
sI43
(dp44
sI44
(dp45
sI45
(dp46
sI46
(dp47
sI47
(dp48
sI48
(dp49
sI49
(dp50
sI50
(dp51
sI51
(dp52
sI52
(dp53
sI53
(dp54
sI54
(dp55
sI55
(dp56
sI56
(dp57
sI57
(dp58
sI58
(dp59
sI59
(dp60
sI60
(dp61
sI61
(dp62
sI62
(dp63
sI63
(dp64
sI64
(dp65
sI65
(dp66
sI66
(dp67
sI67
(dp68
sI68
(dp69
sI69
(dp70
sI70
(dp71
sI71
(dp72
sI72
(dp73
sI73
(dp74
sI74
(dp75
sI75
(dp76
sI76
(dp77
sI77
(dp78
sI78
(dp79
sI79
(dp80
sI80
(dp81
sI81
(dp82
sI82
(dp83
sI83
(dp84
sI84
(dp85
sI85
(dp86
sI86
(dp87
sI87
(dp88
sI88
(dp89
sI89
(dp90
sI90
(dp91
sI91
(dp92
sI92
(dp93
sI93
(dp94
sI94
(dp95
sI95
(dp96
sI96
(dp97
sI97
(dp98
sI98
(dp99
sI99
(dp100
sI100
(dp101
sI101
(dp102
sI102
(dp103
sI103
(dp104
sI104
(dp105
sI105
(dp106
sI106
(dp107
sI107
(dp108
sI108
(dp109
sI109
(dp110
sI110
(dp111
sI111
(dp112
sI112
(dp113
sI113
(dp114
sI114
(dp115
sI115
(dp116
sI116
(dp117
sI117
(dp118
sI118
(dp119
sI119
(dp120
sI120
(dp121
sI121
(dp122
sI122
(dp123
sI123
(dp124
sI124
(dp125
sI125
(dp126
sI126
(dp127
sI127
(dp128
sI128
(dp129
sI129
(dp130
sI130
(dp131
sI131
(dp132
sI132
(dp133
sI133
(dp134
sI134
(dp135
sI135
(dp136
sI136
(dp137
sI137
(dp138
sI138
(dp139
sI139
(dp140
sI140
(dp141
sI141
(dp142
sI142
(dp143
sI143
(dp144
sI144
(dp145
sI145
(dp146
sI146
(dp147
sI147
(dp148
sI148
(dp149
sI149
(dp150
sI150
(dp151
sI151
(dp152
sI152
(dp153
sI153
(dp154
sI154
(dp155
sI155
(dp156
sI156
(dp157
sI157
(dp158
sI158
(dp159
sI159
(dp160
sI160
(dp161
sI161
(dp162
sI162
(dp163
sI163
(dp164
sI164
(dp165
sI165
(dp166
sI166
(dp167
sI167
(dp168
sI168
(dp169
sI169
(dp170
sI170
(dp171
sI171
(dp172
sI172
(dp173
sI173
(dp174
sI174
(dp175
sI175
(dp176
sI176
(dp177
sI177
(dp178
sI178
(dp179
sI179
(dp180
sI180
(dp181
sI181
(dp182
sI182
(dp183
sI183
(dp184
sI184
(dp185
sI185
(dp186
sI186
(dp187
sI187
(dp188
sI188
(dp189
sI189
(dp190
sI190
(dp191
sI191
(dp192
sI192
(dp193
sI193
(dp194
sI194
(dp195
sI195
(dp196
sI196
(dp197
sI197
(dp198
sI198
(dp199
sI199
(dp200
sI200
(dp201
sI201
(dp202
sI202
(dp203
sI203
(dp204
sI204
(dp205
sI205
(dp206
sI206
(dp207
sI207
(dp208
sI208
(dp209
sI209
(dp210
sI210
(dp211
sI211
(dp212
sI212
(dp213
sI213
(dp214
sI214
(dp215
sI215
(dp216
sI216
(dp217
sI217
(dp218
sI218
(dp219
sI219
(dp220
sI220
(dp221
sI221
(dp222
sI222
(dp223
sI223
(dp224
sI224
(dp225
sI225
(dp226
sI226
(dp227
sI227
(dp228
sI228
(dp229
sI229
(dp230
sI230
(dp231
sI231
(dp232
sI232
(dp233
sI233
(dp234
sI234
(dp235
sI235
(dp236
sI236
(dp237
sI237
(dp238
sI238
(dp239
sI239
(dp240
sI240
(dp241
sI241
(dp242
sI242
(dp243
sI243
(dp244
sI244
(dp245
sI245
(dp246
sI246
(dp247
sI247
(dp248
sI248
(dp249
sI249
(dp250
sI250
(dp251
sI251
(dp252
sI252
(dp253
sI253
(dp254
sI254
(dp255
sI255
(dp256
sI256
(dp257
sI257
(dp258
sI258
(dp259
sI259
(dp260
sI260
(dp261
sI261
(dp262
sI262
(dp263
sI263
(dp264
sI264
(dp265
sI265
(dp266
sI266
(dp267
sI267
(dp268
sI268
(dp269
sI269
(dp270
sI270
(dp271
sI271
(dp272
sI272
(dp273
sI273
(dp274
sI274
(dp275
sI275
(dp276
sI276
(dp277
sI277
(dp278
sI278
(dp279
sI279
(dp280
sI280
(dp281
sI281
(dp282
sI282
(dp283
sI283
(dp284
sI284
(dp285
sI285
(dp286
sI286
(dp287
sI287
(dp288
sI288
(dp289
sI289
(dp290
sI290
(dp291
sI291
(dp292
sI292
(dp293
sI293
(dp294
sI294
(dp295
sI295
(dp296
sI296
(dp297
sI297
(dp298
sI298
(dp299
sI299
(dp300
sI300
(dp301
sI301
(dp302
sI302
(dp303
sI303
(dp304
sI304
(dp305
sI305
(dp306
sI306
(dp307
sI307
(dp308
sI308
(dp309
sI309
(dp310
sI310
(dp311
sI311
(dp312
sI312
(dp313
sI313
(dp314
sI314
(dp315
sI315
(dp316
sI316
(dp317
sI317
(dp318
sI318
(dp319
sI319
(dp320
sI320
(dp321
sI321
(dp322
sI322
(dp323
sI323
(dp324
sI324
(dp325
sI325
(dp326
sI326
(dp327
sI327
(dp328
sI328
(dp329
sI329
(dp330
sI330
(dp331
sI331
(dp332
sI332
(dp333
sI333
(dp334
sI334
(dp335
sI335
(dp336
sI336
(dp337
sI337
(dp338
sI338
(dp339
sI339
(dp340
sI340
(dp341
sI341
(dp342
sI342
(dp343
sI343
(dp344
sI344
(dp345
sI345
(dp346
sI346
(dp347
sI347
(dp348
sI348
(dp349
sI349
(dp350
sI350
(dp351
sI351
(dp352
sI352
(dp353
sI353
(dp354
sI354
(dp355
sI355
(dp356
sI356
(dp357
sI357
(dp358
sI358
(dp359
sI359
(dp360
sI360
(dp361
sI361
(dp362
sI362
(dp363
sI363
(dp364
sI364
(dp365
sI365
(dp366
sI366
(dp367
sI367
(dp368
sI368
(dp369
sI369
(dp370
sI370
(dp371
sI371
(dp372
sI372
(dp373
sI373
(dp374
sI374
(dp375
sI375
(dp376
sI376
(dp377
sI377
(dp378
sI378
(dp379
sI379
(dp380
sI380
(dp381
sI381
(dp382
sI382
(dp383
sI383
(dp384
sI384
(dp385
sI385
(dp386
sI386
(dp387
sI387
(dp388
sI388
(dp389
sI389
(dp390
sI390
(dp391
sI391
(dp392
sI392
(dp393
sI393
(dp394
sI394
(dp395
sI395
(dp396
sI396
(dp397
sI397
(dp398
sI398
(dp399
sI399
(dp400
sI400
(dp401
sI401
(dp402
sI402
(dp403
sI403
(dp404
sI404
(dp405
sI405
(dp406
sI406
(dp407
sI407
(dp408
sI408
(dp409
sI409
(dp410
sI410
(dp411
sI411
(dp412
sI412
(dp413
sI413
(dp414
sI414
(dp415
sI415
(dp416
sI416
(dp417
sI417
(dp418
sI418
(dp419
sI419
(dp420
sI420
(dp421
sI421
(dp422
sI422
(dp423
sI423
(dp424
sI424
(dp425
sI425
(dp426
sI426
(dp427
sI427
(dp428
sI428
(dp429
sI429
(dp430
sI430
(dp431
sI431
(dp432
sI432
(dp433
sI433
(dp434
sI434
(dp435
sI435
(dp436
sI436
(dp437
sI437
(dp438
sI438
(dp439
sI439
(dp440
sI440
(dp441
sI441
(dp442
sI442
(dp443
sI443
(dp444
sI444
(dp445
sI445
(dp446
sI446
(dp447
sI447
(dp448
sI448
(dp449
sI449
(dp450
sI450
(dp451
sI451
(dp452
sI452
(dp453
sI453
(dp454
sI454
(dp455
sI455
(dp456
sI456
(dp457
sI457
(dp458
sI458
(dp459
sI459
(dp460
sI460
(dp461
sI461
(dp462
sI462
(dp463
sI463
(dp464
sI464
(dp465
sI465
(dp466
sI466
(dp467
sI467
(dp468
sI468
(dp469
sI469
(dp470
sI470
(dp471
sI471
(dp472
sI472
(dp473
sI473
(dp474
sI474
(dp475
sI475
(dp476
sI476
(dp477
sI477
(dp478
sI478
(dp479
sI479
(dp480
sI480
(dp481
sI481
(dp482
sI482
(dp483
sI483
(dp484
sI484
(dp485
sI485
(dp486
sI486
(dp487
sI487
(dp488
sI488
(dp489
sI489
(dp490
sI490
(dp491
sI491
(dp492
sI492
(dp493
sI493
(dp494
sI494
(dp495
sI495
(dp496
sI496
(dp497
sI497
(dp498
sI498
(dp499
sI499
(dp500
sI500
(dp501
sI501
(dp502
sI502
(dp503
sI503
(dp504
sI504
(dp505
sI505
(dp506
sI506
(dp507
sI507
(dp508
sI508
(dp509
sI509
(dp510
sI510
(dp511
sI511
(dp512
sI512
(dp513
sI513
(dp514
sI514
(dp515
sI515
(dp516
sI516
(dp517
sI517
(dp518
sI518
(dp519
sI519
(dp520
sI520
(dp521
sI521
(dp522
sI522
(dp523
sI523
(dp524
sI524
(dp525
sI525
(dp526
sI526
(dp527
sI527
(dp528
sI528
(dp529
sI529
(dp530
sI530
(dp531
sI531
(dp532
sI532
(dp533
sI533
(dp534
sI534
(dp535
sI535
(dp536
sI536
(dp537
sI537
(dp538
sI538
(dp539
sI539
(dp540
sI540
(dp541
sI541
(dp542
sI542
(dp543
sI543
(dp544
sI544
(dp545
sI545
(dp546
sI546
(dp547
sI547
(dp548
sI548
(dp549
sI549
(dp550
sI550
(dp551
sI551
(dp552
sI552
(dp553
sI553
(dp554
sI554
(dp555
sI555
(dp556
sI556
(dp557
sI557
(dp558
sI558
(dp559
sI559
(dp560
sI560
(dp561
sI561
(dp562
sI562
(dp563
sI563
(dp564
sI564
(dp565
sI565
(dp566
sI566
(dp567
sI567
(dp568
sI568
(dp569
sI569
(dp570
sI570
(dp571
sI571
(dp572
sI572
(dp573
sI573
(dp574
sI574
(dp575
sI575
(dp576
sI576
(dp577
sI577
(dp578
sI578
(dp579
sI579
(dp580
sI580
(dp581
sI581
(dp582
sI582
(dp583
sI583
(dp584
sI584
(dp585
sI585
(dp586
sI586
(dp587
sI587
(dp588
sI588
(dp589
sI589
(dp590
sI590
(dp591
sI591
(dp592
sI592
(dp593
sI593
(dp594
sI594
(dp595
sI595
(dp596
sI596
(dp597
sI597
(dp598
sI598
(dp599
sI599
(dp600
sI600
(dp601
sI601
(dp602
sI602
(dp603
sI603
(dp604
sI604
(dp605
sI605
(dp606
sI606
(dp607
sI607
(dp608
sI608
(dp609
sI609
(dp610
sI610
(dp611
sI611
(dp612
sI612
(dp613
sI613
(dp614
sI614
(dp615
sI615
(dp616
sI616
(dp617
sI617
(dp618
sI618
(dp619
sI619
(dp620
sI620
(dp621
sI621
(dp622
sI622
(dp623
sI623
(dp624
sI624
(dp625
sI625
(dp626
sI626
(dp627
sI627
(dp628
sI628
(dp629
sI629
(dp630
sI630
(dp631
sI631
(dp632
sI632
(dp633
sI633
(dp634
sI634
(dp635
sI635
(dp636
sI636
(dp637
sI637
(dp638
sI638
(dp639
sI639
(dp640
sI640
(dp641
sI641
(dp642
sI642
(dp643
sI643
(dp644
sI644
(dp645
sI645
(dp646
sI646
(dp647
sI647
(dp648
sI648
(dp649
sI649
(dp650
sI650
(dp651
sI651
(dp652
sI652
(dp653
sI653
(dp654
sI654
(dp655
sI655
(dp656
sI656
(dp657
sI657
(dp658
sI658
(dp659
sI659
(dp660
sI660
(dp661
sI661
(dp662
sI662
(dp663
sI663
(dp664
sI664
(dp665
sI665
(dp666
sI666
(dp667
sI667
(dp668
sI668
(dp669
sI669
(dp670
sI670
(dp671
sI671
(dp672
sI672
(dp673
sI673
(dp674
sI674
(dp675
sI675
(dp676
sI676
(dp677
sI677
(dp678
sI678
(dp679
sI679
(dp680
sI680
(dp681
sI681
(dp682
sI682
(dp683
sI683
(dp684
sI684
(dp685
sI685
(dp686
sI686
(dp687
sI687
(dp688
sI688
(dp689
sI689
(dp690
sI690
(dp691
sI691
(dp692
sI692
(dp693
sI693
(dp694
sI694
(dp695
sI695
(dp696
sI696
(dp697
sI697
(dp698
sI698
(dp699
sI699
(dp700
sI700
(dp701
sI701
(dp702
sI702
(dp703
sI703
(dp704
sI704
(dp705
sI705
(dp706
sI706
(dp707
sI707
(dp708
sI708
(dp709
sI709
(dp710
sI710
(dp711
sI711
(dp712
sI712
(dp713
sI713
(dp714
sI714
(dp715
sI715
(dp716
sI716
(dp717
sI717
(dp718
sI718
(dp719
sI719
(dp720
sI720
(dp721
sI721
(dp722
sI722
(dp723
sI723
(dp724
sI724
(dp725
sI725
(dp726
sI726
(dp727
sI727
(dp728
sI728
(dp729
sI729
(dp730
sI730
(dp731
sI731
(dp732
sI732
(dp733
sI733
(dp734
sI734
(dp735
sI735
(dp736
sI736
(dp737
sI737
(dp738
sI738
(dp739
sI739
(dp740
sI740
(dp741
sI741
(dp742
sI742
(dp743
sI743
(dp744
sI744
(dp745
sI745
(dp746
sI746
(dp747
sI747
(dp748
sI748
(dp749
sI749
(dp750
sI750
(dp751
sI751
(dp752
sI752
(dp753
sI753
(dp754
sI754
(dp755
sI755
(dp756
sI756
(dp757
sI757
(dp758
sI758
(dp759
sI759
(dp760
sI760
(dp761
sI761
(dp762
sI762
(dp763
sI763
(dp764
sI764
(dp765
sI765
(dp766
sI766
(dp767
sI767
(dp768
sI768
(dp769
sI769
(dp770
sI770
(dp771
sI771
(dp772
sI772
(dp773
sI773
(dp774
sI774
(dp775
sI775
(dp776
sI776
(dp777
sI777
(dp778
sI778
(dp779
sI779
(dp780
sI780
(dp781
sI781
(dp782
sI782
(dp783
sI783
(dp784
sI784
(dp785
sI785
(dp786
sI786
(dp787
sI787
(dp788
sI788
(dp789
sI789
(dp790
sI790
(dp791
sI791
(dp792
sI792
(dp793
sI793
(dp794
sI794
(dp795
sI795
(dp796
sI796
(dp797
sI797
(dp798
sI798
(dp799
sI799
(dp800
sI800
(dp801
sI801
(dp802
sI802
(dp803
sI803
(dp804
sI804
(dp805
sI805
(dp806
sI806
(dp807
sI807
(dp808
sI808
(dp809
sI809
(dp810
sI810
(dp811
sI811
(dp812
sI812
(dp813
sI813
(dp814
sI814
(dp815
sI815
(dp816
sI816
(dp817
sI817
(dp818
sI818
(dp819
sI819
(dp820
sI820
(dp821
sI821
(dp822
sI822
(dp823
sI823
(dp824
sI824
(dp825
sI825
(dp826
sI826
(dp827
sI827
(dp828
sI828
(dp829
sI829
(dp830
sI830
(dp831
sI831
(dp832
sI832
(dp833
sI833
(dp834
sI834
(dp835
sI835
(dp836
sI836
(dp837
sI837
(dp838
sI838
(dp839
sI839
(dp840
sI840
(dp841
sI841
(dp842
sI842
(dp843
sI843
(dp844
sI844
(dp845
sI845
(dp846
sI846
(dp847
sI847
(dp848
sI848
(dp849
sI849
(dp850
sI850
(dp851
sI851
(dp852
sI852
(dp853
sI853
(dp854
sI854
(dp855
sI855
(dp856
sI856
(dp857
sI857
(dp858
sI858
(dp859
sI859
(dp860
sI860
(dp861
sI861
(dp862
sI862
(dp863
sI863
(dp864
sI864
(dp865
sI865
(dp866
sI866
(dp867
sI867
(dp868
sI868
(dp869
sI869
(dp870
sI870
(dp871
sI871
(dp872
sI872
(dp873
sI873
(dp874
sI874
(dp875
sI875
(dp876
sI876
(dp877
sI877
(dp878
sI878
(dp879
sI879
(dp880
sI880
(dp881
sI881
(dp882
sI882
(dp883
sI883
(dp884
sI884
(dp885
sI885
(dp886
sI886
(dp887
sI887
(dp888
sI888
(dp889
sI889
(dp890
sI890
(dp891
sI891
(dp892
sI892
(dp893
sI893
(dp894
sI894
(dp895
sI895
(dp896
sI896
(dp897
sI897
(dp898
sI898
(dp899
sI899
(dp900
sI900
(dp901
sI901
(dp902
sI902
(dp903
sI903
(dp904
sI904
(dp905
sI905
(dp906
sI906
(dp907
sI907
(dp908
sI908
(dp909
sI909
(dp910
sI910
(dp911
sI911
(dp912
sI912
(dp913
sI913
(dp914
sI914
(dp915
sI915
(dp916
sI916
(dp917
sI917
(dp918
sI918
(dp919
sI919
(dp920
sI920
(dp921
sI921
(dp922
sI922
(dp923
sI923
(dp924
sI924
(dp925
sI925
(dp926
sI926
(dp927
sI927
(dp928
sI928
(dp929
sI929
(dp930
sI930
(dp931
sI931
(dp932
sI932
(dp933
sI933
(dp934
sI934
(dp935
sI935
(dp936
sI936
(dp937
sI937
(dp938
sI938
(dp939
sI939
(dp940
sI940
(dp941
sI941
(dp942
sI942
(dp943
sI943
(dp944
sI944
(dp945
sI945
(dp946
sI946
(dp947
sI947
(dp948
sI948
(dp949
sI949
(dp950
sI950
(dp951
sI951
(dp952
sI952
(dp953
sI953
(dp954
sI954
(dp955
sI955
(dp956
sI956
(dp957
sI957
(dp958
sI958
(dp959
sI959
(dp960
sI960
(dp961
sI961
(dp962
sI962
(dp963
sI963
(dp964
sI964
(dp965
sI965
(dp966
sI966
(dp967
sI967
(dp968
sI968
(dp969
sI969
(dp970
sI970
(dp971
sI971
(dp972
sI972
(dp973
sI973
(dp974
sI974
(dp975
sI975
(dp976
sI976
(dp977
sI977
(dp978
sI978
(dp979
sI979
(dp980
sI980
(dp981
sI981
(dp982
sI982
(dp983
sI983
(dp984
sI984
(dp985
sI985
(dp986
sI986
(dp987
sI987
(dp988
sI988
(dp989
sI989
(dp990
sI990
(dp991
sI991
(dp992
sI992
(dp993
sI993
(dp994
sI994
(dp995
sI995
(dp996
sI996
(dp997
sI997
(dp998
sI998
(dp999
sI999
(dp1000
sI1000
(dp1001
sI1001
(dp1002
sI1002
(dp1003
sI1003
(dp1004
sI1004
(dp1005
sI1005
(dp1006
sI1006
(dp1007
sI1007
(dp1008
sI1008
(dp1009
sI1009
(dp1010
sI1010
(dp1011
sI1011
(dp1012
sI1012
(dp1013
sI1013
(dp1014
sI1014
(dp1015
sI1015
(dp1016
sI1016
(dp1017
sI1017
(dp1018
sI1018
(dp1019
sI1019
(dp1020
sI1020
(dp1021
sI1021
(dp1022
sI1022
(dp1023
sI1023
(dp1024
sI1024
(dp1025
sI1025
(dp1026
sI1026
(dp1027
sI1027
(dp1028
sI1028
(dp1029
sI1029
(dp1030
sI1030
(dp1031
sI1031
(dp1032
sI1032
(dp1033
sI1033
(dp1034
sI1034
(dp1035
sI1035
(dp1036
sI1036
(dp1037
sI1037
(dp1038
sI1038
(dp1039
sI1039
(dp1040
sI1040
(dp1041
sI1041
(dp1042
sI1042
(dp1043
sI1043
(dp1044
sI1044
(dp1045
sI1045
(dp1046
sI1046
(dp1047
sI1047
(dp1048
sI1048
(dp1049
sI1049
(dp1050
sI1050
(dp1051
sI1051
(dp1052
sI1052
(dp1053
sI1053
(dp1054
sI1054
(dp1055
sI1055
(dp1056
sI1056
(dp1057
sI1057
(dp1058
sI1058
(dp1059
sI1059
(dp1060
sI1060
(dp1061
sI1061
(dp1062
sI1062
(dp1063
sI1063
(dp1064
sI1064
(dp1065
sI1065
(dp1066
sI1066
(dp1067
sI1067
(dp1068
sI1068
(dp1069
sI1069
(dp1070
sI1070
(dp1071
sI1071
(dp1072
sI1072
(dp1073
sI1073
(dp1074
sI1074
(dp1075
sI1075
(dp1076
sI1076
(dp1077
sI1077
(dp1078
sI1078
(dp1079
sI1079
(dp1080
sI1080
(dp1081
sI1081
(dp1082
sI1082
(dp1083
sI1083
(dp1084
sI1084
(dp1085
sI1085
(dp1086
sI1086
(dp1087
sI1087
(dp1088
sI1088
(dp1089
sI1089
(dp1090
sI1090
(dp1091
sI1091
(dp1092
sI1092
(dp1093
sI1093
(dp1094
sI1094
(dp1095
sI1095
(dp1096
sI1096
(dp1097
sI1097
(dp1098
sI1098
(dp1099
sI1099
(dp1100
sI1100
(dp1101
sI1101
(dp1102
sI1102
(dp1103
sI1103
(dp1104
sI1104
(dp1105
sI1105
(dp1106
sI1106
(dp1107
sI1107
(dp1108
sI1108
(dp1109
sI1109
(dp1110
sI1110
(dp1111
sI1111
(dp1112
sI1112
(dp1113
sI1113
(dp1114
sI1114
(dp1115
sI1115
(dp1116
sI1116
(dp1117
sI1117
(dp1118
sI1118
(dp1119
sI1119
(dp1120
sI1120
(dp1121
sI1121
(dp1122
sI1122
(dp1123
sI1123
(dp1124
sI1124
(dp1125
sI1125
(dp1126
sI1126
(dp1127
sI1127
(dp1128
sI1128
(dp1129
sI1129
(dp1130
sI1130
(dp1131
sI1131
(dp1132
sI1132
(dp1133
sI1133
(dp1134
sI1134
(dp1135
sI1135
(dp1136
sI1136
(dp1137
sI1137
(dp1138
sI1138
(dp1139
sI1139
(dp1140
sI1140
(dp1141
sI1141
(dp1142
sI1142
(dp1143
sI1143
(dp1144
sI1144
(dp1145
sI1145
(dp1146
sI1146
(dp1147
sI1147
(dp1148
sI1148
(dp1149
sI1149
(dp1150
sI1150
(dp1151
sI1151
(dp1152
sI1152
(dp1153
sI1153
(dp1154
sI1154
(dp1155
sI1155
(dp1156
sI1156
(dp1157
sI1157
(dp1158
sI1158
(dp1159
sI1159
(dp1160
sI1160
(dp1161
sI1161
(dp1162
sI1162
(dp1163
sI1163
(dp1164
sI1164
(dp1165
sI1165
(dp1166
sI1166
(dp1167
sI1167
(dp1168
sI1168
(dp1169
sI1169
(dp1170
sI1170
(dp1171
sI1171
(dp1172
sI1172
(dp1173
sI1173
(dp1174
sI1174
(dp1175
sI1175
(dp1176
sI1176
(dp1177
sI1177
(dp1178
sI1178
(dp1179
sI1179
(dp1180
sI1180
(dp1181
sI1181
(dp1182
sI1182
(dp1183
sI1183
(dp1184
sI1184
(dp1185
sI1185
(dp1186
sI1186
(dp1187
sI1187
(dp1188
sI1188
(dp1189
sI1189
(dp1190
sI1190
(dp1191
sI1191
(dp1192
sI1192
(dp1193
sI1193
(dp1194
sI1194
(dp1195
sI1195
(dp1196
sI1196
(dp1197
sI1197
(dp1198
sI1198
(dp1199
sI1199
(dp1200
sI1200
(dp1201
sI1201
(dp1202
sI1202
(dp1203
sI1203
(dp1204
sI1204
(dp1205
sI1205
(dp1206
sI1206
(dp1207
sI1207
(dp1208
sI1208
(dp1209
sI1209
(dp1210
sI1210
(dp1211
sI1211
(dp1212
sI1212
(dp1213
sI1213
(dp1214
sI1214
(dp1215
sI1215
(dp1216
sI1216
(dp1217
sI1217
(dp1218
sI1218
(dp1219
sI1219
(dp1220
sI1220
(dp1221
sI1221
(dp1222
sI1222
(dp1223
sI1223
(dp1224
sI1224
(dp1225
sI1225
(dp1226
sI1226
(dp1227
sI1227
(dp1228
sI1228
(dp1229
sI1229
(dp1230
sI1230
(dp1231
sI1231
(dp1232
sI1232
(dp1233
sI1233
(dp1234
sI1234
(dp1235
sI1235
(dp1236
sI1236
(dp1237
sI1237
(dp1238
sI1238
(dp1239
sI1239
(dp1240
sI1240
(dp1241
sI1241
(dp1242
sI1242
(dp1243
sI1243
(dp1244
sI1244
(dp1245
sI1245
(dp1246
sI1246
(dp1247
sI1247
(dp1248
sI1248
(dp1249
sI1249
(dp1250
sI1250
(dp1251
sI1251
(dp1252
sI1252
(dp1253
sI1253
(dp1254
sI1254
(dp1255
sI1255
(dp1256
sI1256
(dp1257
sI1257
(dp1258
sI1258
(dp1259
sI1259
(dp1260
sI1260
(dp1261
sI1261
(dp1262
sI1262
(dp1263
sI1263
(dp1264
sI1264
(dp1265
sI1265
(dp1266
sI1266
(dp1267
sI1267
(dp1268
sI1268
(dp1269
sI1269
(dp1270
sI1270
(dp1271
sI1271
(dp1272
sI1272
(dp1273
sI1273
(dp1274
sI1274
(dp1275
sI1275
(dp1276
sI1276
(dp1277
sI1277
(dp1278
sI1278
(dp1279
sI1279
(dp1280
sI1280
(dp1281
sI1281
(dp1282
sI1282
(dp1283
sI1283
(dp1284
sI1284
(dp1285
sI1285
(dp1286
sI1286
(dp1287
sI1287
(dp1288
sI1288
(dp1289
sI1289
(dp1290
sI1290
(dp1291
sI1291
(dp1292
sI1292
(dp1293
sI1293
(dp1294
sI1294
(dp1295
sI1295
(dp1296
sI1296
(dp1297
sI1297
(dp1298
sI1298
(dp1299
sI1299
(dp1300
sI1300
(dp1301
sI1301
(dp1302
sI1302
(dp1303
sI1303
(dp1304
sI1304
(dp1305
sI1305
(dp1306
sI1306
(dp1307
sI1307
(dp1308
sI1308
(dp1309
sI1309
(dp1310
sI1310
(dp1311
sI1311
(dp1312
sI1312
(dp1313
sI1313
(dp1314
sI1314
(dp1315
sI1315
(dp1316
sI1316
(dp1317
sI1317
(dp1318
sI1318
(dp1319
sI1319
(dp1320
sI1320
(dp1321
sI1321
(dp1322
sI1322
(dp1323
sI1323
(dp1324
sI1324
(dp1325
sI1325
(dp1326
sI1326
(dp1327
sI1327
(dp1328
sI1328
(dp1329
sI1329
(dp1330
sI1330
(dp1331
sI1331
(dp1332
sI1332
(dp1333
sI1333
(dp1334
sI1334
(dp1335
sI1335
(dp1336
sI1336
(dp1337
sI1337
(dp1338
sI1338
(dp1339
sI1339
(dp1340
sI1340
(dp1341
sI1341
(dp1342
sI1342
(dp1343
sI1343
(dp1344
sI1344
(dp1345
sI1345
(dp1346
sI1346
(dp1347
sI1347
(dp1348
sI1348
(dp1349
sI1349
(dp1350
sI1350
(dp1351
sI1351
(dp1352
sI1352
(dp1353
sI1353
(dp1354
sI1354
(dp1355
sI1355
(dp1356
sI1356
(dp1357
sI1357
(dp1358
sI1358
(dp1359
sI1359
(dp1360
sI1360
(dp1361
sI1361
(dp1362
sI1362
(dp1363
sI1363
(dp1364
sI1364
(dp1365
sI1365
(dp1366
sI1366
(dp1367
sI1367
(dp1368
sI1368
(dp1369
sI1369
(dp1370
sI1370
(dp1371
sI1371
(dp1372
sI1372
(dp1373
sI1373
(dp1374
sI1374
(dp1375
sI1375
(dp1376
sI1376
(dp1377
sI1377
(dp1378
sI1378
(dp1379
sI1379
(dp1380
sI1380
(dp1381
sI1381
(dp1382
sI1382
(dp1383
sI1383
(dp1384
sI1384
(dp1385
sI1385
(dp1386
sI1386
(dp1387
sI1387
(dp1388
sI1388
(dp1389
sI1389
(dp1390
sI1390
(dp1391
sI1391
(dp1392
sI1392
(dp1393
sI1393
(dp1394
sI1394
(dp1395
sI1395
(dp1396
sI1396
(dp1397
sI1397
(dp1398
sI1398
(dp1399
sI1399
(dp1400
sI1400
(dp1401
sI1401
(dp1402
sI1402
(dp1403
sI1403
(dp1404
sI1404
(dp1405
sI1405
(dp1406
sI1406
(dp1407
sI1407
(dp1408
sI1408
(dp1409
sI1409
(dp1410
sI1410
(dp1411
sI1411
(dp1412
sI1412
(dp1413
sI1413
(dp1414
sI1414
(dp1415
sI1415
(dp1416
sI1416
(dp1417
sI1417
(dp1418
sI1418
(dp1419
sI1419
(dp1420
sI1420
(dp1421
sI1421
(dp1422
sI1422
(dp1423
sI1423
(dp1424
sI1424
(dp1425
sI1425
(dp1426
sI1426
(dp1427
sI1427
(dp1428
sI1428
(dp1429
sI1429
(dp1430
sI1430
(dp1431
sI1431
(dp1432
sI1432
(dp1433
sI1433
(dp1434
sI1434
(dp1435
sI1435
(dp1436
sI1436
(dp1437
sI1437
(dp1438
sI1438
(dp1439
sI1439
(dp1440
sI1440
(dp1441
sI1441
(dp1442
sI1442
(dp1443
sI1443
(dp1444
sI1444
(dp1445
sI1445
(dp1446
sI1446
(dp1447
sI1447
(dp1448
sI1448
(dp1449
sI1449
(dp1450
sI1450
(dp1451
sI1451
(dp1452
sI1452
(dp1453
sI1453
(dp1454
sI1454
(dp1455
sI1455
(dp1456
sI1456
(dp1457
sI1457
(dp1458
sI1458
(dp1459
sI1459
(dp1460
sI1460
(dp1461
sI1461
(dp1462
sI1462
(dp1463
sI1463
(dp1464
sI1464
(dp1465
sI1465
(dp1466
sI1466
(dp1467
sI1467
(dp1468
sI1468
(dp1469
sI1469
(dp1470
sI1470
(dp1471
sI1471
(dp1472
sI1472
(dp1473
sI1473
(dp1474
sI1474
(dp1475
sI1475
(dp1476
sI1476
(dp1477
sI1477
(dp1478
sI1478
(dp1479
sI1479
(dp1480
sI1480
(dp1481
sI1481
(dp1482
sI1482
(dp1483
sI1483
(dp1484
sI1484
(dp1485
sI1485
(dp1486
sI1486
(dp1487
sI1487
(dp1488
sI1488
(dp1489
sI1489
(dp1490
sI1490
(dp1491
sI1491
(dp1492
sI1492
(dp1493
sI1493
(dp1494
sI1494
(dp1495
sI1495
(dp1496
sI1496
(dp1497
sI1497
(dp1498
sI1498
(dp1499
sI1499
(dp1500
sI1500
(dp1501
sI1501
(dp1502
sI1502
(dp1503
sI1503
(dp1504
sI1504
(dp1505
sI1505
(dp1506
sI1506
(dp1507
sI1507
(dp1508
sI1508
(dp1509
sI1509
(dp1510
sI1510
(dp1511
sI1511
(dp1512
sI1512
(dp1513
sI1513
(dp1514
sI1514
(dp1515
sI1515
(dp1516
sI1516
(dp1517
sI1517
(dp1518
sI1518
(dp1519
sI1519
(dp1520
sI1520
(dp1521
sI1521
(dp1522
sI1522
(dp1523
sI1523
(dp1524
sI1524
(dp1525
sI1525
(dp1526
sI1526
(dp1527
sI1527
(dp1528
sI1528
(dp1529
sI1529
(dp1530
sI1530
(dp1531
sI1531
(dp1532
sI1532
(dp1533
sI1533
(dp1534
sI1534
(dp1535
sI1535
(dp1536
sI1536
(dp1537
sI1537
(dp1538
sI1538
(dp1539
sI1539
(dp1540
sI1540
(dp1541
sI1541
(dp1542
sI1542
(dp1543
sI1543
(dp1544
sI1544
(dp1545
sI1545
(dp1546
sI1546
(dp1547
sI1547
(dp1548
sI1548
(dp1549
sI1549
(dp1550
sI1550
(dp1551
sI1551
(dp1552
sI1552
(dp1553
sI1553
(dp1554
sI1554
(dp1555
sI1555
(dp1556
sI1556
(dp1557
sI1557
(dp1558
sI1558
(dp1559
sI1559
(dp1560
sI1560
(dp1561
sI1561
(dp1562
sI1562
(dp1563
sI1563
(dp1564
sI1564
(dp1565
sI1565
(dp1566
sI1566
(dp1567
sI1567
(dp1568
sI1568
(dp1569
sI1569
(dp1570
sI1570
(dp1571
sI1571
(dp1572
sI1572
(dp1573
sI1573
(dp1574
sI1574
(dp1575
sI1575
(dp1576
sI1576
(dp1577
sI1577
(dp1578
sI1578
(dp1579
sI1579
(dp1580
sI1580
(dp1581
sI1581
(dp1582
sI1582
(dp1583
sI1583
(dp1584
sI1584
(dp1585
sI1585
(dp1586
sI1586
(dp1587
sI1587
(dp1588
sI1588
(dp1589
sI1589
(dp1590
sI1590
(dp1591
sI1591
(dp1592
sI1592
(dp1593
sI1593
(dp1594
sI1594
(dp1595
sI1595
(dp1596
sI1596
(dp1597
sI1597
(dp1598
sI1598
(dp1599
sI1599
(dp1600
sI1600
(dp1601
sI1601
(dp1602
sI1602
(dp1603
sI1603
(dp1604
sI1604
(dp1605
sI1605
(dp1606
sI1606
(dp1607
sI1607
(dp1608
sI1608
(dp1609
sI1609
(dp1610
sI1610
(dp1611
sI1611
(dp1612
sI1612
(dp1613
sI1613
(dp1614
sI1614
(dp1615
sI1615
(dp1616
sI1616
(dp1617
sI1617
(dp1618
sI1618
(dp1619
sI1619
(dp1620
sI1620
(dp1621
sI1621
(dp1622
sI1622
(dp1623
sI1623
(dp1624
sI1624
(dp1625
sI1625
(dp1626
sI1626
(dp1627
sI1627
(dp1628
sI1628
(dp1629
sI1629
(dp1630
sI1630
(dp1631
sI1631
(dp1632
sI1632
(dp1633
sI1633
(dp1634
sI1634
(dp1635
sI1635
(dp1636
sI1636
(dp1637
sI1637
(dp1638
sI1638
(dp1639
sI1639
(dp1640
sI1640
(dp1641
sI1641
(dp1642
sI1642
(dp1643
sI1643
(dp1644
sI1644
(dp1645
sI1645
(dp1646
sI1646
(dp1647
sI1647
(dp1648
sI1648
(dp1649
sI1649
(dp1650
sI1650
(dp1651
sI1651
(dp1652
sI1652
(dp1653
sI1653
(dp1654
sI1654
(dp1655
sI1655
(dp1656
sI1656
(dp1657
sI1657
(dp1658
sI1658
(dp1659
sI1659
(dp1660
sI1660
(dp1661
sI1661
(dp1662
sI1662
(dp1663
sI1663
(dp1664
sI1664
(dp1665
sI1665
(dp1666
sI1666
(dp1667
sI1667
(dp1668
sI1668
(dp1669
sI1669
(dp1670
sI1670
(dp1671
sI1671
(dp1672
sI1672
(dp1673
sI1673
(dp1674
sI1674
(dp1675
sI1675
(dp1676
sI1676
(dp1677
sI1677
(dp1678
sI1678
(dp1679
sI1679
(dp1680
sI1680
(dp1681
sI1681
(dp1682
sI1682
(dp1683
sI1683
(dp1684
sI1684
(dp1685
sI1685
(dp1686
sI1686
(dp1687
sI1687
(dp1688
sI1688
(dp1689
sI1689
(dp1690
sI1690
(dp1691
sI1691
(dp1692
sI1692
(dp1693
sI1693
(dp1694
sI1694
(dp1695
sI1695
(dp1696
sI1696
(dp1697
sI1697
(dp1698
sI1698
(dp1699
sI1699
(dp1700
sI1700
(dp1701
sI1701
(dp1702
sI1702
(dp1703
sI1703
(dp1704
sI1704
(dp1705
sI1705
(dp1706
sI1706
(dp1707
sI1707
(dp1708
sI1708
(dp1709
sI1709
(dp1710
sI1710
(dp1711
sI1711
(dp1712
sI1712
(dp1713
sI1713
(dp1714
sI1714
(dp1715
sI1715
(dp1716
sI1716
(dp1717
sI1717
(dp1718
sI1718
(dp1719
sI1719
(dp1720
sI1720
(dp1721
sI1721
(dp1722
sI1722
(dp1723
sI1723
(dp1724
sI1724
(dp1725
sI1725
(dp1726
sI1726
(dp1727
sI1727
(dp1728
sI1728
(dp1729
sI1729
(dp1730
sI1730
(dp1731
sI1731
(dp1732
sI1732
(dp1733
sI1733
(dp1734
sI1734
(dp1735
sI1735
(dp1736
sI1736
(dp1737
sI1737
(dp1738
sI1738
(dp1739
sI1739
(dp1740
sI1740
(dp1741
sI1741
(dp1742
sI1742
(dp1743
sI1743
(dp1744
sI1744
(dp1745
sI1745
(dp1746
sI1746
(dp1747
sI1747
(dp1748
sI1748
(dp1749
sI1749
(dp1750
sI1750
(dp1751
sI1751
(dp1752
sI1752
(dp1753
sI1753
(dp1754
sI1754
(dp1755
sI1755
(dp1756
sI1756
(dp1757
sI1757
(dp1758
sI1758
(dp1759
sI1759
(dp1760
sI1760
(dp1761
sI1761
(dp1762
sI1762
(dp1763
sI1763
(dp1764
sI1764
(dp1765
sI1765
(dp1766
sI1766
(dp1767
sI1767
(dp1768
sI1768
(dp1769
sI1769
(dp1770
sI1770
(dp1771
sI1771
(dp1772
sI1772
(dp1773
sI1773
(dp1774
sI1774
(dp1775
sI1775
(dp1776
sI1776
(dp1777
sI1777
(dp1778
sI1778
(dp1779
sI1779
(dp1780
sI1780
(dp1781
sI1781
(dp1782
sI1782
(dp1783
sI1783
(dp1784
sI1784
(dp1785
sI1785
(dp1786
sI1786
(dp1787
sI1787
(dp1788
sI1788
(dp1789
sI1789
(dp1790
sI1790
(dp1791
sI1791
(dp1792
sI1792
(dp1793
sI1793
(dp1794
sI1794
(dp1795
sI1795
(dp1796
sI1796
(dp1797
sI1797
(dp1798
sI1798
(dp1799
sI1799
(dp1800
sI1800
(dp1801
sI1801
(dp1802
sI1802
(dp1803
sI1803
(dp1804
sI1804
(dp1805
sI1805
(dp1806
sI1806
(dp1807
sI1807
(dp1808
sI1808
(dp1809
sI1809
(dp1810
sI1810
(dp1811
sI1811
(dp1812
sI1812
(dp1813
sI1813
(dp1814
sI1814
(dp1815
sI1815
(dp1816
sI1816
(dp1817
sI1817
(dp1818
sI1818
(dp1819
sI1819
(dp1820
sI1820
(dp1821
sI1821
(dp1822
sI1822
(dp1823
sI1823
(dp1824
sI1824
(dp1825
sI1825
(dp1826
sI1826
(dp1827
sI1827
(dp1828
sI1828
(dp1829
sI1829
(dp1830
sI1830
(dp1831
sI1831
(dp1832
sI1832
(dp1833
sI1833
(dp1834
sI1834
(dp1835
sI1835
(dp1836
sI1836
(dp1837
sI1837
(dp1838
sI1838
(dp1839
sI1839
(dp1840
sI1840
(dp1841
sI1841
(dp1842
sI1842
(dp1843
sI1843
(dp1844
sI1844
(dp1845
sI1845
(dp1846
sI1846
(dp1847
sI1847
(dp1848
sI1848
(dp1849
sI1849
(dp1850
sI1850
(dp1851
sI1851
(dp1852
sI1852
(dp1853
sI1853
(dp1854
sI1854
(dp1855
sI1855
(dp1856
sI1856
(dp1857
sI1857
(dp1858
sI1858
(dp1859
sI1859
(dp1860
sI1860
(dp1861
sI1861
(dp1862
sI1862
(dp1863
sI1863
(dp1864
sI1864
(dp1865
sI1865
(dp1866
sI1866
(dp1867
sI1867
(dp1868
sI1868
(dp1869
sI1869
(dp1870
sI1870
(dp1871
sI1871
(dp1872
sI1872
(dp1873
sI1873
(dp1874
sI1874
(dp1875
sI1875
(dp1876
sI1876
(dp1877
sI1877
(dp1878
sI1878
(dp1879
sI1879
(dp1880
sI1880
(dp1881
sI1881
(dp1882
sI1882
(dp1883
sI1883
(dp1884
sI1884
(dp1885
sI1885
(dp1886
sI1886
(dp1887
sI1887
(dp1888
sI1888
(dp1889
sI1889
(dp1890
sI1890
(dp1891
sI1891
(dp1892
sI1892
(dp1893
sI1893
(dp1894
sI1894
(dp1895
sI1895
(dp1896
sI1896
(dp1897
sI1897
(dp1898
sI1898
(dp1899
sI1899
(dp1900
sI1900
(dp1901
sI1901
(dp1902
sI1902
(dp1903
sI1903
(dp1904
sI1904
(dp1905
sI1905
(dp1906
sI1906
(dp1907
sI1907
(dp1908
sI1908
(dp1909
sI1909
(dp1910
sI1910
(dp1911
sI1911
(dp1912
sI1912
(dp1913
sI1913
(dp1914
sI1914
(dp1915
sI1915
(dp1916
sI1916
(dp1917
sI1917
(dp1918
sI1918
(dp1919
sI1919
(dp1920
sI1920
(dp1921
sI1921
(dp1922
sI1922
(dp1923
sI1923
(dp1924
sI1924
(dp1925
sI1925
(dp1926
sI1926
(dp1927
sI1927
(dp1928
sI1928
(dp1929
sI1929
(dp1930
sI1930
(dp1931
sI1931
(dp1932
sI1932
(dp1933
sI1933
(dp1934
sI1934
(dp1935
sI1935
(dp1936
sI1936
(dp1937
sI1937
(dp1938
sI1938
(dp1939
sI1939
(dp1940
sI1940
(dp1941
sI1941
(dp1942
sI1942
(dp1943
sI1943
(dp1944
sI1944
(dp1945
sI1945
(dp1946
sI1946
(dp1947
sI1947
(dp1948
sI1948
(dp1949
sI1949
(dp1950
sI1950
(dp1951
sI1951
(dp1952
sI1952
(dp1953
sI1953
(dp1954
sI1954
(dp1955
sI1955
(dp1956
sI1956
(dp1957
sI1957
(dp1958
sI1958
(dp1959
sI1959
(dp1960
sI1960
(dp1961
sI1961
(dp1962
sI1962
(dp1963
sI1963
(dp1964
sI1964
(dp1965
sI1965
(dp1966
sI1966
(dp1967
sI1967
(dp1968
sI1968
(dp1969
sI1969
(dp1970
sI1970
(dp1971
sI1971
(dp1972
sI1972
(dp1973
sI1973
(dp1974
sI1974
(dp1975
sI1975
(dp1976
sI1976
(dp1977
sI1977
(dp1978
sI1978
(dp1979
sI1979
(dp1980
sI1980
(dp1981
sI1981
(dp1982
sI1982
(dp1983
sI1983
(dp1984
sI1984
(dp1985
sI1985
(dp1986
sI1986
(dp1987
sI1987
(dp1988
sI1988
(dp1989
sI1989
(dp1990
sI1990
(dp1991
sI1991
(dp1992
sI1992
(dp1993
sI1993
(dp1994
sI1994
(dp1995
sI1995
(dp1996
sI1996
(dp1997
sI1997
(dp1998
sI1998
(dp1999
sI1999
(dp2000
sI2000
(dp2001
sI2001
(dp2002
sI2002
(dp2003
sI2003
(dp2004
sI2004
(dp2005
sI2005
(dp2006
sI2006
(dp2007
sI2007
(dp2008
sI2008
(dp2009
sI2009
(dp2010
sI2010
(dp2011
sI2011
(dp2012
sI2012
(dp2013
sI2013
(dp2014
sI2014
(dp2015
sI2015
(dp2016
sI2016
(dp2017
sI2017
(dp2018
sI2018
(dp2019
sI2019
(dp2020
sI2020
(dp2021
sI2021
(dp2022
sI2022
(dp2023
sI2023
(dp2024
sI2024
(dp2025
sI2025
(dp2026
sI2026
(dp2027
sI2027
(dp2028
sI2028
(dp2029
sI2029
(dp2030
sI2030
(dp2031
sI2031
(dp2032
sI2032
(dp2033
sI2033
(dp2034
sI2034
(dp2035
sI2035
(dp2036
sI2036
(dp2037
sI2037
(dp2038
sI2038
(dp2039
sI2039
(dp2040
sI2040
(dp2041
sI2041
(dp2042
sI2042
(dp2043
sI2043
(dp2044
sI2044
(dp2045
sI2045
(dp2046
sI2046
(dp2047
sI2047
(dp2048
sI2048
(dp2049
sI2049
(dp2050
sI2050
(dp2051
sI2051
(dp2052
sI2052
(dp2053
sI2053
(dp2054
sI2054
(dp2055
sI2055
(dp2056
sI2056
(dp2057
sI2057
(dp2058
sI2058
(dp2059
sI2059
(dp2060
sI2060
(dp2061
sI2061
(dp2062
sI2062
(dp2063
sI2063
(dp2064
sI2064
(dp2065
sI2065
(dp2066
sI2066
(dp2067
sI2067
(dp2068
sI2068
(dp2069
sI2069
(dp2070
sI2070
(dp2071
sI2071
(dp2072
sI2072
(dp2073
sI2073
(dp2074
sI2074
(dp2075
sI2075
(dp2076
sI2076
(dp2077
sI2077
(dp2078
sI2078
(dp2079
sI2079
(dp2080
sI2080
(dp2081
sI2081
(dp2082
sI2082
(dp2083
sI2083
(dp2084
sI2084
(dp2085
sI2085
(dp2086
sI2086
(dp2087
sI2087
(dp2088
sI2088
(dp2089
sI2089
(dp2090
sI2090
(dp2091
sI2091
(dp2092
sI2092
(dp2093
sI2093
(dp2094
sI2094
(dp2095
sI2095
(dp2096
sI2096
(dp2097
sI2097
(dp2098
sI2098
(dp2099
sI2099
(dp2100
sI2100
(dp2101
sI2101
(dp2102
sI2102
(dp2103
sI2103
(dp2104
sI2104
(dp2105
sI2105
(dp2106
sI2106
(dp2107
sI2107
(dp2108
sI2108
(dp2109
sI2109
(dp2110
sI2110
(dp2111
sI2111
(dp2112
sI2112
(dp2113
sI2113
(dp2114
sI2114
(dp2115
sI2115
(dp2116
sI2116
(dp2117
sI2117
(dp2118
sI2118
(dp2119
sI2119
(dp2120
sI2120
(dp2121
sI2121
(dp2122
sI2122
(dp2123
sI2123
(dp2124
sI2124
(dp2125
sI2125
(dp2126
sI2126
(dp2127
sI2127
(dp2128
sI2128
(dp2129
sI2129
(dp2130
sI2130
(dp2131
sI2131
(dp2132
sI2132
(dp2133
sI2133
(dp2134
sI2134
(dp2135
sI2135
(dp2136
sI2136
(dp2137
sI2137
(dp2138
sI2138
(dp2139
sI2139
(dp2140
sI2140
(dp2141
sI2141
(dp2142
sI2142
(dp2143
sI2143
(dp2144
sI2144
(dp2145
sI2145
(dp2146
sI2146
(dp2147
sI2147
(dp2148
sI2148
(dp2149
sI2149
(dp2150
sI2150
(dp2151
sI2151
(dp2152
sI2152
(dp2153
sI2153
(dp2154
sI2154
(dp2155
sI2155
(dp2156
sI2156
(dp2157
sI2157
(dp2158
sI2158
(dp2159
sI2159
(dp2160
sI2160
(dp2161
sI2161
(dp2162
sI2162
(dp2163
sI2163
(dp2164
sI2164
(dp2165
sI2165
(dp2166
sI2166
(dp2167
sI2167
(dp2168
sI2168
(dp2169
sI2169
(dp2170
sI2170
(dp2171
sI2171
(dp2172
sI2172
(dp2173
sI2173
(dp2174
sI2174
(dp2175
sI2175
(dp2176
sI2176
(dp2177
sI2177
(dp2178
sI2178
(dp2179
sI2179
(dp2180
sI2180
(dp2181
sI2181
(dp2182
sI2182
(dp2183
sI2183
(dp2184
sI2184
(dp2185
sI2185
(dp2186
sI2186
(dp2187
sI2187
(dp2188
sI2188
(dp2189
sI2189
(dp2190
sI2190
(dp2191
sI2191
(dp2192
sI2192
(dp2193
sI2193
(dp2194
sI2194
(dp2195
sI2195
(dp2196
sI2196
(dp2197
sI2197
(dp2198
sI2198
(dp2199
sI2199
(dp2200
sI2200
(dp2201
sI2201
(dp2202
sI2202
(dp2203
sI2203
(dp2204
sI2204
(dp2205
sI2205
(dp2206
sI2206
(dp2207
sI2207
(dp2208
sI2208
(dp2209
sI2209
(dp2210
sI2210
(dp2211
sI2211
(dp2212
sI2212
(dp2213
sI2213
(dp2214
sI2214
(dp2215
sI2215
(dp2216
sI2216
(dp2217
sI2217
(dp2218
sI2218
(dp2219
sI2219
(dp2220
sI2220
(dp2221
sI2221
(dp2222
sI2222
(dp2223
sI2223
(dp2224
sI2224
(dp2225
sI2225
(dp2226
sI2226
(dp2227
sI2227
(dp2228
sI2228
(dp2229
sI2229
(dp2230
sI2230
(dp2231
sI2231
(dp2232
sI2232
(dp2233
sI2233
(dp2234
sI2234
(dp2235
sI2235
(dp2236
sI2236
(dp2237
sI2237
(dp2238
sI2238
(dp2239
sI2239
(dp2240
sI2240
(dp2241
sI2241
(dp2242
sI2242
(dp2243
sI2243
(dp2244
sI2244
(dp2245
sI2245
(dp2246
sI2246
(dp2247
sI2247
(dp2248
sI2248
(dp2249
sI2249
(dp2250
sI2250
(dp2251
sI2251
(dp2252
sI2252
(dp2253
sI2253
(dp2254
sI2254
(dp2255
sI2255
(dp2256
sI2256
(dp2257
sI2257
(dp2258
sI2258
(dp2259
sI2259
(dp2260
sI2260
(dp2261
sI2261
(dp2262
sI2262
(dp2263
sI2263
(dp2264
sI2264
(dp2265
sI2265
(dp2266
sI2266
(dp2267
sI2267
(dp2268
sI2268
(dp2269
sI2269
(dp2270
sI2270
(dp2271
sI2271
(dp2272
sI2272
(dp2273
sI2273
(dp2274
sI2274
(dp2275
sI2275
(dp2276
sI2276
(dp2277
sI2277
(dp2278
sI2278
(dp2279
sI2279
(dp2280
sI2280
(dp2281
sI2281
(dp2282
sI2282
(dp2283
sI2283
(dp2284
sI2284
(dp2285
sI2285
(dp2286
sI2286
(dp2287
sI2287
(dp2288
sI2288
(dp2289
sI2289
(dp2290
sI2290
(dp2291
sI2291
(dp2292
sI2292
(dp2293
sI2293
(dp2294
sI2294
(dp2295
sI2295
(dp2296
sI2296
(dp2297
sI2297
(dp2298
sI2298
(dp2299
sI2299
(dp2300
sI2300
(dp2301
sI2301
(dp2302
sI2302
(dp2303
sI2303
(dp2304
sI2304
(dp2305
sI2305
(dp2306
sI2306
(dp2307
sI2307
(dp2308
sI2308
(dp2309
sI2309
(dp2310
sI2310
(dp2311
sI2311
(dp2312
sI2312
(dp2313
sI2313
(dp2314
sI2314
(dp2315
sI2315
(dp2316
sI2316
(dp2317
sI2317
(dp2318
sI2318
(dp2319
sI2319
(dp2320
sI2320
(dp2321
sI2321
(dp2322
sI2322
(dp2323
sI2323
(dp2324
sI2324
(dp2325
sI2325
(dp2326
sI2326
(dp2327
sI2327
(dp2328
sI2328
(dp2329
sI2329
(dp2330
sI2330
(dp2331
sI2331
(dp2332
sI2332
(dp2333
sI2333
(dp2334
sI2334
(dp2335
sI2335
(dp2336
sI2336
(dp2337
sI2337
(dp2338
sI2338
(dp2339
sI2339
(dp2340
sI2340
(dp2341
sI2341
(dp2342
sI2342
(dp2343
sI2343
(dp2344
sI2344
(dp2345
sI2345
(dp2346
sI2346
(dp2347
sI2347
(dp2348
sI2348
(dp2349
sI2349
(dp2350
sI2350
(dp2351
sI2351
(dp2352
sI2352
(dp2353
sI2353
(dp2354
sI2354
(dp2355
sI2355
(dp2356
sI2356
(dp2357
sI2357
(dp2358
sI2358
(dp2359
sI2359
(dp2360
sI2360
(dp2361
sI2361
(dp2362
sI2362
(dp2363
sI2363
(dp2364
sI2364
(dp2365
sI2365
(dp2366
sI2366
(dp2367
sI2367
(dp2368
sI2368
(dp2369
sI2369
(dp2370
sI2370
(dp2371
sI2371
(dp2372
sI2372
(dp2373
sI2373
(dp2374
sI2374
(dp2375
sI2375
(dp2376
sI2376
(dp2377
sI2377
(dp2378
sI2378
(dp2379
sI2379
(dp2380
sI2380
(dp2381
sI2381
(dp2382
sI2382
(dp2383
sI2383
(dp2384
sI2384
(dp2385
sI2385
(dp2386
sI2386
(dp2387
sI2387
(dp2388
sI2388
(dp2389
sI2389
(dp2390
sI2390
(dp2391
sI2391
(dp2392
sI2392
(dp2393
sI2393
(dp2394
sI2394
(dp2395
sI2395
(dp2396
sI2396
(dp2397
sI2397
(dp2398
sI2398
(dp2399
sI2399
(dp2400
sI2400
(dp2401
sI2401
(dp2402
sI2402
(dp2403
sI2403
(dp2404
sI2404
(dp2405
sI2405
(dp2406
sI2406
(dp2407
sI2407
(dp2408
sI2408
(dp2409
sI2409
(dp2410
sI2410
(dp2411
sI2411
(dp2412
sI2412
(dp2413
sI2413
(dp2414
sI2414
(dp2415
sI2415
(dp2416
sI2416
(dp2417
sI2417
(dp2418
sI2418
(dp2419
sI2419
(dp2420
sI2420
(dp2421
sI2421
(dp2422
sI2422
(dp2423
sI2423
(dp2424
sI2424
(dp2425
sI2425
(dp2426
sI2426
(dp2427
sI2427
(dp2428
sI2428
(dp2429
sI2429
(dp2430
sI2430
(dp2431
sI2431
(dp2432
sI2432
(dp2433
sI2433
(dp2434
sI2434
(dp2435
sI2435
(dp2436
sI2436
(dp2437
sI2437
(dp2438
sI2438
(dp2439
sI2439
(dp2440
sI2440
(dp2441
sI2441
(dp2442
sI2442
(dp2443
sI2443
(dp2444
sI2444
(dp2445
sI2445
(dp2446
sI2446
(dp2447
sI2447
(dp2448
sI2448
(dp2449
sI2449
(dp2450
sI2450
(dp2451
sI2451
(dp2452
sI2452
(dp2453
sI2453
(dp2454
sI2454
(dp2455
sI2455
(dp2456
sI2456
(dp2457
sI2457
(dp2458
sI2458
(dp2459
sI2459
(dp2460
sI2460
(dp2461
sI2461
(dp2462
sI2462
(dp2463
sI2463
(dp2464
sI2464
(dp2465
sI2465
(dp2466
sI2466
(dp2467
sI2467
(dp2468
sI2468
(dp2469
sI2469
(dp2470
sI2470
(dp2471
sI2471
(dp2472
sI2472
(dp2473
sI2473
(dp2474
sI2474
(dp2475
sI2475
(dp2476
sI2476
(dp2477
sI2477
(dp2478
sI2478
(dp2479
sI2479
(dp2480
sI2480
(dp2481
sI2481
(dp2482
sI2482
(dp2483
sI2483
(dp2484
sI2484
(dp2485
sI2485
(dp2486
sI2486
(dp2487
sI2487
(dp2488
sI2488
(dp2489
sI2489
(dp2490
sI2490
(dp2491
sI2491
(dp2492
sI2492
(dp2493
sI2493
(dp2494
sI2494
(dp2495
sI2495
(dp2496
sI2496
(dp2497
sI2497
(dp2498
sI2498
(dp2499
sI2499
(dp2500
sI2500
(dp2501
sI2501
(dp2502
sI2502
(dp2503
sI2503
(dp2504
sI2504
(dp2505
sI2505
(dp2506
sI2506
(dp2507
sI2507
(dp2508
sI2508
(dp2509
sI2509
(dp2510
sI2510
(dp2511
sI2511
(dp2512
sI2512
(dp2513
sI2513
(dp2514
sI2514
(dp2515
sI2515
(dp2516
sI2516
(dp2517
sI2517
(dp2518
sI2518
(dp2519
sI2519
(dp2520
sI2520
(dp2521
sI2521
(dp2522
sI2522
(dp2523
sI2523
(dp2524
sI2524
(dp2525
sI2525
(dp2526
sI2526
(dp2527
sI2527
(dp2528
sI2528
(dp2529
sI2529
(dp2530
sI2530
(dp2531
sI2531
(dp2532
sI2532
(dp2533
sI2533
(dp2534
sI2534
(dp2535
sI2535
(dp2536
sI2536
(dp2537
sI2537
(dp2538
sI2538
(dp2539
sI2539
(dp2540
sI2540
(dp2541
sI2541
(dp2542
sI2542
(dp2543
sI2543
(dp2544
sI2544
(dp2545
sI2545
(dp2546
sI2546
(dp2547
sI2547
(dp2548
sI2548
(dp2549
sI2549
(dp2550
sI2550
(dp2551
sI2551
(dp2552
sI2552
(dp2553
sI2553
(dp2554
sI2554
(dp2555
sI2555
(dp2556
sI2556
(dp2557
sI2557
(dp2558
sI2558
(dp2559
sI2559
(dp2560
sI2560
(dp2561
sI2561
(dp2562
sI2562
(dp2563
sI2563
(dp2564
sI2564
(dp2565
sI2565
(dp2566
sI2566
(dp2567
sI2567
(dp2568
sI2568
(dp2569
sI2569
(dp2570
sI2570
(dp2571
sI2571
(dp2572
sI2572
(dp2573
sI2573
(dp2574
sI2574
(dp2575
sI2575
(dp2576
sI2576
(dp2577
sI2577
(dp2578
sI2578
(dp2579
sI2579
(dp2580
sI2580
(dp2581
sI2581
(dp2582
sI2582
(dp2583
sI2583
(dp2584
sI2584
(dp2585
sI2585
(dp2586
sI2586
(dp2587
sI2587
(dp2588
sI2588
(dp2589
sI2589
(dp2590
sI2590
(dp2591
sI2591
(dp2592
sI2592
(dp2593
sI2593
(dp2594
sI2594
(dp2595
sI2595
(dp2596
sI2596
(dp2597
sI2597
(dp2598
sI2598
(dp2599
sI2599
(dp2600
sI2600
(dp2601
sI2601
(dp2602
sI2602
(dp2603
sI2603
(dp2604
sI2604
(dp2605
sI2605
(dp2606
sI2606
(dp2607
sI2607
(dp2608
sI2608
(dp2609
sI2609
(dp2610
sI2610
(dp2611
sI2611
(dp2612
sI2612
(dp2613
sI2613
(dp2614
sI2614
(dp2615
sI2615
(dp2616
sI2616
(dp2617
sI2617
(dp2618
sI2618
(dp2619
sI2619
(dp2620
sI2620
(dp2621
sI2621
(dp2622
sI2622
(dp2623
sI2623
(dp2624
sI2624
(dp2625
sI2625
(dp2626
sI2626
(dp2627
sI2627
(dp2628
sI2628
(dp2629
sI2629
(dp2630
sI2630
(dp2631
sI2631
(dp2632
sI2632
(dp2633
sI2633
(dp2634
sI2634
(dp2635
sI2635
(dp2636
sI2636
(dp2637
sI2637
(dp2638
sI2638
(dp2639
sI2639
(dp2640
sI2640
(dp2641
sI2641
(dp2642
sI2642
(dp2643
sI2643
(dp2644
sI2644
(dp2645
sI2645
(dp2646
sI2646
(dp2647
sI2647
(dp2648
sI2648
(dp2649
sI2649
(dp2650
sI2650
(dp2651
sI2651
(dp2652
sI2652
(dp2653
sI2653
(dp2654
sI2654
(dp2655
sI2655
(dp2656
sI2656
(dp2657
sI2657
(dp2658
sI2658
(dp2659
sI2659
(dp2660
sI2660
(dp2661
sI2661
(dp2662
sI2662
(dp2663
sI2663
(dp2664
sI2664
(dp2665
sI2665
(dp2666
sI2666
(dp2667
sI2667
(dp2668
sI2668
(dp2669
sI2669
(dp2670
sI2670
(dp2671
sI2671
(dp2672
sI2672
(dp2673
sI2673
(dp2674
sI2674
(dp2675
sI2675
(dp2676
sI2676
(dp2677
sI2677
(dp2678
sI2678
(dp2679
sI2679
(dp2680
sI2680
(dp2681
sI2681
(dp2682
sI2682
(dp2683
sI2683
(dp2684
sI2684
(dp2685
sI2685
(dp2686
sI2686
(dp2687
sI2687
(dp2688
sI2688
(dp2689
sI2689
(dp2690
sI2690
(dp2691
sI2691
(dp2692
sI2692
(dp2693
sI2693
(dp2694
sI2694
(dp2695
sI2695
(dp2696
sI2696
(dp2697
sI2697
(dp2698
sI2698
(dp2699
sI2699
(dp2700
sI2700
(dp2701
sI2701
(dp2702
sI2702
(dp2703
sI2703
(dp2704
sI2704
(dp2705
sI2705
(dp2706
sI2706
(dp2707
sI2707
(dp2708
sI2708
(dp2709
sI2709
(dp2710
sI2710
(dp2711
sI2711
(dp2712
sI2712
(dp2713
sI2713
(dp2714
sI2714
(dp2715
sI2715
(dp2716
sI2716
(dp2717
sI2717
(dp2718
sI2718
(dp2719
sI2719
(dp2720
sI2720
(dp2721
sI2721
(dp2722
sI2722
(dp2723
sI2723
(dp2724
sI2724
(dp2725
sI2725
(dp2726
sI2726
(dp2727
sI2727
(dp2728
sI2728
(dp2729
sI2729
(dp2730
sI2730
(dp2731
sI2731
(dp2732
sI2732
(dp2733
sI2733
(dp2734
sI2734
(dp2735
sI2735
(dp2736
sI2736
(dp2737
sI2737
(dp2738
sI2738
(dp2739
sI2739
(dp2740
sI2740
(dp2741
sI2741
(dp2742
sI2742
(dp2743
sI2743
(dp2744
sI2744
(dp2745
sI2745
(dp2746
sI2746
(dp2747
sI2747
(dp2748
sI2748
(dp2749
sI2749
(dp2750
sI2750
(dp2751
sI2751
(dp2752
sI2752
(dp2753
sI2753
(dp2754
sI2754
(dp2755
sI2755
(dp2756
sI2756
(dp2757
sI2757
(dp2758
sI2758
(dp2759
sI2759
(dp2760
sI2760
(dp2761
sI2761
(dp2762
sI2762
(dp2763
sI2763
(dp2764
sI2764
(dp2765
sI2765
(dp2766
sI2766
(dp2767
sI2767
(dp2768
sI2768
(dp2769
sI2769
(dp2770
sI2770
(dp2771
sI2771
(dp2772
sI2772
(dp2773
sI2773
(dp2774
sI2774
(dp2775
sI2775
(dp2776
sI2776
(dp2777
sI2777
(dp2778
sI2778
(dp2779
sI2779
(dp2780
sI2780
(dp2781
sI2781
(dp2782
sI2782
(dp2783
sI2783
(dp2784
sI2784
(dp2785
sI2785
(dp2786
sI2786
(dp2787
sI2787
(dp2788
sI2788
(dp2789
sI2789
(dp2790
sI2790
(dp2791
sI2791
(dp2792
sI2792
(dp2793
sI2793
(dp2794
sI2794
(dp2795
sI2795
(dp2796
sI2796
(dp2797
sI2797
(dp2798
sI2798
(dp2799
sI2799
(dp2800
sI2800
(dp2801
sI2801
(dp2802
sI2802
(dp2803
sI2803
(dp2804
sI2804
(dp2805
sI2805
(dp2806
sI2806
(dp2807
sI2807
(dp2808
sI2808
(dp2809
sI2809
(dp2810
sI2810
(dp2811
sI2811
(dp2812
sI2812
(dp2813
sI2813
(dp2814
sI2814
(dp2815
sI2815
(dp2816
sI2816
(dp2817
sI2817
(dp2818
sI2818
(dp2819
sI2819
(dp2820
sI2820
(dp2821
sI2821
(dp2822
sI2822
(dp2823
sI2823
(dp2824
sI2824
(dp2825
sI2825
(dp2826
sI2826
(dp2827
sI2827
(dp2828
sI2828
(dp2829
sI2829
(dp2830
sI2830
(dp2831
sI2831
(dp2832
sI2832
(dp2833
sI2833
(dp2834
sI2834
(dp2835
sI2835
(dp2836
sI2836
(dp2837
sI2837
(dp2838
sI2838
(dp2839
sI2839
(dp2840
sI2840
(dp2841
sI2841
(dp2842
sI2842
(dp2843
sI2843
(dp2844
sI2844
(dp2845
sI2845
(dp2846
sI2846
(dp2847
sI2847
(dp2848
sI2848
(dp2849
sI2849
(dp2850
sI2850
(dp2851
sI2851
(dp2852
sI2852
(dp2853
sI2853
(dp2854
sI2854
(dp2855
sI2855
(dp2856
sI2856
(dp2857
sI2857
(dp2858
sI2858
(dp2859
sI2859
(dp2860
sI2860
(dp2861
sI2861
(dp2862
sI2862
(dp2863
sI2863
(dp2864
sI2864
(dp2865
sI2865
(dp2866
sI2866
(dp2867
sI2867
(dp2868
sI2868
(dp2869
sI2869
(dp2870
sI2870
(dp2871
sI2871
(dp2872
sI2872
(dp2873
sI2873
(dp2874
sI2874
(dp2875
sI2875
(dp2876
sI2876
(dp2877
sI2877
(dp2878
sI2878
(dp2879
sI2879
(dp2880
sI2880
(dp2881
sI2881
(dp2882
sI2882
(dp2883
sI2883
(dp2884
sI2884
(dp2885
sI2885
(dp2886
sI2886
(dp2887
sI2887
(dp2888
sI2888
(dp2889
sI2889
(dp2890
sI2890
(dp2891
sI2891
(dp2892
sI2892
(dp2893
sI2893
(dp2894
sI2894
(dp2895
sI2895
(dp2896
sI2896
(dp2897
sI2897
(dp2898
sI2898
(dp2899
sI2899
(dp2900
sI2900
(dp2901
sI2901
(dp2902
sI2902
(dp2903
sI2903
(dp2904
sI2904
(dp2905
sI2905
(dp2906
sI2906
(dp2907
sI2907
(dp2908
sI2908
(dp2909
sI2909
(dp2910
sI2910
(dp2911
sI2911
(dp2912
sI2912
(dp2913
sI2913
(dp2914
sI2914
(dp2915
sI2915
(dp2916
sI2916
(dp2917
sI2917
(dp2918
sI2918
(dp2919
sI2919
(dp2920
sI2920
(dp2921
sI2921
(dp2922
sI2922
(dp2923
sI2923
(dp2924
sI2924
(dp2925
sI2925
(dp2926
sI2926
(dp2927
sI2927
(dp2928
sI2928
(dp2929
sI2929
(dp2930
sI2930
(dp2931
sI2931
(dp2932
sI2932
(dp2933
sI2933
(dp2934
sI2934
(dp2935
sI2935
(dp2936
sI2936
(dp2937
sI2937
(dp2938
sI2938
(dp2939
sI2939
(dp2940
sI2940
(dp2941
sI2941
(dp2942
sI2942
(dp2943
sI2943
(dp2944
sI2944
(dp2945
sI2945
(dp2946
sI2946
(dp2947
sI2947
(dp2948
sI2948
(dp2949
sI2949
(dp2950
sI2950
(dp2951
sI2951
(dp2952
sI2952
(dp2953
sI2953
(dp2954
sI2954
(dp2955
sI2955
(dp2956
sI2956
(dp2957
sI2957
(dp2958
sI2958
(dp2959
sI2959
(dp2960
sI2960
(dp2961
sI2961
(dp2962
sI2962
(dp2963
sI2963
(dp2964
sI2964
(dp2965
sI2965
(dp2966
sI2966
(dp2967
sI2967
(dp2968
sI2968
(dp2969
sI2969
(dp2970
sI2970
(dp2971
sI2971
(dp2972
sI2972
(dp2973
sI2973
(dp2974
sI2974
(dp2975
sI2975
(dp2976
sI2976
(dp2977
sI2977
(dp2978
sI2978
(dp2979
sI2979
(dp2980
sI2980
(dp2981
sI2981
(dp2982
sI2982
(dp2983
sI2983
(dp2984
sI2984
(dp2985
sI2985
(dp2986
sI2986
(dp2987
sI2987
(dp2988
sI2988
(dp2989
sI2989
(dp2990
sI2990
(dp2991
sI2991
(dp2992
sI2992
(dp2993
sI2993
(dp2994
sI2994
(dp2995
sI2995
(dp2996
sI2996
(dp2997
sI2997
(dp2998
sI2998
(dp2999
sI2999
(dp3000
sI3000
(dp3001
sI3001
(dp3002
sI3002
(dp3003
sI3003
(dp3004
sI3004
(dp3005
sI3005
(dp3006
sI3006
(dp3007
sI3007
(dp3008
sI3008
(dp3009
sI3009
(dp3010
sI3010
(dp3011
sI3011
(dp3012
sI3012
(dp3013
sI3013
(dp3014
sI3014
(dp3015
sI3015
(dp3016
sI3016
(dp3017
sI3017
(dp3018
sI3018
(dp3019
sI3019
(dp3020
sI3020
(dp3021
sI3021
(dp3022
sI3022
(dp3023
sI3023
(dp3024
sI3024
(dp3025
sI3025
(dp3026
sI3026
(dp3027
sI3027
(dp3028
sI3028
(dp3029
sI3029
(dp3030
sI3030
(dp3031
sI3031
(dp3032
sI3032
(dp3033
sI3033
(dp3034
sI3034
(dp3035
sI3035
(dp3036
sI3036
(dp3037
sI3037
(dp3038
sI3038
(dp3039
sI3039
(dp3040
sI3040
(dp3041
sI3041
(dp3042
sI3042
(dp3043
sI3043
(dp3044
sI3044
(dp3045
sI3045
(dp3046
sI3046
(dp3047
sI3047
(dp3048
sI3048
(dp3049
sI3049
(dp3050
sI3050
(dp3051
sI3051
(dp3052
sI3052
(dp3053
sI3053
(dp3054
sI3054
(dp3055
sI3055
(dp3056
sI3056
(dp3057
sI3057
(dp3058
sI3058
(dp3059
sI3059
(dp3060
sI3060
(dp3061
sI3061
(dp3062
sI3062
(dp3063
sI3063
(dp3064
sI3064
(dp3065
sI3065
(dp3066
sI3066
(dp3067
sI3067
(dp3068
sI3068
(dp3069
sI3069
(dp3070
sI3070
(dp3071
sI3071
(dp3072
sI3072
(dp3073
sI3073
(dp3074
sI3074
(dp3075
sI3075
(dp3076
sI3076
(dp3077
sI3077
(dp3078
sI3078
(dp3079
sI3079
(dp3080
sI3080
(dp3081
sI3081
(dp3082
sI3082
(dp3083
sI3083
(dp3084
sI3084
(dp3085
sI3085
(dp3086
sI3086
(dp3087
sI3087
(dp3088
sI3088
(dp3089
sI3089
(dp3090
sI3090
(dp3091
sI3091
(dp3092
sI3092
(dp3093
sI3093
(dp3094
sI3094
(dp3095
sI3095
(dp3096
sI3096
(dp3097
sI3097
(dp3098
sI3098
(dp3099
sI3099
(dp3100
sI3100
(dp3101
sI3101
(dp3102
sI3102
(dp3103
sI3103
(dp3104
sI3104
(dp3105
sI3105
(dp3106
sI3106
(dp3107
sI3107
(dp3108
sI3108
(dp3109
sI3109
(dp3110
sI3110
(dp3111
sI3111
(dp3112
sI3112
(dp3113
sI3113
(dp3114
sI3114
(dp3115
sI3115
(dp3116
sI3116
(dp3117
sI3117
(dp3118
sI3118
(dp3119
sI3119
(dp3120
sI3120
(dp3121
sI3121
(dp3122
sI3122
(dp3123
sI3123
(dp3124
sI3124
(dp3125
sI3125
(dp3126
sI3126
(dp3127
sI3127
(dp3128
sI3128
(dp3129
sI3129
(dp3130
sI3130
(dp3131
sI3131
(dp3132
sI3132
(dp3133
sI3133
(dp3134
sI3134
(dp3135
sI3135
(dp3136
sI3136
(dp3137
sI3137
(dp3138
sI3138
(dp3139
sI3139
(dp3140
sI3140
(dp3141
sI3141
(dp3142
sI3142
(dp3143
sI3143
(dp3144
sI3144
(dp3145
sI3145
(dp3146
sI3146
(dp3147
sI3147
(dp3148
sI3148
(dp3149
sI3149
(dp3150
sI3150
(dp3151
sI3151
(dp3152
sI3152
(dp3153
sI3153
(dp3154
sI3154
(dp3155
sI3155
(dp3156
sI3156
(dp3157
sI3157
(dp3158
sI3158
(dp3159
sI3159
(dp3160
sI3160
(dp3161
sI3161
(dp3162
sI3162
(dp3163
sI3163
(dp3164
sI3164
(dp3165
sI3165
(dp3166
sI3166
(dp3167
sI3167
(dp3168
sI3168
(dp3169
sI3169
(dp3170
sI3170
(dp3171
sI3171
(dp3172
sI3172
(dp3173
sI3173
(dp3174
sI3174
(dp3175
sI3175
(dp3176
sI3176
(dp3177
sI3177
(dp3178
sI3178
(dp3179
sI3179
(dp3180
sI3180
(dp3181
sI3181
(dp3182
sI3182
(dp3183
sI3183
(dp3184
sI3184
(dp3185
sI3185
(dp3186
sI3186
(dp3187
sI3187
(dp3188
sI3188
(dp3189
sI3189
(dp3190
sI3190
(dp3191
sI3191
(dp3192
sI3192
(dp3193
sI3193
(dp3194
sI3194
(dp3195
sI3195
(dp3196
sI3196
(dp3197
sI3197
(dp3198
sI3198
(dp3199
sI3199
(dp3200
sI3200
(dp3201
sI3201
(dp3202
sI3202
(dp3203
sI3203
(dp3204
sI3204
(dp3205
sI3205
(dp3206
sI3206
(dp3207
sI3207
(dp3208
sI3208
(dp3209
sI3209
(dp3210
sI3210
(dp3211
sI3211
(dp3212
sI3212
(dp3213
sI3213
(dp3214
sI3214
(dp3215
sI3215
(dp3216
sI3216
(dp3217
sI3217
(dp3218
sI3218
(dp3219
sI3219
(dp3220
sI3220
(dp3221
sI3221
(dp3222
sI3222
(dp3223
sI3223
(dp3224
sI3224
(dp3225
sI3225
(dp3226
sI3226
(dp3227
sI3227
(dp3228
sI3228
(dp3229
sI3229
(dp3230
sI3230
(dp3231
sI3231
(dp3232
sI3232
(dp3233
sI3233
(dp3234
sI3234
(dp3235
sI3235
(dp3236
sI3236
(dp3237
sI3237
(dp3238
sI3238
(dp3239
sI3239
(dp3240
sI3240
(dp3241
sI3241
(dp3242
sI3242
(dp3243
sI3243
(dp3244
sI3244
(dp3245
sI3245
(dp3246
sI3246
(dp3247
sI3247
(dp3248
sI3248
(dp3249
sI3249
(dp3250
sI3250
(dp3251
sI3251
(dp3252
sI3252
(dp3253
sI3253
(dp3254
sI3254
(dp3255
sI3255
(dp3256
sI3256
(dp3257
sI3257
(dp3258
sI3258
(dp3259
sI3259
(dp3260
sI3260
(dp3261
sI3261
(dp3262
sI3262
(dp3263
sI3263
(dp3264
sI3264
(dp3265
sI3265
(dp3266
sI3266
(dp3267
sI3267
(dp3268
sI3268
(dp3269
sI3269
(dp3270
sI3270
(dp3271
sI3271
(dp3272
sI3272
(dp3273
sI3273
(dp3274
sI3274
(dp3275
sI3275
(dp3276
sI3276
(dp3277
sI3277
(dp3278
sI3278
(dp3279
sI3279
(dp3280
sI3280
(dp3281
sI3281
(dp3282
sI3282
(dp3283
sI3283
(dp3284
sI3284
(dp3285
sI3285
(dp3286
sI3286
(dp3287
sI3287
(dp3288
sI3288
(dp3289
sI3289
(dp3290
sI3290
(dp3291
sI3291
(dp3292
sI3292
(dp3293
sI3293
(dp3294
sI3294
(dp3295
sI3295
(dp3296
sI3296
(dp3297
sI3297
(dp3298
sI3298
(dp3299
sI3299
(dp3300
sI3300
(dp3301
sI3301
(dp3302
sI3302
(dp3303
sI3303
(dp3304
sI3304
(dp3305
sI3305
(dp3306
sI3306
(dp3307
sI3307
(dp3308
sI3308
(dp3309
sI3309
(dp3310
sI3310
(dp3311
sI3311
(dp3312
sI3312
(dp3313
sI3313
(dp3314
sI3314
(dp3315
sI3315
(dp3316
sI3316
(dp3317
sI3317
(dp3318
sI3318
(dp3319
sI3319
(dp3320
sI3320
(dp3321
sI3321
(dp3322
sI3322
(dp3323
sI3323
(dp3324
sI3324
(dp3325
sI3325
(dp3326
sI3326
(dp3327
sI3327
(dp3328
sI3328
(dp3329
sI3329
(dp3330
sI3330
(dp3331
sI3331
(dp3332
sI3332
(dp3333
sI3333
(dp3334
sI3334
(dp3335
sI3335
(dp3336
sI3336
(dp3337
sI3337
(dp3338
sI3338
(dp3339
sI3339
(dp3340
sI3340
(dp3341
sI3341
(dp3342
sI3342
(dp3343
sI3343
(dp3344
sI3344
(dp3345
sI3345
(dp3346
sI3346
(dp3347
sI3347
(dp3348
sI3348
(dp3349
sI3349
(dp3350
sI3350
(dp3351
sI3351
(dp3352
sI3352
(dp3353
sI3353
(dp3354
sI3354
(dp3355
sI3355
(dp3356
sI3356
(dp3357
sI3357
(dp3358
sI3358
(dp3359
sI3359
(dp3360
sI3360
(dp3361
sI3361
(dp3362
sI3362
(dp3363
sI3363
(dp3364
sI3364
(dp3365
sI3365
(dp3366
sI3366
(dp3367
sI3367
(dp3368
sI3368
(dp3369
sI3369
(dp3370
sI3370
(dp3371
sI3371
(dp3372
sI3372
(dp3373
sI3373
(dp3374
sI3374
(dp3375
sI3375
(dp3376
sI3376
(dp3377
sI3377
(dp3378
sI3378
(dp3379
sI3379
(dp3380
sI3380
(dp3381
sI3381
(dp3382
sI3382
(dp3383
sI3383
(dp3384
sI3384
(dp3385
sI3385
(dp3386
sI3386
(dp3387
sI3387
(dp3388
sI3388
(dp3389
sI3389
(dp3390
sI3390
(dp3391
sI3391
(dp3392
sI3392
(dp3393
sI3393
(dp3394
sI3394
(dp3395
sI3395
(dp3396
sI3396
(dp3397
sI3397
(dp3398
sI3398
(dp3399
sI3399
(dp3400
sI3400
(dp3401
sI3401
(dp3402
sI3402
(dp3403
sI3403
(dp3404
sI3404
(dp3405
sI3405
(dp3406
sI3406
(dp3407
sI3407
(dp3408
sI3408
(dp3409
sI3409
(dp3410
sI3410
(dp3411
sI3411
(dp3412
sI3412
(dp3413
sI3413
(dp3414
sI3414
(dp3415
sI3415
(dp3416
sI3416
(dp3417
sI3417
(dp3418
sI3418
(dp3419
sI3419
(dp3420
sI3420
(dp3421
sI3421
(dp3422
sI3422
(dp3423
sI3423
(dp3424
sI3424
(dp3425
sI3425
(dp3426
sI3426
(dp3427
sI3427
(dp3428
sI3428
(dp3429
sI3429
(dp3430
sI3430
(dp3431
sI3431
(dp3432
sI3432
(dp3433
sI3433
(dp3434
sI3434
(dp3435
sI3435
(dp3436
sI3436
(dp3437
sI3437
(dp3438
sI3438
(dp3439
sI3439
(dp3440
sI3440
(dp3441
sI3441
(dp3442
sI3442
(dp3443
sI3443
(dp3444
sI3444
(dp3445
sI3445
(dp3446
sI3446
(dp3447
sI3447
(dp3448
sI3448
(dp3449
sI3449
(dp3450
sI3450
(dp3451
sI3451
(dp3452
sI3452
(dp3453
sI3453
(dp3454
sI3454
(dp3455
sI3455
(dp3456
sI3456
(dp3457
sI3457
(dp3458
sI3458
(dp3459
sI3459
(dp3460
sI3460
(dp3461
sI3461
(dp3462
sI3462
(dp3463
sI3463
(dp3464
sI3464
(dp3465
sI3465
(dp3466
sI3466
(dp3467
sI3467
(dp3468
sI3468
(dp3469
sI3469
(dp3470
sI3470
(dp3471
sI3471
(dp3472
sI3472
(dp3473
sI3473
(dp3474
sI3474
(dp3475
sI3475
(dp3476
sI3476
(dp3477
sI3477
(dp3478
sI3478
(dp3479
sI3479
(dp3480
sI3480
(dp3481
sI3481
(dp3482
sI3482
(dp3483
sI3483
(dp3484
sI3484
(dp3485
sI3485
(dp3486
sI3486
(dp3487
sI3487
(dp3488
sI3488
(dp3489
sI3489
(dp3490
sI3490
(dp3491
sI3491
(dp3492
sI3492
(dp3493
sI3493
(dp3494
sI3494
(dp3495
sI3495
(dp3496
sI3496
(dp3497
sI3497
(dp3498
sI3498
(dp3499
sI3499
(dp3500
sI3500
(dp3501
sI3501
(dp3502
sI3502
(dp3503
sI3503
(dp3504
sI3504
(dp3505
sI3505
(dp3506
sI3506
(dp3507
sI3507
(dp3508
sI3508
(dp3509
sI3509
(dp3510
sI3510
(dp3511
sI3511
(dp3512
sI3512
(dp3513
sI3513
(dp3514
sI3514
(dp3515
sI3515
(dp3516
sI3516
(dp3517
sI3517
(dp3518
sI3518
(dp3519
sI3519
(dp3520
sI3520
(dp3521
sI3521
(dp3522
sI3522
(dp3523
sI3523
(dp3524
sI3524
(dp3525
sI3525
(dp3526
sI3526
(dp3527
sI3527
(dp3528
sI3528
(dp3529
sI3529
(dp3530
sI3530
(dp3531
sI3531
(dp3532
sI3532
(dp3533
sI3533
(dp3534
sI3534
(dp3535
sI3535
(dp3536
sI3536
(dp3537
sI3537
(dp3538
sI3538
(dp3539
sI3539
(dp3540
sI3540
(dp3541
sI3541
(dp3542
sI3542
(dp3543
sI3543
(dp3544
sI3544
(dp3545
sI3545
(dp3546
sI3546
(dp3547
sI3547
(dp3548
sI3548
(dp3549
sI3549
(dp3550
sI3550
(dp3551
sI3551
(dp3552
sI3552
(dp3553
sI3553
(dp3554
sI3554
(dp3555
sI3555
(dp3556
sI3556
(dp3557
sI3557
(dp3558
sI3558
(dp3559
sI3559
(dp3560
sI3560
(dp3561
sI3561
(dp3562
sI3562
(dp3563
sI3563
(dp3564
sI3564
(dp3565
sI3565
(dp3566
sI3566
(dp3567
sI3567
(dp3568
sI3568
(dp3569
sI3569
(dp3570
sI3570
(dp3571
sI3571
(dp3572
sI3572
(dp3573
sI3573
(dp3574
sI3574
(dp3575
sI3575
(dp3576
sI3576
(dp3577
sI3577
(dp3578
sI3578
(dp3579
sI3579
(dp3580
sI3580
(dp3581
sI3581
(dp3582
sI3582
(dp3583
sI3583
(dp3584
sI3584
(dp3585
sI3585
(dp3586
sI3586
(dp3587
sI3587
(dp3588
sI3588
(dp3589
sI3589
(dp3590
sI3590
(dp3591
sI3591
(dp3592
sI3592
(dp3593
sI3593
(dp3594
sI3594
(dp3595
sI3595
(dp3596
sI3596
(dp3597
sI3597
(dp3598
sI3598
(dp3599
sI3599
(dp3600
sI3600
(dp3601
sI3601
(dp3602
sI3602
(dp3603
sI3603
(dp3604
sI3604
(dp3605
sI3605
(dp3606
sI3606
(dp3607
sI3607
(dp3608
sI3608
(dp3609
sI3609
(dp3610
sI3610
(dp3611
sI3611
(dp3612
sI3612
(dp3613
sI3613
(dp3614
sI3614
(dp3615
sI3615
(dp3616
sI3616
(dp3617
sI3617
(dp3618
sI3618
(dp3619
sI3619
(dp3620
sI3620
(dp3621
sI3621
(dp3622
sI3622
(dp3623
sI3623
(dp3624
sI3624
(dp3625
sI3625
(dp3626
sI3626
(dp3627
sI3627
(dp3628
sI3628
(dp3629
sI3629
(dp3630
sI3630
(dp3631
sI3631
(dp3632
sI3632
(dp3633
sI3633
(dp3634
sI3634
(dp3635
sI3635
(dp3636
sI3636
(dp3637
sI3637
(dp3638
sI3638
(dp3639
sI3639
(dp3640
sI3640
(dp3641
sI3641
(dp3642
sI3642
(dp3643
sI3643
(dp3644
sI3644
(dp3645
sI3645
(dp3646
sI3646
(dp3647
sI3647
(dp3648
sI3648
(dp3649
sI3649
(dp3650
sI3650
(dp3651
sI3651
(dp3652
sI3652
(dp3653
sI3653
(dp3654
sI3654
(dp3655
sI3655
(dp3656
sI3656
(dp3657
sI3657
(dp3658
sI3658
(dp3659
sI3659
(dp3660
sI3660
(dp3661
sI3661
(dp3662
sI3662
(dp3663
sI3663
(dp3664
sI3664
(dp3665
sI3665
(dp3666
sI3666
(dp3667
sI3667
(dp3668
sI3668
(dp3669
sI3669
(dp3670
sI3670
(dp3671
sI3671
(dp3672
sI3672
(dp3673
sI3673
(dp3674
sI3674
(dp3675
sI3675
(dp3676
sI3676
(dp3677
sI3677
(dp3678
sI3678
(dp3679
sI3679
(dp3680
sI3680
(dp3681
sI3681
(dp3682
sI3682
(dp3683
sI3683
(dp3684
sI3684
(dp3685
sI3685
(dp3686
sI3686
(dp3687
sI3687
(dp3688
sI3688
(dp3689
sI3689
(dp3690
sI3690
(dp3691
sI3691
(dp3692
sI3692
(dp3693
sI3693
(dp3694
sI3694
(dp3695
sI3695
(dp3696
sI3696
(dp3697
sI3697
(dp3698
sI3698
(dp3699
sI3699
(dp3700
sI3700
(dp3701
sI3701
(dp3702
sI3702
(dp3703
sI3703
(dp3704
sI3704
(dp3705
sI3705
(dp3706
sI3706
(dp3707
sI3707
(dp3708
sI3708
(dp3709
sI3709
(dp3710
sI3710
(dp3711
sI3711
(dp3712
sI3712
(dp3713
sI3713
(dp3714
sI3714
(dp3715
sI3715
(dp3716
sI3716
(dp3717
sI3717
(dp3718
sI3718
(dp3719
sI3719
(dp3720
sI3720
(dp3721
sI3721
(dp3722
sI3722
(dp3723
sI3723
(dp3724
sI3724
(dp3725
sI3725
(dp3726
sI3726
(dp3727
sI3727
(dp3728
sI3728
(dp3729
sI3729
(dp3730
sI3730
(dp3731
sI3731
(dp3732
sI3732
(dp3733
sI3733
(dp3734
sI3734
(dp3735
sI3735
(dp3736
sI3736
(dp3737
sI3737
(dp3738
sI3738
(dp3739
sI3739
(dp3740
sI3740
(dp3741
sI3741
(dp3742
sI3742
(dp3743
sI3743
(dp3744
sI3744
(dp3745
sI3745
(dp3746
sI3746
(dp3747
sI3747
(dp3748
sI3748
(dp3749
sI3749
(dp3750
sI3750
(dp3751
sI3751
(dp3752
sI3752
(dp3753
sI3753
(dp3754
sI3754
(dp3755
sI3755
(dp3756
sI3756
(dp3757
sI3757
(dp3758
sI3758
(dp3759
sI3759
(dp3760
sI3760
(dp3761
sI3761
(dp3762
sI3762
(dp3763
sI3763
(dp3764
sI3764
(dp3765
sI3765
(dp3766
sI3766
(dp3767
sI3767
(dp3768
sI3768
(dp3769
sI3769
(dp3770
sI3770
(dp3771
sI3771
(dp3772
sI3772
(dp3773
sI3773
(dp3774
sI3774
(dp3775
sI3775
(dp3776
sI3776
(dp3777
sI3777
(dp3778
sI3778
(dp3779
sI3779
(dp3780
sI3780
(dp3781
sI3781
(dp3782
sI3782
(dp3783
sI3783
(dp3784
sI3784
(dp3785
sI3785
(dp3786
sI3786
(dp3787
sI3787
(dp3788
sI3788
(dp3789
sI3789
(dp3790
sI3790
(dp3791
sI3791
(dp3792
sI3792
(dp3793
sI3793
(dp3794
sI3794
(dp3795
sI3795
(dp3796
sI3796
(dp3797
sI3797
(dp3798
sI3798
(dp3799
sI3799
(dp3800
sI3800
(dp3801
sI3801
(dp3802
sI3802
(dp3803
sI3803
(dp3804
sI3804
(dp3805
sI3805
(dp3806
sI3806
(dp3807
sI3807
(dp3808
sI3808
(dp3809
sI3809
(dp3810
sI3810
(dp3811
sI3811
(dp3812
sI3812
(dp3813
sI3813
(dp3814
sI3814
(dp3815
sI3815
(dp3816
sI3816
(dp3817
sI3817
(dp3818
sI3818
(dp3819
sI3819
(dp3820
sI3820
(dp3821
sI3821
(dp3822
sI3822
(dp3823
sI3823
(dp3824
sI3824
(dp3825
sI3825
(dp3826
sI3826
(dp3827
sI3827
(dp3828
sI3828
(dp3829
sI3829
(dp3830
sI3830
(dp3831
sI3831
(dp3832
sI3832
(dp3833
sI3833
(dp3834
sI3834
(dp3835
sI3835
(dp3836
sI3836
(dp3837
sI3837
(dp3838
sI3838
(dp3839
sI3839
(dp3840
sI3840
(dp3841
sI3841
(dp3842
sI3842
(dp3843
sI3843
(dp3844
sI3844
(dp3845
sI3845
(dp3846
sI3846
(dp3847
sI3847
(dp3848
sI3848
(dp3849
sI3849
(dp3850
sI3850
(dp3851
S'mcbinitial'
p3852
Vtr
p3853
sS'grade'
p3854
I3
sS'mcbfinal'
p3855
Vwop
p3856
sS'final'
p3857
I205
sS'kaihe'
p3858
S'he'
p3859
ss.