(dp0
I0
(dp1
S'part'
p2
I0
sS'number'
p3
I1
sS'title'
p4
V\u5468\u5357\u4e00\u4e4b\u4e00
p5
ssI1
(dp6
g2
I0
sg3
I2
sg4
V\u53ec\u5357\u4e00\u4e4b\u4e8c
p7
ssI2
(dp8
g2
I0
sg3
I3
sg4
V\u90b6\u4e00\u4e4b\u4e09
p9
ssI3
(dp10
g2
I0
sg3
I4
sg4
V\u9118\u4e00\u4e4b\u56db
p11
ssI4
(dp12
g2
I0
sg3
I5
sg4
V\u885b\u4e00\u4e4b\u4e94
p13
ssI5
(dp14
g2
I0
sg3
I6
sg4
V\u738b\u4e00\u4e4b\u516d
p15
ssI6
(dp16
g2
I0
sg3
I7
sg4
V\u912d\u4e00\u4e4b\u4e03
p17
ssI7
(dp18
g2
I0
sg3
I8
sg4
V\u9f4a\u4e00\u4e4b\u516b
p19
ssI8
(dp20
g2
I0
sg3
I9
sg4
V\u9b4f\u4e00\u4e4b\u4e5d
p21
ssI9
(dp22
g2
I0
sg3
I10
sg4
V\u5510\u4e00\u4e4b\u5341
p23
ssI10
(dp24
g2
I0
sg3
I11
sg4
V\u79e6\u4e00\u4e4b\u5341\u4e00
p25
ssI11
(dp26
g2
I0
sg3
I12
sg4
V\u9673\u4e00\u4e4b\u5341\u4e8c
p27
ssI12
(dp28
g2
I0
sg3
I13
sg4
V\u6a9c\u98a8
p29
ssI13
(dp30
g2
I0
sg3
I14
sg4
V\u66f9\u4e00\u4e4b\u5341\u56db
p31
ssI14
(dp32
g2
I0
sg3
I15
sg4
V\u8c73\u4e00\u4e4b\u4e94
p33
ssI15
(dp34
g2
I1
sg3
I16
sg4
V\u9e7f\u9cf4\u4e4b\u4ec0\u4e8c\u4e00
p35
ssI16
(dp36
g2
I1
sg3
I17
sg4
V\u5f64\u5f13\u4e4b\u4ec0\u4e8c\u4e4b\u4e09
p37
ssI17
(dp38
g2
I1
sg3
I18
sg4
V\u7948\u7236\u4e4b\u4ec0\u4e8c\u4e4b\u56db
p39
ssI18
(dp40
g2
I1
sg3
I19
sg4
V\u5c0f\u65fb\u4e4b\u4ec0\u4e8c\u4e4b\u4e94
p41
ssI19
(dp42
g2
I1
sg3
I20
sg4
V\u5317\u5c71\u4e4b\u4ec0\u4e8c\u4e4b\u516d
p43
ssI20
(dp44
g2
I1
sg3
I21
sg4
V\u6851\u6248\u4e4b\u4ec0\u4e8c\u4e4b\u4e03
p45
ssI21
(dp46
g2
I1
sg3
I22
sg4
V\u90fd\u4eba\u58eb\u4e4b\u4ec0\u4e8c\u4e4b\u516b
p47
ssI22
(dp48
g2
I2
sg3
I23
sg4
V\u6587\u738b\u4e4b\u4ec0\u4e09\u4e4b\u4e00
p49
ssI23
(dp50
g2
I2
sg3
I24
sg4
V\u751f\u6c11\u4e4b\u4ec0\u4e09\u4e4b\u4e8c
p51
ssI24
(dp52
g2
I2
sg3
I25
sg4
V\u8569\u4e4b\u4ec0\u4e09\u4e4b\u4e09
p53
ssI25
(dp54
g2
I3
sg3
I26
sg4
V\u6e05\u5edf\u4e4b\u4ec0\u56db\u4e00\u4e4b\u4e00
p55
ssI26
(dp56
g2
I3
sg3
I27
sg4
V\u81e3\u5de5\u4e4b\u4ec0\u56db\u4e00\u4e4b\u4e8c
p57
ssI27
(dp58
g2
I3
sg3
I28
sg4
V\u9b6f\u980c\u56db\u4e4b\u4e8c
p59
ssI28
(dp60
g2
I3
sg3
I29
sg4
V\u5546\u980c\u56db\u4e4b\u4e09
p61
ss.