(dp0
I0
(dp1
S'book'
p2
I0
sS'number'
p3
S'1'
p4
sS'title'
p5
V\u95dc\u95dc
p6
ssI1
(dp7
g2
I0
sg3
S'2'
p8
sg5
V\u845b\u8983
p9
ssI2
(dp10
g2
I0
sg3
S'4'
p11
sg5
V\u6a1b\u6728
p12
ssI3
(dp13
g2
I0
sg3
S'5'
p14
sg5
V\u87bd\u65af
p15
ssI4
(dp16
g2
I0
sg3
S'6'
p17
sg5
V\u6843\u592d
p18
ssI5
(dp19
g2
I0
sg3
S'7'
p20
sg5
V\u5154\u7f5d
p21
ssI6
(dp22
g2
I0
sg3
S'8'
p23
sg5
V\u82a3\u82e2
p24
ssI7
(dp25
g2
I0
sg3
S'9'
p26
sg5
V\u6f22\u5ee3
p27
ssI8
(dp28
g2
I0
sg3
S'10'
p29
sg5
V\u6c5d\u58b3
p30
ssI9
(dp31
g2
I0
sg3
S'11'
p32
sg5
V\u9e9f\u4e4b\u8dbe
p33
ssI10
(dp34
g2
I1
sg3
S'12'
p35
sg5
V\u9d72\u5de2
p36
ssI11
(dp37
g2
I1
sg3
S'13'
p38
sg5
V\u91c7\u8629
p39
ssI12
(dp40
g2
I1
sg3
S'14'
p41
sg5
V\u8349\u87f2
p42
ssI13
(dp43
g2
I1
sg3
S'15'
p44
sg5
V\u91c7\u860b
p45
ssI14
(dp46
g2
I1
sg3
S'16'
p47
sg5
V\u7518\u68e0
p48
ssI15
(dp49
g2
I1
sg3
S'17'
p50
sg5
V\u884c\u9732
p51
ssI16
(dp52
g2
I1
sg3
S'18'
p53
sg5
V\u7f94\u7f8a
p54
ssI17
(dp55
g2
I1
sg3
S'19'
p56
sg5
V\u6bb7\u5176\u9741
p57
ssI18
(dp58
g2
I1
sg3
S'20'
p59
sg5
V\u647d\u6709\u6885
p60
ssI19
(dp61
g2
I1
sg3
S'21'
p62
sg5
V\u5c0f\u661f
p63
ssI20
(dp64
g2
I1
sg3
S'22'
p65
sg5
V\u6c5f\u6709\u6c5c
p66
ssI21
(dp67
g2
I1
sg3
S'23'
p68
sg5
V\u91ce\u6709\u6b7b\u9e95
p69
ssI22
(dp70
g2
I1
sg3
S'24'
p71
sg5
V\u4f55\u5f7c\u895b\u77e3
p72
ssI23
(dp73
g2
I1
sg3
S'25'
p74
sg5
V\u9a36\u865e
p75
ssI24
(dp76
g2
I2
sg3
S'26'
p77
sg5
V\u67cf\u821f
p78
ssI25
(dp79
g2
I2
sg3
S'27'
p80
sg5
V\u7da0\u8863
p81
ssI26
(dp82
g2
I2
sg3
S'28'
p83
sg5
V\u71d5\u71d5
p84
ssI27
(dp85
g2
I2
sg3
S'29'
p86
sg5
V\u65e5\u6708
p87
ssI28
(dp88
g2
I2
sg3
S'30'
p89
sg5
V\u7d42\u98a8
p90
ssI29
(dp91
g2
I2
sg3
S'31'
p92
sg5
V\u64ca\u9f13
p93
ssI30
(dp94
g2
I2
sg3
S'32'
p95
sg5
V\u51f1\u98a8
p96
ssI31
(dp97
g2
I2
sg3
S'33'
p98
sg5
V\u96c4\u96c9
p99
ssI32
(dp100
g2
I2
sg3
S'35'
p101
sg5
V\u8c37\u98a8
p102
ssI33
(dp103
g2
I2
sg3
S'36'
p104
sg5
V\u5f0f\u5fae
p105
ssI34
(dp106
g2
I2
sg3
S'37'
p107
sg5
V\u65c4\u4e18
p108
ssI35
(dp109
g2
I2
sg3
S'38'
p110
sg5
V\u7c21\u516e
p111
ssI36
(dp112
g2
I2
sg3
S'39'
p113
sg5
V\u6cc9\u6c34
p114
ssI37
(dp115
g2
I2
sg3
S'40'
p116
sg5
V\u5317\u9580
p117
ssI38
(dp118
g2
I2
sg3
S'41'
p119
sg5
V\u5317\u98a8
p120
ssI39
(dp121
g2
I2
sg3
S'42'
p122
sg5
V\u975c\u5973
p123
ssI40
(dp124
g2
I2
sg3
S'43'
p125
sg5
V\u65b0\u81fa
p126
ssI41
(dp127
g2
I2
sg3
S'44'
p128
sg5
V\u4e8c\u5b50\u4e58\u821f
p129
ssI42
(dp130
g2
I3
sg3
S'45'
p131
sg5
V\u67cf\u821f
p132
ssI43
(dp133
g2
I3
sg3
S'46'
p134
sg5
V\u7246\u6709\u8328
p135
ssI44
(dp136
g2
I3
sg3
S'47'
p137
sg5
V\u541b\u5b50\u5055\u8001
p138
ssI45
(dp139
g2
I3
sg3
S'48'
p140
sg5
V\u6851\u4e2d
p141
ssI46
(dp142
g2
I3
sg3
S'49'
p143
sg5
V\u9d89\u4e4b\u5954\u5954
p144
ssI47
(dp145
g2
I3
sg3
S'50'
p146
sg5
V\u5b9a\u4e4b\u65b9\u4e2d
p147
ssI48
(dp148
g2
I3
sg3
S'51'
p149
sg5
V\u8743\u8740
p150
ssI49
(dp151
g2
I3
sg3
S'53'
p152
sg5
V\u5e72\u65c4
p153
ssI50
(dp154
g2
I3
sg3
S'54'
p155
sg5
V\u8f09\u99b3
p156
ssI51
(dp157
g2
I4
sg3
S'55'
p158
sg5
V\u6dc7\u5967
p159
ssI52
(dp160
g2
I4
sg3
S'56'
p161
sg5
V\u8003\u69c3
p162
ssI53
(dp163
g2
I4
sg3
S'57'
p164
sg5
V\u78a9\u4eba
p165
ssI54
(dp166
g2
I4
sg3
S'58'
p167
sg5
V\u6c13
p168
ssI55
(dp169
g2
I4
sg3
S'59'
p170
sg5
V\u7af9\u7aff
p171
ssI56
(dp172
g2
I4
sg3
S'60'
p173
sg5
V\u8284\u862d
p174
ssI57
(dp175
g2
I4
sg3
S'61'
p176
sg5
V\u6cb3\u5ee3
p177
ssI58
(dp178
g2
I4
sg3
S'62'
p179
sg5
V\u4f2f\u516e
p180
ssI59
(dp181
g2
I4
sg3
S'63'
p182
sg5
V\u6709\u72d0
p183
ssI60
(dp184
g2
I4
sg3
S'64'
p185
sg5
V\u6728\u74dc
p186
ssI61
(dp187
g2
I5
sg3
S'65'
p188
sg5
V\u9ecd\u96e2
p189
ssI62
(dp190
g2
I5
sg3
S'66'
p191
sg5
V\u541b\u5b50\u4e8e\u5f79
p192
ssI63
(dp193
g2
I5
sg3
S'67'
p194
sg5
V\u541b\u5b50\u967d\u967d
p195
ssI64
(dp196
g2
I5
sg3
S'68'
p197
sg5
V\u63da\u4e4b\u6c34
p198
ssI65
(dp199
g2
I5
sg3
S'69'
p200
sg5
V\u4e2d\u8c37\u6709\u84f7
p201
ssI66
(dp202
g2
I5
sg3
S'70'
p203
sg5
V\u5154\u7230
p204
ssI67
(dp205
g2
I5
sg3
S'71'
p206
sg5
V\u845b\u85df
p207
ssI68
(dp208
g2
I5
sg3
S'72'
p209
sg5
V\u91c7\u845b
p210
ssI69
(dp211
g2
I5
sg3
S'73'
p212
sg5
V\u5927\u8eca
p213
ssI70
(dp214
g2
I5
sg3
S'74'
p215
sg5
V\u4e18\u4e2d\u6709\u9ebb
p216
ssI71
(dp217
g2
I6
sg3
S'75'
p218
sg5
V\u7dc7\u8863
p219
ssI72
(dp220
g2
I6
sg3
S'76'
p221
sg5
V\u5c07\u4ef2\u5b50
p222
ssI73
(dp223
g2
I6
sg3
S'77'
p224
sg5
V\u53d4\u4e8e\u7530
p225
ssI74
(dp226
g2
I6
sg3
S'78'
p227
sg5
V\u5927\u53d4\u4e8e\u7530
p228
ssI75
(dp229
g2
I6
sg3
S'79'
p230
sg5
V\u6e05\u4eba
p231
ssI76
(dp232
g2
I6
sg3
S'80'
p233
sg5
V\u7f94\u88d8
p234
ssI77
(dp235
g2
I6
sg3
S'81'
p236
sg5
V\u9075\u5927\u8def
p237
ssI78
(dp238
g2
I6
sg3
S'82'
p239
sg5
V\u5973\u66f0\u96de\u9cf4
p240
ssI79
(dp241
g2
I6
sg3
S'83'
p242
sg5
V\u6709\u5973\u540c\u8eca
p243
ssI80
(dp244
g2
I6
sg3
S'84'
p245
sg5
V\u5c71\u6709\u6276\u8607
p246
ssI81
(dp247
g2
I6
sg3
S'85'
p248
sg5
V\u8600\u516e
p249
ssI82
(dp250
g2
I6
sg3
S'86'
p251
sg5
V\u72e1\u7ae5
p252
ssI83
(dp253
g2
I6
sg3
S'87'
p254
sg5
V\u8930\u88f3
p255
ssI84
(dp256
g2
I6
sg3
S'88'
p257
sg5
V\u4e30
p258
ssI85
(dp259
g2
I6
sg3
S'89'
p260
sg5
V\u6771\u9580\u4e4b\u58a0
p261
ssI86
(dp262
g2
I6
sg3
S'90'
p263
sg5
V\u98a8\u96e8
p264
ssI87
(dp265
g2
I6
sg3
S'91'
p266
sg5
V\u5b50\u887f
p267
ssI88
(dp268
g2
I6
sg3
S'92'
p269
sg5
V\u63da\u4e4b\u6c34
p270
ssI89
(dp271
g2
I6
sg3
S'93'
p272
sg5
V\u51fa\u5176\u6771\u9580
p273
ssI90
(dp274
g2
I6
sg3
S'94'
p275
sg5
V\u91ce\u6709\u8513\u8349
p276
ssI91
(dp277
g2
I6
sg3
S'95'
p278
sg5
V\u6eb1\u6d27
p279
ssI92
(dp280
g2
I7
sg3
S'96'
p281
sg5
V\u96de\u9cf4
p282
ssI93
(dp283
g2
I7
sg3
S'97'
p284
sg5
V\u9084
p285
ssI94
(dp286
g2
I7
sg3
S'98'
p287
sg5
V\u8457
p288
ssI95
(dp289
g2
I7
sg3
S'99'
p290
sg5
V\u6771\u65b9\u4e4b\u65e5
p291
ssI96
(dp292
g2
I7
sg3
S'100'
p293
sg5
V\u6771\u65b9\u672a\u660e
p294
ssI97
(dp295
g2
I7
sg3
S'101'
p296
sg5
V\u5357\u5c71
p297
ssI98
(dp298
g2
I7
sg3
S'102'
p299
sg5
V\u752b\u7530
p300
ssI99
(dp301
g2
I7
sg3
S'103'
p302
sg5
V\u76e7\u4ee4
p303
ssI100
(dp304
g2
I7
sg3
S'104'
p305
sg5
V\u655d\u7b31
p306
ssI101
(dp307
g2
I7
sg3
S'105'
p308
sg5
V\u8f09\u9a45
p309
ssI102
(dp310
g2
I7
sg3
S'106'
p311
sg5
V\u7317\u55df
p312
ssI103
(dp313
g2
I8
sg3
S'107'
p314
sg5
V\u845b\u5c68
p315
ssI104
(dp316
g2
I8
sg3
S'108'
p317
sg5
V\u6c7e\u6cae\u6d33
p318
ssI105
(dp319
g2
I8
sg3
S'109'
p320
sg5
V\u5712\u6709\u6843
p321
ssI106
(dp322
g2
I8
sg3
S'110'
p323
sg5
V\u965f\u5cb5
p324
ssI107
(dp325
g2
I8
sg3
S'111'
p326
sg5
V\u5341\u755d\u4e4b\u9593
p327
ssI108
(dp328
g2
I8
sg3
S'112'
p329
sg5
V\u4f10\u6a80
p330
ssI109
(dp331
g2
I8
sg3
S'113'
p332
sg5
V\u78a9\u9f20
p333
ssI110
(dp334
g2
I9
sg3
S'114'
p335
sg5
V\u87cb\u87c0
p336
ssI111
(dp337
g2
I9
sg3
S'115'
p338
sg5
V\u5c71\u6709\u6a1e
p339
ssI112
(dp340
g2
I9
sg3
S'116'
p341
sg5
V\u63da\u4e4b\u6c34
p342
ssI113
(dp343
g2
I9
sg3
S'117'
p344
sg5
V\u6912\u804a
p345
ssI114
(dp346
g2
I9
sg3
S'118'
p347
sg5
V\u7da2\u7e46
p348
ssI115
(dp349
g2
I9
sg3
S'119'
p350
sg5
V\u6755\u675c
p351
ssI116
(dp352
g2
I9
sg3
S'120'
p353
sg5
V\u7f94\u88d8
p354
ssI117
(dp355
g2
I9
sg3
S'121'
p356
sg5
V\u9d07\u7fbd
p357
ssI118
(dp358
g2
I9
sg3
S'122'
p359
sg5
V\u7121\u8863
p360
ssI119
(dp361
g2
I9
sg3
S'123'
p362
sg5
V\u6709\u6755\u4e4b\u675c
p363
ssI120
(dp364
g2
I9
sg3
S'124'
p365
sg5
V\u845b\u751f
p366
ssI121
(dp367
g2
I9
sg3
S'125'
p368
sg5
V\u91c7\u82d3
p369
ssI122
(dp370
g2
I10
sg3
S'126'
p371
sg5
V\u8eca\u9130
p372
ssI123
(dp373
g2
I10
sg3
S'127'
p374
sg5
V\u99df\u9a56
p375
ssI124
(dp376
g2
I10
sg3
S'128'
p377
sg5
V\u5c0f\u620e
p378
ssI125
(dp379
g2
I10
sg3
S'129'
p380
sg5
V\u84b9\u846d
p381
ssI126
(dp382
g2
I10
sg3
S'130'
p383
sg5
V\u7d42\u5357
p384
ssI127
(dp385
g2
I10
sg3
S'131'
p386
sg5
V\u4ea4\u4ea4\u9ec3\u9ce5
p387
ssI128
(dp388
g2
I10
sg3
S'132'
p389
sg5
V\u6668\u98a8
p390
ssI129
(dp391
g2
I10
sg3
S'133'
p392
sg5
V\u7121\u8863
p393
ssI130
(dp394
g2
I10
sg3
S'134'
p395
sg5
V\u6e2d\u967d
p396
ssI131
(dp397
g2
I10
sg3
S'135'
p398
sg5
V\u6b0a\u8f3f
p399
ssI132
(dp400
g2
I11
sg3
S'136'
p401
sg5
V\u5b9b\u4e18
p402
ssI133
(dp403
g2
I11
sg3
S'137'
p404
sg5
V\u6771\u9580\u4e4b\u678c
p405
ssI134
(dp406
g2
I11
sg3
S'138'
p407
sg5
V\u8861\u9580
p408
ssI135
(dp409
g2
I11
sg3
S'139'
p410
sg5
V\u6771\u9580\u4e4b\u6c60
p411
ssI136
(dp412
g2
I11
sg3
S'140'
p413
sg5
V\u6771\u9580\u4e4b\u694a
p414
ssI137
(dp415
g2
I11
sg3
S'141'
p416
sg5
V\u5893\u9580
p417
ssI138
(dp418
g2
I11
sg3
S'142'
p419
sg5
V\u9632\u6709\u9d72\u5de2
p420
ssI139
(dp421
g2
I11
sg3
S'143'
p422
sg5
V\u6708\u51fa
p423
ssI140
(dp424
g2
I11
sg3
S'144'
p425
sg5
V\u682a\u6797
p426
ssI141
(dp427
g2
I11
sg3
S'145'
p428
sg5
V\u6fa4\u9642
p429
ssI142
(dp430
g2
I12
sg3
S'146'
p431
sg5
V\u7f94\u88d8
p432
ssI143
(dp433
g2
I12
sg3
S'147'
p434
sg5
V\u7d20\u51a0
p435
ssI144
(dp436
g2
I12
sg3
S'148'
p437
sg5
V\u96b0\u6709\u8407\u695a
p438
ssI145
(dp439
g2
I12
sg3
S'149'
p440
sg5
V\u532a\u98a8
p441
ssI146
(dp442
g2
I13
sg3
S'150'
p443
sg5
V\u8709\u8763
p444
ssI147
(dp445
g2
I13
sg3
S'151'
p446
sg5
V\u5019\u4eba
p447
ssI148
(dp448
g2
I13
sg3
S'152'
p449
sg5
V\u9cf2\u9ce9
p450
ssI149
(dp451
g2
I13
sg3
S'153'
p452
sg5
V\u4e0b\u6cc9
p453
ssI150
(dp454
g2
I14
sg3
S'154'
p455
sg5
V\u4e03\u6708
p456
ssI151
(dp457
g2
I14
sg3
S'155'
p458
sg5
V\u9d1f\u9d1e
p459
ssI152
(dp460
g2
I14
sg3
S'156'
p461
sg5
V\u6771\u5c71
p462
ssI153
(dp463
g2
I14
sg3
S'157'
p464
sg5
V\u7834\u65a7
p465
ssI154
(dp466
g2
I14
sg3
S'158'
p467
sg5
V\u4f10\u67ef
p468
ssI155
(dp469
g2
I14
sg3
S'159'
p470
sg5
V\u4e5d\u7f6d
p471
ssI156
(dp472
g2
I14
sg3
S'160'
p473
sg5
V\u72fc\u8dcb
p474
ssI157
(dp475
g2
I15
sg3
S'161'
p476
sg5
V\u9e7f\u9cf4
p477
ssI158
(dp478
g2
I15
sg3
S'162'
p479
sg5
V\u56db\u7261
p480
ssI159
(dp481
g2
I15
sg3
S'163'
p482
sg5
V\u7687\u7687\u8005\u83ef
p483
ssI160
(dp484
g2
I15
sg3
S'164'
p485
sg5
V\u5e38\u68e3
p486
ssI161
(dp487
g2
I15
sg3
S'165'
p488
sg5
V\u4f10\u6728
p489
ssI162
(dp490
g2
I15
sg3
S'166'
p491
sg5
V\u5929\u4fdd
p492
ssI163
(dp493
g2
I15
sg3
S'167'
p494
sg5
V\u91c7\u8587
p495
ssI164
(dp496
g2
I15
sg3
S'168'
p497
sg5
V\u51fa\u8eca
p498
ssI165
(dp499
g2
I15
sg3
S'169'
p500
sg5
V\u6755\u675c
p501
ssI166
(dp502
g2
I15
sg3
S'169b'
p503
sg5
V\u767d\u83ef\u4e4b\u4ec0\u4e8c\u4e4b\u4e8c
p504
ssI167
(dp505
g2
I15
sg3
S'170'
p506
sg5
V\u9b5a\u9e97
p507
ssI168
(dp508
g2
I15
sg3
S'171'
p509
sg5
V\u5357\u6709\u5609\u9b5a
p510
ssI169
(dp511
g2
I15
sg3
S'172'
p512
sg5
V\u5357\u5c71\u6709\u81fa
p513
ssI170
(dp514
g2
I15
sg3
S'173'
p515
sg5
V\u84fc\u856d
p516
ssI171
(dp517
g2
I15
sg3
S'174'
p518
sg5
V\u6e5b\u9732
p519
ssI172
(dp520
g2
I16
sg3
S'175'
p521
sg5
V\u5f64\u5f13
p522
ssI173
(dp523
g2
I16
sg3
S'176'
p524
sg5
V\u83c1\u83c1\u8005\u83aa
p525
ssI174
(dp526
g2
I16
sg3
S'177'
p527
sg5
V\u516d\u6708
p528
ssI175
(dp529
g2
I16
sg3
S'178'
p530
sg5
V\u91c7\u8291
p531
ssI176
(dp532
g2
I16
sg3
S'179'
p533
sg5
V\u8eca\u653b
p534
ssI177
(dp535
g2
I16
sg3
S'180'
p536
sg5
V\u5409\u65e5
p537
ssI178
(dp538
g2
I16
sg3
S'181'
p539
sg5
V\u9d3b\u96c1
p540
ssI179
(dp541
g2
I16
sg3
S'182'
p542
sg5
V\u591c\u5982\u4f55\u5176
p543
ssI180
(dp544
g2
I16
sg3
S'183'
p545
sg5
V\u6c94\u6c34
p546
ssI181
(dp547
g2
I16
sg3
S'184'
p548
sg5
V\u9db4\u9cf4
p549
ssI182
(dp550
g2
I17
sg3
S'185'
p551
sg5
V\u7948\u7236
p552
ssI183
(dp553
g2
I17
sg3
S'186'
p554
sg5
V\u767d\u99d2
p555
ssI184
(dp556
g2
I17
sg3
S'187'
p557
sg5
V\u9ec3\u9ce5
p558
ssI185
(dp559
g2
I17
sg3
S'188'
p560
sg5
V\u6211\u884c\u5176\u91ce
p561
ssI186
(dp562
g2
I17
sg3
S'189'
p563
sg5
V\u65af\u5e72
p564
ssI187
(dp565
g2
I17
sg3
S'190'
p566
sg5
V\u7121\u7236\u6bcd\u8a52\u7f79
p567
ssI188
(dp568
g2
I17
sg3
S'191'
p569
sg5
V\u7bc0\u5357\u5c71
p570
ssI189
(dp571
g2
I17
sg3
S'192'
p572
sg5
V\u6b63\u6708
p573
ssI190
(dp574
g2
I17
sg3
S'193'
p575
sg5
V\u5341\u6708\u4e4b\u4ea4
p576
ssI191
(dp577
g2
I17
sg3
S'194'
p578
sg5
V\u96e8\u7121\u6b63
p579
ssI192
(dp580
g2
I18
sg3
S'195'
p581
sg5
V\u5c0f\u65fb
p582
ssI193
(dp583
g2
I18
sg3
S'196'
p584
sg5
V\u5c0f\u5b9b
p585
ssI194
(dp586
g2
I18
sg3
S'197'
p587
sg5
V\u5c0f\u5f01
p588
ssI195
(dp589
g2
I18
sg3
S'198'
p590
sg5
V\u5de7\u8a00
p591
ssI196
(dp592
g2
I18
sg3
S'199'
p593
sg5
V\u4f55\u4eba\u65af
p594
ssI197
(dp595
g2
I18
sg3
S'200'
p596
sg5
V\u5df7\u4f2f
p597
ssI198
(dp598
g2
I18
sg3
S'201'
p599
sg5
V\u8c37\u98a8
p600
ssI199
(dp601
g2
I18
sg3
S'202'
p602
sg5
V\u84fc\u83aa
p603
ssI200
(dp604
g2
I18
sg3
S'203'
p605
sg5
V\u5927\u6771
p606
ssI201
(dp607
g2
I18
sg3
S'204'
p608
sg5
V\u56db\u6708
p609
ssI202
(dp610
g2
I19
sg3
S'205'
p611
sg5
V\u5317\u5c71
p612
ssI203
(dp613
g2
I19
sg3
S'206'
p614
sg5
V\u7121\u5c07\u5927\u8eca
p615
ssI204
(dp616
g2
I19
sg3
S'207'
p617
sg5
V\u5c0f\u660e
p618
ssI205
(dp619
g2
I19
sg3
S'208'
p620
sg5
V\u9f13\u937e
p621
ssI206
(dp622
g2
I19
sg3
S'209'
p623
sg5
V\u695a\u8328
p624
ssI207
(dp625
g2
I19
sg3
S'210'
p626
sg5
V\u4fe1\u5357\u5c71
p627
ssI208
(dp628
g2
I19
sg3
S'211'
p629
sg5
V\u752b\u7530
p630
ssI209
(dp631
g2
I19
sg3
S'212'
p632
sg5
V\u5927\u7530
p633
ssI210
(dp634
g2
I19
sg3
S'214'
p635
sg5
V\u88f3\u88f3\u8005\u83ef
p636
ssI211
(dp637
g2
I20
sg3
S'215'
p638
sg5
V\u6851\u6248
p639
ssI212
(dp640
g2
I20
sg3
S'216'
p641
sg5
V\u9d1b\u9d26
p642
ssI213
(dp643
g2
I20
sg3
S'217'
p644
sg5
V\u980d\u5f01
p645
ssI214
(dp646
g2
I20
sg3
S'219'
p647
sg5
V\u9752\u8805
p648
ssI215
(dp649
g2
I20
sg3
S'220'
p650
sg5
V\u8cd3\u4e4b\u521d\u7b75
p651
ssI216
(dp652
g2
I20
sg3
S'221'
p653
sg5
V\u9b5a\u85fb
p654
ssI217
(dp655
g2
I20
sg3
S'222'
p656
sg5
V\u91c7\u83fd
p657
ssI218
(dp658
g2
I20
sg3
S'223'
p659
sg5
V\u89d2\u5f13
p660
ssI219
(dp661
g2
I20
sg3
S'224'
p662
sg5
V\u83c0\u67f3
p663
ssI220
(dp664
g2
I21
sg3
S'225'
p665
sg5
V\u90fd\u4eba\u58eb
p666
ssI221
(dp667
g2
I21
sg3
S'226'
p668
sg5
V\u91c7\u7da0
p669
ssI222
(dp670
g2
I21
sg3
S'227'
p671
sg5
V\u9ecd\u82d7
p672
ssI223
(dp673
g2
I21
sg3
S'228'
p674
sg5
V\u96b0\u6851
p675
ssI224
(dp676
g2
I21
sg3
S'229'
p677
sg5
V\u767d\u83ef
p678
ssI225
(dp679
g2
I21
sg3
S'230'
p680
sg5
V\u7dbf\u883b
p681
ssI226
(dp682
g2
I21
sg3
S'231'
p683
sg5
V\u74e0\u8449
p684
ssI227
(dp685
g2
I21
sg3
S'232'
p686
sg5
V\u6f38\u6f38\u4e4b\u77f3
p687
ssI228
(dp688
g2
I21
sg3
S'233'
p689
sg5
V\u82d5\u4e4b\u83ef
p690
ssI229
(dp691
g2
I21
sg3
S'234'
p692
sg5
V\u4f55\u8349\u4e0d\u9ec3
p693
ssI230
(dp694
g2
I22
sg3
S'235'
p695
sg5
V\u6587\u738b
p696
ssI231
(dp697
g2
I22
sg3
S'236'
p698
sg5
V\u5927\u660e
p699
ssI232
(dp700
g2
I22
sg3
S'238'
p701
sg5
V\u68eb\u6a38
p702
ssI233
(dp703
g2
I22
sg3
S'239'
p704
sg5
V\u65e9\u9e93
p705
ssI234
(dp706
g2
I22
sg3
S'240'
p707
sg5
V\u601d\u9f4a
p708
ssI235
(dp709
g2
I22
sg3
S'241'
p710
sg5
V\u7687\u77e3
p711
ssI236
(dp712
g2
I22
sg3
S'242'
p713
sg5
V\u9748\u81fa
p714
ssI237
(dp715
g2
I22
sg3
S'243'
p716
sg5
V\u4e0b\u6b66
p717
ssI238
(dp718
g2
I22
sg3
S'244'
p719
sg5
V\u6587\u738b\u6709\u8072
p720
ssI239
(dp721
g2
I23
sg3
S'245'
p722
sg5
V\u751f\u6c11
p723
ssI240
(dp724
g2
I23
sg3
S'246'
p725
sg5
V\u884c\u8466
p726
ssI241
(dp727
g2
I23
sg3
S'247'
p728
sg5
V\u65e2\u9189
p729
ssI242
(dp730
g2
I23
sg3
S'248'
p731
sg5
V\u9ce7\u9dd6
p732
ssI243
(dp733
g2
I23
sg3
S'249'
p734
sg5
V\u5047\u6a02
p735
ssI244
(dp736
g2
I23
sg3
S'250'
p737
sg5
V\u516c\u5289
p738
ssI245
(dp739
g2
I23
sg3
S'251'
p740
sg5
V\u6cc2\u914c
p741
ssI246
(dp742
g2
I23
sg3
S'252'
p743
sg5
V\u5377\u963f
p744
ssI247
(dp745
g2
I23
sg3
S'253'
p746
sg5
V\u6c11\u52de
p747
ssI248
(dp748
g2
I23
sg3
S'254'
p749
sg5
V\u677f
p750
ssI249
(dp751
g2
I24
sg3
S'255'
p752
sg5
V\u8569
p753
ssI250
(dp754
g2
I24
sg3
S'256'
p755
sg5
V\u6291
p756
ssI251
(dp757
g2
I24
sg3
S'257'
p758
sg5
V\u6851\u67d4
p759
ssI252
(dp760
g2
I24
sg3
S'258'
p761
sg5
V\u96f2\u6f22
p762
ssI253
(dp763
g2
I24
sg3
S'259'
p764
sg5
V\u5d27\u9ad8
p765
ssI254
(dp766
g2
I24
sg3
S'260'
p767
sg5
V\u70dd\u6c11
p768
ssI255
(dp769
g2
I24
sg3
S'261'
p770
sg5
V\u97d3\u5955
p771
ssI256
(dp772
g2
I24
sg3
S'262'
p773
sg5
V\u6c5f\u6f22
p774
ssI257
(dp775
g2
I24
sg3
S'263'
p776
sg5
V\u5e38\u6b66
p777
ssI258
(dp778
g2
I24
sg3
S'264'
p779
sg5
V\u77bb\u536c
p780
ssI259
(dp781
g2
I24
sg3
S'265'
p782
sg5
V\u53ec\u65fb
p783
ssI260
(dp784
g2
I25
sg3
S'266'
p785
sg5
V\u6e05\u5edf
p786
ssI261
(dp787
g2
I25
sg3
S'267'
p788
sg5
V\u7dad\u5929\u4e4b\u547d
p789
ssI262
(dp790
g2
I25
sg3
S'268'
p791
sg5
V\u7dad\u6e05
p792
ssI263
(dp793
g2
I25
sg3
S'269'
p794
sg5
V\u70c8\u6587
p795
ssI264
(dp796
g2
I25
sg3
S'270'
p797
sg5
V\u5929\u4f5c
p798
ssI265
(dp799
g2
I25
sg3
S'271'
p800
sg5
V\u660a\u5929\u6709\u6210\u547d
p801
ssI266
(dp802
g2
I25
sg3
S'272'
p803
sg5
V\u6211\u5c07
p804
ssI267
(dp805
g2
I25
sg3
S'273'
p806
sg5
V\u6642\u9081
p807
ssI268
(dp808
g2
I25
sg3
S'274'
p809
sg5
V\u57f7\u7af6
p810
ssI269
(dp811
g2
I25
sg3
S'275'
p812
sg5
V\u601d\u6587
p813
ssI270
(dp814
g2
I26
sg3
S'276'
p815
sg5
V\u81e3\u5de5
p816
ssI271
(dp817
g2
I26
sg3
S'277'
p818
sg5
V\u566b\u563b
p819
ssI272
(dp820
g2
I26
sg3
S'278'
p821
sg5
V\u632f\u9dfa
p822
ssI273
(dp823
g2
I26
sg3
S'279'
p824
sg5
V\u8c50\u5e74
p825
ssI274
(dp826
g2
I26
sg3
S'281'
p827
sg5
V\u6f5b
p828
ssI275
(dp829
g2
I26
sg3
S'282'
p830
sg5
V\u96dd
p831
ssI276
(dp832
g2
I26
sg3
S'283'
p833
sg5
V\u8f09\u898b
p834
ssI277
(dp835
g2
I26
sg3
S'284'
p836
sg5
V\u6709\u5ba2
p837
ssI278
(dp838
g2
I26
sg3
S'285'
p839
sg5
V\u6b66
p840
ssI279
(dp841
g2
I26
sg3
S'286'
p842
sg5
V\u9594\u4e88\u5c0f\u5b50
p843
ssI280
(dp844
g2
I26
sg3
S'287'
p845
sg5
V\u8a2a\u843d
p846
ssI281
(dp847
g2
I26
sg3
S'288'
p848
sg5
V\u656c\u4e4b
p849
ssI282
(dp850
g2
I26
sg3
S'289'
p851
sg5
V\u5c0f\u6bd6
p852
ssI283
(dp853
g2
I26
sg3
S'290'
p854
sg5
V\u8f09\u829f
p855
ssI284
(dp856
g2
I26
sg3
S'291'
p857
sg5
V\u826f\u801c
p858
ssI285
(dp859
g2
I26
sg3
S'292'
p860
sg5
V\u7d72\u8863
p861
ssI286
(dp862
g2
I26
sg3
S'294'
p863
sg5
V\u6853
p864
ssI287
(dp865
g2
I26
sg3
S'295'
p866
sg5
V\u8cda
p867
ssI288
(dp868
g2
I27
sg3
S'297'
p869
sg5
V\u99c9
p870
ssI289
(dp871
g2
I27
sg3
S'298'
p872
sg5
V\u6709\u99dc
p873
ssI290
(dp874
g2
I27
sg3
S'299'
p875
sg5
V\u6cee\u6c34
p876
ssI291
(dp877
g2
I27
sg3
S'300'
p878
sg5
V\u959f\u5bae
p879
ssI292
(dp880
g2
I28
sg3
S'301'
p881
sg5
V\u90a3
p882
ssI293
(dp883
g2
I28
sg3
S'302'
p884
sg5
V\u70c8\u7956
p885
ssI294
(dp886
g2
I28
sg3
S'303'
p887
sg5
V\u7384\u9ce5
p888
ssI295
(dp889
g2
I28
sg3
S'304'
p890
sg5
V\u9577\u767c
p891
ssI296
(dp892
g2
I28
sg3
S'305'
p893
sg5
V\u6bb7\u6b66
p894
ss.