(dp0
I0
(dp1
S'number'
p2
V1
p3
sS'ode'
p4
I0
ssI1
(dp5
g2
V2
p6
sg4
I0
ssI2
(dp7
g2
V3
p8
sg4
I0
ssI3
(dp9
g2
g3
sg4
I1
ssI4
(dp10
g2
g6
sg4
I1
ssI5
(dp11
g2
g8
sg4
I1
ssI6
(dp12
g2
g3
sg4
I1
ssI7
(dp13
g2
g6
sg4
I1
ssI8
(dp14
g2
g8
sg4
I1
ssI9
(dp15
g2
V4
p16
sg4
I1
ssI10
(dp17
g2
g3
sg4
I2
ssI11
(dp18
g2
g6
sg4
I2
ssI12
(dp19
g2
g8
sg4
I2
ssI13
(dp20
g2
g3
sg4
I3
ssI14
(dp21
g2
g6
sg4
I3
ssI15
(dp22
g2
g8
sg4
I3
ssI16
(dp23
g2
g3
sg4
I4
ssI17
(dp24
g2
g6
sg4
I4
ssI18
(dp25
g2
g8
sg4
I4
ssI19
(dp26
g2
g3
sg4
I5
ssI20
(dp27
g2
g6
sg4
I5
ssI21
(dp28
g2
g8
sg4
I5
ssI22
(dp29
g2
g3
sg4
I6
ssI23
(dp30
g2
g6
sg4
I6
ssI24
(dp31
g2
g8
sg4
I6
ssI25
(dp32
g2
g3
sg4
I7
ssI26
(dp33
g2
g6
sg4
I7
ssI27
(dp34
g2
g8
sg4
I7
ssI28
(dp35
g2
g3
sg4
I8
ssI29
(dp36
g2
g6
sg4
I8
ssI30
(dp37
g2
g8
sg4
I8
ssI31
(dp38
g2
g3
sg4
I9
ssI32
(dp39
g2
g6
sg4
I9
ssI33
(dp40
g2
g8
sg4
I9
ssI34
(dp41
g2
g3
sg4
I10
ssI35
(dp42
g2
g6
sg4
I10
ssI36
(dp43
g2
g8
sg4
I10
ssI37
(dp44
g2
g3
sg4
I11
ssI38
(dp45
g2
g6
sg4
I11
ssI39
(dp46
g2
g8
sg4
I11
ssI40
(dp47
g2
g3
sg4
I12
ssI41
(dp48
g2
g6
sg4
I12
ssI42
(dp49
g2
g8
sg4
I12
ssI43
(dp50
g2
g3
sg4
I13
ssI44
(dp51
g2
g6
sg4
I13
ssI45
(dp52
g2
g8
sg4
I13
ssI46
(dp53
g2
g3
sg4
I14
ssI47
(dp54
g2
g6
sg4
I14
ssI48
(dp55
g2
g8
sg4
I14
ssI49
(dp56
g2
g3
sg4
I15
ssI50
(dp57
g2
g6
sg4
I15
ssI51
(dp58
g2
g8
sg4
I15
ssI52
(dp59
g2
g3
sg4
I16
ssI53
(dp60
g2
g6
sg4
I16
ssI54
(dp61
g2
g8
sg4
I16
ssI55
(dp62
g2
g3
sg4
I17
ssI56
(dp63
g2
g6
sg4
I17
ssI57
(dp64
g2
g8
sg4
I17
ssI58
(dp65
g2
g3
sg4
I18
ssI59
(dp66
g2
g6
sg4
I18
ssI60
(dp67
g2
g8
sg4
I18
ssI61
(dp68
g2
g3
sg4
I19
ssI62
(dp69
g2
g6
sg4
I19
ssI63
(dp70
g2
g3
sg4
I20
ssI64
(dp71
g2
g6
sg4
I20
ssI65
(dp72
g2
g8
sg4
I20
ssI66
(dp73
g2
g3
sg4
I21
ssI67
(dp74
g2
g6
sg4
I21
ssI68
(dp75
g2
g8
sg4
I21
ssI69
(dp76
g2
g3
sg4
I22
ssI70
(dp77
g2
g6
sg4
I22
ssI71
(dp78
g2
g8
sg4
I22
ssI72
(dp79
g2
g3
sg4
I23
ssI73
(dp80
g2
g6
sg4
I23
ssI74
(dp81
g2
g3
sg4
I24
ssI75
(dp82
g2
g6
sg4
I24
ssI76
(dp83
g2
g8
sg4
I24
ssI77
(dp84
g2
g16
sg4
I24
ssI78
(dp85
g2
V5
p86
sg4
I24
ssI79
(dp87
g2
g3
sg4
I25
ssI80
(dp88
g2
g6
sg4
I25
ssI81
(dp89
g2
g8
sg4
I25
ssI82
(dp90
g2
g16
sg4
I25
ssI83
(dp91
g2
g3
sg4
I26
ssI84
(dp92
g2
g6
sg4
I26
ssI85
(dp93
g2
g8
sg4
I26
ssI86
(dp94
g2
g16
sg4
I26
ssI87
(dp95
g2
g3
sg4
I27
ssI88
(dp96
g2
g6
sg4
I27
ssI89
(dp97
g2
g8
sg4
I27
ssI90
(dp98
g2
g16
sg4
I27
ssI91
(dp99
g2
g3
sg4
I28
ssI92
(dp100
g2
g6
sg4
I28
ssI93
(dp101
g2
g8
sg4
I28
ssI94
(dp102
g2
g16
sg4
I28
ssI95
(dp103
g2
g3
sg4
I29
ssI96
(dp104
g2
g6
sg4
I29
ssI97
(dp105
g2
g8
sg4
I29
ssI98
(dp106
g2
g16
sg4
I29
ssI99
(dp107
g2
g86
sg4
I29
ssI100
(dp108
g2
g3
sg4
I30
ssI101
(dp109
g2
g6
sg4
I30
ssI102
(dp110
g2
g8
sg4
I30
ssI103
(dp111
g2
g16
sg4
I30
ssI104
(dp112
g2
g3
sg4
I31
ssI105
(dp113
g2
g6
sg4
I31
ssI106
(dp114
g2
g8
sg4
I31
ssI107
(dp115
g2
g16
sg4
I31
ssI108
(dp116
g2
g3
sg4
I31
ssI109
(dp117
g2
g6
sg4
I31
ssI110
(dp118
g2
g8
sg4
I31
ssI111
(dp119
g2
g16
sg4
I31
ssI112
(dp120
g2
g3
sg4
I32
ssI113
(dp121
g2
g6
sg4
I32
ssI114
(dp122
g2
g8
sg4
I32
ssI115
(dp123
g2
g16
sg4
I32
ssI116
(dp124
g2
g86
sg4
I32
ssI117
(dp125
g2
V6
p126
sg4
I32
ssI118
(dp127
g2
g3
sg4
I33
ssI119
(dp128
g2
g6
sg4
I33
ssI120
(dp129
g2
g3
sg4
I34
ssI121
(dp130
g2
g6
sg4
I34
ssI122
(dp131
g2
g8
sg4
I34
ssI123
(dp132
g2
g16
sg4
I34
ssI124
(dp133
g2
g3
sg4
I35
ssI125
(dp134
g2
g3
sg4
I35
ssI126
(dp135
g2
g6
sg4
I35
ssI127
(dp136
g2
g8
sg4
I35
ssI128
(dp137
g2
g3
sg4
I36
ssI129
(dp138
g2
g6
sg4
I36
ssI130
(dp139
g2
g8
sg4
I36
ssI131
(dp140
g2
g16
sg4
I36
ssI132
(dp141
g2
g3
sg4
I37
ssI133
(dp142
g2
g6
sg4
I37
ssI134
(dp143
g2
g8
sg4
I37
ssI135
(dp144
g2
g3
sg4
I38
ssI136
(dp145
g2
g6
sg4
I38
ssI137
(dp146
g2
g8
sg4
I38
ssI138
(dp147
g2
g3
sg4
I39
ssI139
(dp148
g2
g6
sg4
I39
ssI140
(dp149
g2
g8
sg4
I39
ssI141
(dp150
g2
g3
sg4
I40
ssI142
(dp151
g2
g6
sg4
I40
ssI143
(dp152
g2
g8
sg4
I40
ssI144
(dp153
g2
g3
sg4
I41
ssI145
(dp154
g2
g6
sg4
I41
ssI146
(dp155
g2
g3
sg4
I42
ssI147
(dp156
g2
g6
sg4
I42
ssI148
(dp157
g2
g3
sg4
I43
ssI149
(dp158
g2
g6
sg4
I43
ssI150
(dp159
g2
g8
sg4
I43
ssI151
(dp160
g2
g3
sg4
I44
ssI152
(dp161
g2
g6
sg4
I44
ssI153
(dp162
g2
g8
sg4
I44
ssI154
(dp163
g2
g3
sg4
I45
ssI155
(dp164
g2
g6
sg4
I45
ssI156
(dp165
g2
g8
sg4
I45
ssI157
(dp166
g2
g3
sg4
I46
ssI158
(dp167
g2
g6
sg4
I46
ssI159
(dp168
g2
g3
sg4
I47
ssI160
(dp169
g2
g6
sg4
I47
ssI161
(dp170
g2
g8
sg4
I47
ssI162
(dp171
g2
g3
sg4
I48
ssI163
(dp172
g2
g6
sg4
I48
ssI164
(dp173
g2
g8
sg4
I48
ssI165
(dp174
g2
g3
sg4
I48
ssI166
(dp175
g2
g6
sg4
I48
ssI167
(dp176
g2
g8
sg4
I48
ssI168
(dp177
g2
g3
sg4
I49
ssI169
(dp178
g2
g6
sg4
I49
ssI170
(dp179
g2
g8
sg4
I49
ssI171
(dp180
g2
g3
sg4
I50
ssI172
(dp181
g2
g6
sg4
I50
ssI173
(dp182
g2
g8
sg4
I50
ssI174
(dp183
g2
g16
sg4
I50
ssI175
(dp184
g2
g3
sg4
I51
ssI176
(dp185
g2
g6
sg4
I51
ssI177
(dp186
g2
g8
sg4
I51
ssI178
(dp187
g2
g3
sg4
I52
ssI179
(dp188
g2
g6
sg4
I52
ssI180
(dp189
g2
g8
sg4
I52
ssI181
(dp190
g2
g3
sg4
I53
ssI182
(dp191
g2
g6
sg4
I53
ssI183
(dp192
g2
g8
sg4
I53
ssI184
(dp193
g2
g16
sg4
I53
ssI185
(dp194
g2
g3
sg4
I54
ssI186
(dp195
g2
g6
sg4
I54
ssI187
(dp196
g2
g8
sg4
I54
ssI188
(dp197
g2
g16
sg4
I54
ssI189
(dp198
g2
g86
sg4
I54
ssI190
(dp199
g2
g126
sg4
I54
ssI191
(dp200
g2
g3
sg4
I55
ssI192
(dp201
g2
g6
sg4
I55
ssI193
(dp202
g2
g8
sg4
I55
ssI194
(dp203
g2
g16
sg4
I55
ssI195
(dp204
g2
g3
sg4
I56
ssI196
(dp205
g2
g6
sg4
I56
ssI197
(dp206
g2
g3
sg4
I57
ssI198
(dp207
g2
g6
sg4
I57
ssI199
(dp208
g2
g3
sg4
I58
ssI200
(dp209
g2
g6
sg4
I58
ssI201
(dp210
g2
g8
sg4
I58
ssI202
(dp211
g2
g16
sg4
I58
ssI203
(dp212
g2
g3
sg4
I59
ssI204
(dp213
g2
g6
sg4
I59
ssI205
(dp214
g2
g8
sg4
I59
ssI206
(dp215
g2
g3
sg4
I60
ssI207
(dp216
g2
g6
sg4
I60
ssI208
(dp217
g2
g8
sg4
I60
ssI209
(dp218
g2
g3
sg4
I61
ssI210
(dp219
g2
g6
sg4
I61
ssI211
(dp220
g2
g8
sg4
I61
ssI212
(dp221
g2
g3
sg4
I62
ssI213
(dp222
g2
g6
sg4
I62
ssI214
(dp223
g2
g3
sg4
I63
ssI215
(dp224
g2
g6
sg4
I63
ssI216
(dp225
g2
g3
sg4
I64
ssI217
(dp226
g2
g6
sg4
I64
ssI218
(dp227
g2
g8
sg4
I64
ssI219
(dp228
g2
g3
sg4
I65
ssI220
(dp229
g2
g6
sg4
I65
ssI221
(dp230
g2
g8
sg4
I65
ssI222
(dp231
g2
g3
sg4
I66
ssI223
(dp232
g2
g6
sg4
I66
ssI224
(dp233
g2
g8
sg4
I66
ssI225
(dp234
g2
g3
sg4
I67
ssI226
(dp235
g2
g6
sg4
I67
ssI227
(dp236
g2
g8
sg4
I67
ssI228
(dp237
g2
g3
sg4
I68
ssI229
(dp238
g2
g6
sg4
I68
ssI230
(dp239
g2
g8
sg4
I68
ssI231
(dp240
g2
g3
sg4
I69
ssI232
(dp241
g2
g6
sg4
I69
ssI233
(dp242
g2
g8
sg4
I69
ssI234
(dp243
g2
g3
sg4
I70
ssI235
(dp244
g2
g6
sg4
I70
ssI236
(dp245
g2
g8
sg4
I70
ssI237
(dp246
g2
g3
sg4
I71
ssI238
(dp247
g2
g6
sg4
I71
ssI239
(dp248
g2
g8
sg4
I71
ssI240
(dp249
g2
g3
sg4
I72
ssI241
(dp250
g2
g6
sg4
I72
ssI242
(dp251
g2
g8
sg4
I72
ssI243
(dp252
g2
g3
sg4
I73
ssI244
(dp253
g2
g6
sg4
I73
ssI245
(dp254
g2
g8
sg4
I73
ssI246
(dp255
g2
g3
sg4
I74
ssI247
(dp256
g2
g6
sg4
I74
ssI248
(dp257
g2
g8
sg4
I74
ssI249
(dp258
g2
g3
sg4
I75
ssI250
(dp259
g2
g6
sg4
I75
ssI251
(dp260
g2
g8
sg4
I75
ssI252
(dp261
g2
g3
sg4
I76
ssI253
(dp262
g2
g6
sg4
I76
ssI254
(dp263
g2
g3
sg4
I77
ssI255
(dp264
g2
g6
sg4
I77
ssI256
(dp265
g2
g3
sg4
I78
ssI257
(dp266
g2
g6
sg4
I78
ssI258
(dp267
g2
g8
sg4
I78
ssI259
(dp268
g2
g3
sg4
I79
ssI260
(dp269
g2
g6
sg4
I79
ssI261
(dp270
g2
g3
sg4
I80
ssI262
(dp271
g2
g6
sg4
I80
ssI263
(dp272
g2
g3
sg4
I81
ssI264
(dp273
g2
g6
sg4
I81
ssI265
(dp274
g2
g3
sg4
I82
ssI266
(dp275
g2
g6
sg4
I82
ssI267
(dp276
g2
g3
sg4
I83
ssI268
(dp277
g2
g6
sg4
I83
ssI269
(dp278
g2
g3
sg4
I84
ssI270
(dp279
g2
g6
sg4
I84
ssI271
(dp280
g2
g8
sg4
I84
ssI272
(dp281
g2
g16
sg4
I84
ssI273
(dp282
g2
g3
sg4
I85
ssI274
(dp283
g2
g6
sg4
I85
ssI275
(dp284
g2
g3
sg4
I86
ssI276
(dp285
g2
g6
sg4
I86
ssI277
(dp286
g2
g8
sg4
I86
ssI278
(dp287
g2
g3
sg4
I87
ssI279
(dp288
g2
g6
sg4
I87
ssI280
(dp289
g2
g8
sg4
I87
ssI281
(dp290
g2
g3
sg4
I88
ssI282
(dp291
g2
g6
sg4
I88
ssI283
(dp292
g2
g3
sg4
I89
ssI284
(dp293
g2
g6
sg4
I89
ssI285
(dp294
g2
g3
sg4
I90
ssI286
(dp295
g2
g6
sg4
I90
ssI287
(dp296
g2
g3
sg4
I91
ssI288
(dp297
g2
g6
sg4
I91
ssI289
(dp298
g2
g8
sg4
I91
ssI290
(dp299
g2
g3
sg4
I92
ssI291
(dp300
g2
g6
sg4
I92
ssI292
(dp301
g2
g8
sg4
I92
ssI293
(dp302
g2
g3
sg4
I93
ssI294
(dp303
g2
g6
sg4
I93
ssI295
(dp304
g2
g8
sg4
I93
ssI296
(dp305
g2
g3
sg4
I94
ssI297
(dp306
g2
g6
sg4
I94
ssI298
(dp307
g2
g8
sg4
I94
ssI299
(dp308
g2
g3
sg4
I95
ssI300
(dp309
g2
g6
sg4
I95
ssI301
(dp310
g2
g3
sg4
I96
ssI302
(dp311
g2
g6
sg4
I96
ssI303
(dp312
g2
g8
sg4
I96
ssI304
(dp313
g2
g3
sg4
I97
ssI305
(dp314
g2
g6
sg4
I97
ssI306
(dp315
g2
g8
sg4
I97
ssI307
(dp316
g2
g16
sg4
I97
ssI308
(dp317
g2
g3
sg4
I98
ssI309
(dp318
g2
g6
sg4
I98
ssI310
(dp319
g2
g8
sg4
I98
ssI311
(dp320
g2
g3
sg4
I99
ssI312
(dp321
g2
g6
sg4
I99
ssI313
(dp322
g2
g8
sg4
I99
ssI314
(dp323
g2
g3
sg4
I100
ssI315
(dp324
g2
g6
sg4
I100
ssI316
(dp325
g2
g8
sg4
I100
ssI317
(dp326
g2
g3
sg4
I101
ssI318
(dp327
g2
g6
sg4
I101
ssI319
(dp328
g2
g8
sg4
I101
ssI320
(dp329
g2
g16
sg4
I101
ssI321
(dp330
g2
g3
sg4
I102
ssI322
(dp331
g2
g6
sg4
I102
ssI323
(dp332
g2
g8
sg4
I102
ssI324
(dp333
g2
g3
sg4
I103
ssI325
(dp334
g2
g6
sg4
I103
ssI326
(dp335
g2
g3
sg4
I104
ssI327
(dp336
g2
g6
sg4
I104
ssI328
(dp337
g2
g8
sg4
I104
ssI329
(dp338
g2
g3
sg4
I105
ssI330
(dp339
g2
g6
sg4
I105
ssI331
(dp340
g2
g3
sg4
I106
ssI332
(dp341
g2
g6
sg4
I106
ssI333
(dp342
g2
g8
sg4
I106
ssI334
(dp343
g2
g3
sg4
I107
ssI335
(dp344
g2
g6
sg4
I107
ssI336
(dp345
g2
g3
sg4
I108
ssI337
(dp346
g2
g6
sg4
I108
ssI338
(dp347
g2
g8
sg4
I108
ssI339
(dp348
g2
g3
sg4
I109
ssI340
(dp349
g2
g6
sg4
I109
ssI341
(dp350
g2
g8
sg4
I109
ssI342
(dp351
g2
g3
sg4
I110
ssI343
(dp352
g2
g6
sg4
I110
ssI344
(dp353
g2
g8
sg4
I110
ssI345
(dp354
g2
g3
sg4
I111
ssI346
(dp355
g2
g6
sg4
I111
ssI347
(dp356
g2
g8
sg4
I111
ssI348
(dp357
g2
g3
sg4
I112
ssI349
(dp358
g2
g6
sg4
I112
ssI350
(dp359
g2
g8
sg4
I112
ssI351
(dp360
g2
g3
sg4
I113
ssI352
(dp361
g2
g6
sg4
I113
ssI353
(dp362
g2
g3
sg4
I114
ssI354
(dp363
g2
g6
sg4
I114
ssI355
(dp364
g2
g8
sg4
I114
ssI356
(dp365
g2
g3
sg4
I115
ssI357
(dp366
g2
g6
sg4
I115
ssI358
(dp367
g2
g3
sg4
I116
ssI359
(dp368
g2
g6
sg4
I116
ssI360
(dp369
g2
g3
sg4
I117
ssI361
(dp370
g2
g6
sg4
I117
ssI362
(dp371
g2
g8
sg4
I117
ssI363
(dp372
g2
g3
sg4
I118
ssI364
(dp373
g2
g6
sg4
I118
ssI365
(dp374
g2
g3
sg4
I119
ssI366
(dp375
g2
g6
sg4
I119
ssI367
(dp376
g2
g3
sg4
I120
ssI368
(dp377
g2
g6
sg4
I120
ssI369
(dp378
g2
g8
sg4
I120
ssI370
(dp379
g2
g16
sg4
I120
ssI371
(dp380
g2
g86
sg4
I120
ssI372
(dp381
g2
g3
sg4
I121
ssI373
(dp382
g2
g6
sg4
I121
ssI374
(dp383
g2
g8
sg4
I121
ssI375
(dp384
g2
g3
sg4
I122
ssI376
(dp385
g2
g6
sg4
I122
ssI377
(dp386
g2
g8
sg4
I122
ssI378
(dp387
g2
g3
sg4
I123
ssI379
(dp388
g2
g6
sg4
I123
ssI380
(dp389
g2
g8
sg4
I123
ssI381
(dp390
g2
g3
sg4
I124
ssI382
(dp391
g2
g6
sg4
I124
ssI383
(dp392
g2
g8
sg4
I124
ssI384
(dp393
g2
g3
sg4
I125
ssI385
(dp394
g2
g6
sg4
I125
ssI386
(dp395
g2
g8
sg4
I125
ssI387
(dp396
g2
g3
sg4
I126
ssI388
(dp397
g2
g6
sg4
I126
ssI389
(dp398
g2
g3
sg4
I127
ssI390
(dp399
g2
g6
sg4
I127
ssI391
(dp400
g2
g8
sg4
I127
ssI392
(dp401
g2
g3
sg4
I128
ssI393
(dp402
g2
g6
sg4
I128
ssI394
(dp403
g2
g8
sg4
I128
ssI395
(dp404
g2
g3
sg4
I129
ssI396
(dp405
g2
g6
sg4
I129
ssI397
(dp406
g2
g8
sg4
I129
ssI398
(dp407
g2
g3
sg4
I130
ssI399
(dp408
g2
g6
sg4
I130
ssI400
(dp409
g2
g3
sg4
I131
ssI401
(dp410
g2
g6
sg4
I131
ssI402
(dp411
g2
g3
sg4
I132
ssI403
(dp412
g2
g6
sg4
I132
ssI404
(dp413
g2
g8
sg4
I132
ssI405
(dp414
g2
g3
sg4
I133
ssI406
(dp415
g2
g6
sg4
I133
ssI407
(dp416
g2
g8
sg4
I133
ssI408
(dp417
g2
g3
sg4
I134
ssI409
(dp418
g2
g6
sg4
I134
ssI410
(dp419
g2
g8
sg4
I134
ssI411
(dp420
g2
g3
sg4
I135
ssI412
(dp421
g2
g6
sg4
I135
ssI413
(dp422
g2
g8
sg4
I135
ssI414
(dp423
g2
g3
sg4
I136
ssI415
(dp424
g2
g6
sg4
I136
ssI416
(dp425
g2
g3
sg4
I137
ssI417
(dp426
g2
g6
sg4
I137
ssI418
(dp427
g2
g3
sg4
I138
ssI419
(dp428
g2
g6
sg4
I138
ssI420
(dp429
g2
g3
sg4
I139
ssI421
(dp430
g2
g6
sg4
I139
ssI422
(dp431
g2
g8
sg4
I139
ssI423
(dp432
g2
g3
sg4
I140
ssI424
(dp433
g2
g6
sg4
I140
ssI425
(dp434
g2
g3
sg4
I141
ssI426
(dp435
g2
g6
sg4
I141
ssI427
(dp436
g2
g8
sg4
I141
ssI428
(dp437
g2
g3
sg4
I142
ssI429
(dp438
g2
g6
sg4
I142
ssI430
(dp439
g2
g8
sg4
I142
ssI431
(dp440
g2
g3
sg4
I143
ssI432
(dp441
g2
g6
sg4
I143
ssI433
(dp442
g2
g8
sg4
I143
ssI434
(dp443
g2
g3
sg4
I144
ssI435
(dp444
g2
g6
sg4
I144
ssI436
(dp445
g2
g8
sg4
I144
ssI437
(dp446
g2
g3
sg4
I145
ssI438
(dp447
g2
g6
sg4
I145
ssI439
(dp448
g2
g8
sg4
I145
ssI440
(dp449
g2
g3
sg4
I146
ssI441
(dp450
g2
g6
sg4
I146
ssI442
(dp451
g2
g8
sg4
I146
ssI443
(dp452
g2
g3
sg4
I147
ssI444
(dp453
g2
g6
sg4
I147
ssI445
(dp454
g2
g8
sg4
I147
ssI446
(dp455
g2
g16
sg4
I147
ssI447
(dp456
g2
g3
sg4
I148
ssI448
(dp457
g2
g6
sg4
I148
ssI449
(dp458
g2
g8
sg4
I148
ssI450
(dp459
g2
g16
sg4
I148
ssI451
(dp460
g2
g3
sg4
I149
ssI452
(dp461
g2
g6
sg4
I149
ssI453
(dp462
g2
g8
sg4
I149
ssI454
(dp463
g2
g16
sg4
I149
ssI455
(dp464
g2
g3
sg4
I150
ssI456
(dp465
g2
g6
sg4
I150
ssI457
(dp466
g2
g8
sg4
I150
ssI458
(dp467
g2
g16
sg4
I150
ssI459
(dp468
g2
g86
sg4
I150
ssI460
(dp469
g2
g126
sg4
I150
ssI461
(dp470
g2
V7
p471
sg4
I150
ssI462
(dp472
g2
V8
p473
sg4
I150
ssI463
(dp474
g2
V9
p475
sg4
I150
ssI464
(dp476
g2
g3
sg4
I151
ssI465
(dp477
g2
g6
sg4
I151
ssI466
(dp478
g2
g8
sg4
I151
ssI467
(dp479
g2
g16
sg4
I151
ssI468
(dp480
g2
g3
sg4
I152
ssI469
(dp481
g2
g6
sg4
I152
ssI470
(dp482
g2
g8
sg4
I152
ssI471
(dp483
g2
g16
sg4
I152
ssI472
(dp484
g2
g3
sg4
I153
ssI473
(dp485
g2
g6
sg4
I153
ssI474
(dp486
g2
g8
sg4
I153
ssI475
(dp487
g2
g3
sg4
I154
ssI476
(dp488
g2
g6
sg4
I154
ssI477
(dp489
g2
g3
sg4
I155
ssI478
(dp490
g2
g6
sg4
I155
ssI479
(dp491
g2
g8
sg4
I155
ssI480
(dp492
g2
g16
sg4
I155
ssI481
(dp493
g2
g3
sg4
I156
ssI482
(dp494
g2
g6
sg4
I156
ssI483
(dp495
g2
g3
sg4
I157
ssI484
(dp496
g2
g6
sg4
I157
ssI485
(dp497
g2
g8
sg4
I157
ssI486
(dp498
g2
g3
sg4
I158
ssI487
(dp499
g2
g6
sg4
I158
ssI488
(dp500
g2
g8
sg4
I158
ssI489
(dp501
g2
g16
sg4
I158
ssI490
(dp502
g2
g86
sg4
I158
ssI491
(dp503
g2
g3
sg4
I159
ssI492
(dp504
g2
g6
sg4
I159
ssI493
(dp505
g2
g8
sg4
I159
ssI494
(dp506
g2
g16
sg4
I159
ssI495
(dp507
g2
g86
sg4
I159
ssI496
(dp508
g2
g3
sg4
I160
ssI497
(dp509
g2
g6
sg4
I160
ssI498
(dp510
g2
g8
sg4
I160
ssI499
(dp511
g2
g16
sg4
I160
ssI500
(dp512
g2
g86
sg4
I160
ssI501
(dp513
g2
g126
sg4
I160
ssI502
(dp514
g2
g471
sg4
I160
ssI503
(dp515
g2
g473
sg4
I160
ssI504
(dp516
g2
g3
sg4
I161
ssI505
(dp517
g2
g6
sg4
I161
ssI506
(dp518
g2
g8
sg4
I161
ssI507
(dp519
g2
g3
sg4
I162
ssI508
(dp520
g2
g6
sg4
I162
ssI509
(dp521
g2
g8
sg4
I162
ssI510
(dp522
g2
g16
sg4
I162
ssI511
(dp523
g2
g86
sg4
I162
ssI512
(dp524
g2
g126
sg4
I162
ssI513
(dp525
g2
g3
sg4
I163
ssI514
(dp526
g2
g6
sg4
I163
ssI515
(dp527
g2
g8
sg4
I163
ssI516
(dp528
g2
g16
sg4
I163
ssI517
(dp529
g2
g86
sg4
I163
ssI518
(dp530
g2
g126
sg4
I163
ssI519
(dp531
g2
g3
sg4
I164
ssI520
(dp532
g2
g6
sg4
I164
ssI521
(dp533
g2
g8
sg4
I164
ssI522
(dp534
g2
g16
sg4
I164
ssI523
(dp535
g2
g86
sg4
I164
ssI524
(dp536
g2
g126
sg4
I164
ssI525
(dp537
g2
g3
sg4
I165
ssI526
(dp538
g2
g6
sg4
I165
ssI527
(dp539
g2
g8
sg4
I165
ssI528
(dp540
g2
g16
sg4
I165
ssI529
(dp541
g2
g3
sg4
I167
ssI530
(dp542
g2
g6
sg4
I167
ssI531
(dp543
g2
g8
sg4
I167
ssI532
(dp544
g2
g8
sg4
I167
ssI533
(dp545
g2
g8
sg4
I167
ssI534
(dp546
g2
g8
sg4
I167
ssI535
(dp547
g2
g16
sg4
I167
ssI536
(dp548
g2
g86
sg4
I167
ssI537
(dp549
g2
g126
sg4
I167
ssI538
(dp550
g2
g3
sg4
I168
ssI539
(dp551
g2
g6
sg4
I168
ssI540
(dp552
g2
g8
sg4
I168
ssI541
(dp553
g2
g16
sg4
I168
ssI542
(dp554
g2
g3
sg4
I169
ssI543
(dp555
g2
g6
sg4
I169
ssI544
(dp556
g2
g8
sg4
I169
ssI545
(dp557
g2
g16
sg4
I169
ssI546
(dp558
g2
g86
sg4
I169
ssI547
(dp559
g2
g3
sg4
I170
ssI548
(dp560
g2
g6
sg4
I170
ssI549
(dp561
g2
g8
sg4
I170
ssI550
(dp562
g2
g16
sg4
I170
ssI551
(dp563
g2
g3
sg4
I171
ssI552
(dp564
g2
g6
sg4
I171
ssI553
(dp565
g2
g8
sg4
I171
ssI554
(dp566
g2
g16
sg4
I171
ssI555
(dp567
g2
g3
sg4
I172
ssI556
(dp568
g2
g6
sg4
I172
ssI557
(dp569
g2
g8
sg4
I172
ssI558
(dp570
g2
g3
sg4
I173
ssI559
(dp571
g2
g6
sg4
I173
ssI560
(dp572
g2
g8
sg4
I173
ssI561
(dp573
g2
g16
sg4
I173
ssI562
(dp574
g2
g3
sg4
I174
ssI563
(dp575
g2
g6
sg4
I174
ssI564
(dp576
g2
g8
sg4
I174
ssI565
(dp577
g2
g16
sg4
I174
ssI566
(dp578
g2
g86
sg4
I174
ssI567
(dp579
g2
g126
sg4
I174
ssI568
(dp580
g2
g3
sg4
I175
ssI569
(dp581
g2
g6
sg4
I175
ssI570
(dp582
g2
g8
sg4
I175
ssI571
(dp583
g2
g16
sg4
I175
ssI572
(dp584
g2
g3
sg4
I176
ssI573
(dp585
g2
g6
sg4
I176
ssI574
(dp586
g2
g8
sg4
I176
ssI575
(dp587
g2
g16
sg4
I176
ssI576
(dp588
g2
g86
sg4
I176
ssI577
(dp589
g2
g126
sg4
I176
ssI578
(dp590
g2
g471
sg4
I176
ssI579
(dp591
g2
g473
sg4
I176
ssI580
(dp592
g2
g3
sg4
I177
ssI581
(dp593
g2
g6
sg4
I177
ssI582
(dp594
g2
g8
sg4
I177
ssI583
(dp595
g2
g16
sg4
I177
ssI584
(dp596
g2
g3
sg4
I178
ssI585
(dp597
g2
g6
sg4
I178
ssI586
(dp598
g2
g8
sg4
I178
ssI587
(dp599
g2
g3
sg4
I179
ssI588
(dp600
g2
g6
sg4
I179
ssI589
(dp601
g2
g8
sg4
I179
ssI590
(dp602
g2
g3
sg4
I180
ssI591
(dp603
g2
g6
sg4
I180
ssI592
(dp604
g2
g8
sg4
I180
ssI593
(dp605
g2
g3
sg4
I181
ssI594
(dp606
g2
g6
sg4
I181
ssI595
(dp607
g2
g3
sg4
I182
ssI596
(dp608
g2
g6
sg4
I182
ssI597
(dp609
g2
g8
sg4
I182
ssI598
(dp610
g2
g3
sg4
I183
ssI599
(dp611
g2
g6
sg4
I183
ssI600
(dp612
g2
g8
sg4
I183
ssI601
(dp613
g2
g16
sg4
I183
ssI602
(dp614
g2
g3
sg4
I184
ssI603
(dp615
g2
g6
sg4
I184
ssI604
(dp616
g2
g8
sg4
I184
ssI605
(dp617
g2
g3
sg4
I185
ssI606
(dp618
g2
g6
sg4
I185
ssI607
(dp619
g2
g8
sg4
I185
ssI608
(dp620
g2
g3
sg4
I186
ssI609
(dp621
g2
g6
sg4
I186
ssI610
(dp622
g2
g8
sg4
I186
ssI611
(dp623
g2
g16
sg4
I186
ssI612
(dp624
g2
g86
sg4
I186
ssI613
(dp625
g2
g126
sg4
I186
ssI614
(dp626
g2
g471
sg4
I186
ssI615
(dp627
g2
g473
sg4
I186
ssI616
(dp628
g2
g475
sg4
I186
ssI617
(dp629
g2
g3
sg4
I187
ssI618
(dp630
g2
g6
sg4
I187
ssI619
(dp631
g2
g8
sg4
I187
ssI620
(dp632
g2
g16
sg4
I187
ssI621
(dp633
g2
g3
sg4
I188
ssI622
(dp634
g2
g6
sg4
I188
ssI623
(dp635
g2
g8
sg4
I188
ssI624
(dp636
g2
g16
sg4
I188
ssI625
(dp637
g2
g86
sg4
I188
ssI626
(dp638
g2
g126
sg4
I188
ssI627
(dp639
g2
g471
sg4
I188
ssI628
(dp640
g2
g473
sg4
I188
ssI629
(dp641
g2
g475
sg4
I188
ssI630
(dp642
g2
V10
p643
sg4
I188
ssI631
(dp644
g2
g3
sg4
I189
ssI632
(dp645
g2
g6
sg4
I189
ssI633
(dp646
g2
g8
sg4
I189
ssI634
(dp647
g2
g16
sg4
I189
ssI635
(dp648
g2
g86
sg4
I189
ssI636
(dp649
g2
g126
sg4
I189
ssI637
(dp650
g2
g471
sg4
I189
ssI638
(dp651
g2
g473
sg4
I189
ssI639
(dp652
g2
g475
sg4
I189
ssI640
(dp653
g2
V10
p654
sg4
I189
ssI641
(dp655
g2
V11
p656
sg4
I189
ssI642
(dp657
g2
V12
p658
sg4
I189
ssI643
(dp659
g2
V13
p660
sg4
I189
ssI644
(dp661
g2
g3
sg4
I190
ssI645
(dp662
g2
g6
sg4
I190
ssI646
(dp663
g2
g8
sg4
I190
ssI647
(dp664
g2
g16
sg4
I190
ssI648
(dp665
g2
g86
sg4
I190
ssI649
(dp666
g2
g126
sg4
I190
ssI650
(dp667
g2
g471
sg4
I190
ssI651
(dp668
g2
g473
sg4
I190
ssI652
(dp669
g2
g3
sg4
I191
ssI653
(dp670
g2
g6
sg4
I191
ssI654
(dp671
g2
g8
sg4
I191
ssI655
(dp672
g2
g16
sg4
I191
ssI656
(dp673
g2
g86
sg4
I191
ssI657
(dp674
g2
g126
sg4
I191
ssI658
(dp675
g2
g471
sg4
I191
ssI659
(dp676
g2
g3
sg4
I192
ssI660
(dp677
g2
g6
sg4
I192
ssI661
(dp678
g2
g8
sg4
I192
ssI662
(dp679
g2
g16
sg4
I192
ssI663
(dp680
g2
g86
sg4
I192
ssI664
(dp681
g2
g126
sg4
I192
ssI665
(dp682
g2
g3
sg4
I193
ssI666
(dp683
g2
g6
sg4
I193
ssI667
(dp684
g2
g8
sg4
I193
ssI668
(dp685
g2
g16
sg4
I193
ssI669
(dp686
g2
g86
sg4
I193
ssI670
(dp687
g2
g126
sg4
I193
ssI671
(dp688
g2
g3
sg4
I194
ssI672
(dp689
g2
g6
sg4
I194
ssI673
(dp690
g2
g8
sg4
I194
ssI674
(dp691
g2
g16
sg4
I194
ssI675
(dp692
g2
g86
sg4
I194
ssI676
(dp693
g2
g126
sg4
I194
ssI677
(dp694
g2
g471
sg4
I194
ssI678
(dp695
g2
g473
sg4
I194
ssI679
(dp696
g2
g3
sg4
I195
ssI680
(dp697
g2
g6
sg4
I195
ssI681
(dp698
g2
g8
sg4
I195
ssI682
(dp699
g2
g16
sg4
I195
ssI683
(dp700
g2
g86
sg4
I195
ssI684
(dp701
g2
g126
sg4
I195
ssI685
(dp702
g2
g3
sg4
I196
ssI686
(dp703
g2
g6
sg4
I196
ssI687
(dp704
g2
g8
sg4
I196
ssI688
(dp705
g2
g16
sg4
I196
ssI689
(dp706
g2
g86
sg4
I196
ssI690
(dp707
g2
g126
sg4
I196
ssI691
(dp708
g2
g471
sg4
I196
ssI692
(dp709
g2
g473
sg4
I196
ssI693
(dp710
g2
g3
sg4
I197
ssI694
(dp711
g2
g6
sg4
I197
ssI695
(dp712
g2
g8
sg4
I197
ssI696
(dp713
g2
g16
sg4
I197
ssI697
(dp714
g2
g86
sg4
I197
ssI698
(dp715
g2
g126
sg4
I197
ssI699
(dp716
g2
g471
sg4
I197
ssI700
(dp717
g2
g3
sg4
I198
ssI701
(dp718
g2
g6
sg4
I198
ssI702
(dp719
g2
g8
sg4
I198
ssI703
(dp720
g2
g3
sg4
I199
ssI704
(dp721
g2
g6
sg4
I199
ssI705
(dp722
g2
g8
sg4
I199
ssI706
(dp723
g2
g16
sg4
I199
ssI707
(dp724
g2
g86
sg4
I199
ssI708
(dp725
g2
g126
sg4
I199
ssI709
(dp726
g2
g3
sg4
I200
ssI710
(dp727
g2
g6
sg4
I200
ssI711
(dp728
g2
g8
sg4
I200
ssI712
(dp729
g2
g16
sg4
I200
ssI713
(dp730
g2
g86
sg4
I200
ssI714
(dp731
g2
g126
sg4
I200
ssI715
(dp732
g2
g471
sg4
I200
ssI716
(dp733
g2
g3
sg4
I201
ssI717
(dp734
g2
g6
sg4
I201
ssI718
(dp735
g2
g8
sg4
I201
ssI719
(dp736
g2
g16
sg4
I201
ssI720
(dp737
g2
g86
sg4
I201
ssI721
(dp738
g2
g126
sg4
I201
ssI722
(dp739
g2
g471
sg4
I201
ssI723
(dp740
g2
g473
sg4
I201
ssI724
(dp741
g2
g3
sg4
I202
ssI725
(dp742
g2
g6
sg4
I202
ssI726
(dp743
g2
g8
sg4
I202
ssI727
(dp744
g2
g16
sg4
I202
ssI728
(dp745
g2
g86
sg4
I202
ssI729
(dp746
g2
g126
sg4
I202
ssI730
(dp747
g2
g3
sg4
I203
ssI731
(dp748
g2
g6
sg4
I203
ssI732
(dp749
g2
g8
sg4
I203
ssI733
(dp750
g2
g3
sg4
I204
ssI734
(dp751
g2
g6
sg4
I204
ssI735
(dp752
g2
g8
sg4
I204
ssI736
(dp753
g2
g16
sg4
I204
ssI737
(dp754
g2
g86
sg4
I204
ssI738
(dp755
g2
g3
sg4
I205
ssI739
(dp756
g2
g6
sg4
I205
ssI740
(dp757
g2
g8
sg4
I205
ssI741
(dp758
g2
g16
sg4
I205
ssI742
(dp759
g2
g3
sg4
I206
ssI743
(dp760
g2
g6
sg4
I206
ssI744
(dp761
g2
g8
sg4
I206
ssI745
(dp762
g2
g16
sg4
I206
ssI746
(dp763
g2
g86
sg4
I206
ssI747
(dp764
g2
g126
sg4
I206
ssI748
(dp765
g2
g3
sg4
I207
ssI749
(dp766
g2
g6
sg4
I207
ssI750
(dp767
g2
g8
sg4
I207
ssI751
(dp768
g2
g16
sg4
I207
ssI752
(dp769
g2
g86
sg4
I207
ssI753
(dp770
g2
g126
sg4
I207
ssI754
(dp771
g2
g3
sg4
I208
ssI755
(dp772
g2
g6
sg4
I208
ssI756
(dp773
g2
g8
sg4
I208
ssI757
(dp774
g2
g16
sg4
I208
ssI758
(dp775
g2
g3
sg4
I209
ssI759
(dp776
g2
g6
sg4
I209
ssI760
(dp777
g2
g8
sg4
I209
ssI761
(dp778
g2
g16
sg4
I209
ssI762
(dp779
g2
g3
sg4
I209
ssI763
(dp780
g2
g6
sg4
I209
ssI764
(dp781
g2
g8
sg4
I209
ssI765
(dp782
g2
g3
sg4
I210
ssI766
(dp783
g2
g6
sg4
I210
ssI767
(dp784
g2
g8
sg4
I210
ssI768
(dp785
g2
g16
sg4
I210
ssI769
(dp786
g2
g3
sg4
I211
ssI770
(dp787
g2
g6
sg4
I211
ssI771
(dp788
g2
g8
sg4
I211
ssI772
(dp789
g2
g16
sg4
I211
ssI773
(dp790
g2
g3
sg4
I212
ssI774
(dp791
g2
g6
sg4
I212
ssI775
(dp792
g2
g8
sg4
I212
ssI776
(dp793
g2
g16
sg4
I212
ssI777
(dp794
g2
g3
sg4
I213
ssI778
(dp795
g2
g6
sg4
I213
ssI779
(dp796
g2
g8
sg4
I213
ssI780
(dp797
g2
g3
sg4
I213
ssI781
(dp798
g2
g6
sg4
I213
ssI782
(dp799
g2
g8
sg4
I213
ssI783
(dp800
g2
g16
sg4
I213
ssI784
(dp801
g2
g86
sg4
I213
ssI785
(dp802
g2
g3
sg4
I214
ssI786
(dp803
g2
g6
sg4
I214
ssI787
(dp804
g2
g8
sg4
I214
ssI788
(dp805
g2
g3
sg4
I215
ssI789
(dp806
g2
g6
sg4
I215
ssI790
(dp807
g2
g8
sg4
I215
ssI791
(dp808
g2
g16
sg4
I215
ssI792
(dp809
g2
g86
sg4
I215
ssI793
(dp810
g2
g3
sg4
I216
ssI794
(dp811
g2
g6
sg4
I216
ssI795
(dp812
g2
g8
sg4
I216
ssI796
(dp813
g2
g3
sg4
I217
ssI797
(dp814
g2
g6
sg4
I217
ssI798
(dp815
g2
g8
sg4
I217
ssI799
(dp816
g2
g16
sg4
I217
ssI800
(dp817
g2
g86
sg4
I217
ssI801
(dp818
g2
g3
sg4
I218
ssI802
(dp819
g2
g6
sg4
I218
ssI803
(dp820
g2
g8
sg4
I218
ssI804
(dp821
g2
g16
sg4
I218
ssI805
(dp822
g2
g86
sg4
I218
ssI806
(dp823
g2
g126
sg4
I218
ssI807
(dp824
g2
g471
sg4
I218
ssI808
(dp825
g2
g473
sg4
I218
ssI809
(dp826
g2
g3
sg4
I219
ssI810
(dp827
g2
g6
sg4
I219
ssI811
(dp828
g2
g8
sg4
I219
ssI812
(dp829
g2
g3
sg4
I220
ssI813
(dp830
g2
g6
sg4
I220
ssI814
(dp831
g2
g8
sg4
I220
ssI815
(dp832
g2
g16
sg4
I220
ssI816
(dp833
g2
g16
sg4
I220
ssI817
(dp834
g2
g16
sg4
I220
ssI818
(dp835
g2
g86
sg4
I220
ssI819
(dp836
g2
g3
sg4
I221
ssI820
(dp837
g2
g6
sg4
I221
ssI821
(dp838
g2
g8
sg4
I221
ssI822
(dp839
g2
g16
sg4
I221
ssI823
(dp840
g2
g3
sg4
I222
ssI824
(dp841
g2
g6
sg4
I222
ssI825
(dp842
g2
g8
sg4
I222
ssI826
(dp843
g2
g16
sg4
I222
ssI827
(dp844
g2
g86
sg4
I222
ssI828
(dp845
g2
g3
sg4
I223
ssI829
(dp846
g2
g6
sg4
I223
ssI830
(dp847
g2
g8
sg4
I223
ssI831
(dp848
g2
g16
sg4
I223
ssI832
(dp849
g2
g3
sg4
I224
ssI833
(dp850
g2
g6
sg4
I224
ssI834
(dp851
g2
g8
sg4
I224
ssI835
(dp852
g2
g16
sg4
I224
ssI836
(dp853
g2
g86
sg4
I224
ssI837
(dp854
g2
g126
sg4
I224
ssI838
(dp855
g2
g471
sg4
I224
ssI839
(dp856
g2
g473
sg4
I224
ssI840
(dp857
g2
g3
sg4
I225
ssI841
(dp858
g2
g6
sg4
I225
ssI842
(dp859
g2
g8
sg4
I225
ssI843
(dp860
g2
g3
sg4
I226
ssI844
(dp861
g2
g6
sg4
I226
ssI845
(dp862
g2
g8
sg4
I226
ssI846
(dp863
g2
g16
sg4
I226
ssI847
(dp864
g2
g3
sg4
I227
ssI848
(dp865
g2
g6
sg4
I227
ssI849
(dp866
g2
g8
sg4
I227
ssI850
(dp867
g2
g3
sg4
I228
ssI851
(dp868
g2
g3
sg4
I228
ssI852
(dp869
g2
g6
sg4
I228
ssI853
(dp870
g2
g8
sg4
I228
ssI854
(dp871
g2
g3
sg4
I229
ssI855
(dp872
g2
g6
sg4
I229
ssI856
(dp873
g2
g8
sg4
I229
ssI857
(dp874
g2
g16
sg4
I229
ssI858
(dp875
g2
g3
sg4
I230
ssI859
(dp876
g2
g6
sg4
I230
ssI860
(dp877
g2
g8
sg4
I230
ssI861
(dp878
g2
g16
sg4
I230
ssI862
(dp879
g2
g86
sg4
I230
ssI863
(dp880
g2
g126
sg4
I230
ssI864
(dp881
g2
g471
sg4
I230
ssI865
(dp882
g2
g3
sg4
I231
ssI866
(dp883
g2
g6
sg4
I231
ssI867
(dp884
g2
g8
sg4
I231
ssI868
(dp885
g2
g16
sg4
I231
ssI869
(dp886
g2
g86
sg4
I231
ssI870
(dp887
g2
g126
sg4
I231
ssI871
(dp888
g2
g471
sg4
I231
ssI872
(dp889
g2
g473
sg4
I231
ssI873
(dp890
g2
g3
sg4
I231
ssI874
(dp891
g2
g6
sg4
I231
ssI875
(dp892
g2
g8
sg4
I231
ssI876
(dp893
g2
g16
sg4
I231
ssI877
(dp894
g2
g86
sg4
I231
ssI878
(dp895
g2
g126
sg4
I231
ssI879
(dp896
g2
g471
sg4
I231
ssI880
(dp897
g2
g473
sg4
I231
ssI881
(dp898
g2
g475
sg4
I231
ssI882
(dp899
g2
g3
sg4
I232
ssI883
(dp900
g2
g6
sg4
I232
ssI884
(dp901
g2
g8
sg4
I232
ssI885
(dp902
g2
g16
sg4
I232
ssI886
(dp903
g2
g86
sg4
I232
ssI887
(dp904
g2
g3
sg4
I233
ssI888
(dp905
g2
g6
sg4
I233
ssI889
(dp906
g2
g8
sg4
I233
ssI890
(dp907
g2
g16
sg4
I233
ssI891
(dp908
g2
g86
sg4
I233
ssI892
(dp909
g2
g126
sg4
I233
ssI893
(dp910
g2
g3
sg4
I234
ssI894
(dp911
g2
g6
sg4
I234
ssI895
(dp912
g2
g8
sg4
I234
ssI896
(dp913
g2
g16
sg4
I234
ssI897
(dp914
g2
g86
sg4
I234
ssI898
(dp915
g2
g3
sg4
I235
ssI899
(dp916
g2
g6
sg4
I235
ssI900
(dp917
g2
g8
sg4
I235
ssI901
(dp918
g2
g16
sg4
I235
ssI902
(dp919
g2
g86
sg4
I235
ssI903
(dp920
g2
g126
sg4
I235
ssI904
(dp921
g2
g471
sg4
I235
ssI905
(dp922
g2
g473
sg4
I235
ssI906
(dp923
g2
g3
sg4
I236
ssI907
(dp924
g2
g6
sg4
I236
ssI908
(dp925
g2
g8
sg4
I236
ssI909
(dp926
g2
g16
sg4
I236
ssI910
(dp927
g2
g3
sg4
I237
ssI911
(dp928
g2
g6
sg4
I237
ssI912
(dp929
g2
g8
sg4
I237
ssI913
(dp930
g2
g16
sg4
I237
ssI914
(dp931
g2
g86
sg4
I237
ssI915
(dp932
g2
g126
sg4
I237
ssI916
(dp933
g2
g3
sg4
I238
ssI917
(dp934
g2
g6
sg4
I238
ssI918
(dp935
g2
g8
sg4
I238
ssI919
(dp936
g2
g16
sg4
I238
ssI920
(dp937
g2
g86
sg4
I238
ssI921
(dp938
g2
g126
sg4
I238
ssI922
(dp939
g2
g471
sg4
I238
ssI923
(dp940
g2
g473
sg4
I238
ssI924
(dp941
g2
g3
sg4
I239
ssI925
(dp942
g2
g6
sg4
I239
ssI926
(dp943
g2
g8
sg4
I239
ssI927
(dp944
g2
g16
sg4
I239
ssI928
(dp945
g2
g86
sg4
I239
ssI929
(dp946
g2
g126
sg4
I239
ssI930
(dp947
g2
g471
sg4
I239
ssI931
(dp948
g2
g473
sg4
I239
ssI932
(dp949
g2
g3
sg4
I240
ssI933
(dp950
g2
g6
sg4
I240
ssI934
(dp951
g2
g8
sg4
I240
ssI935
(dp952
g2
g16
sg4
I240
ssI936
(dp953
g2
g3
sg4
I241
ssI937
(dp954
g2
g6
sg4
I241
ssI938
(dp955
g2
g8
sg4
I241
ssI939
(dp956
g2
g16
sg4
I241
ssI940
(dp957
g2
g86
sg4
I241
ssI941
(dp958
g2
g126
sg4
I241
ssI942
(dp959
g2
g471
sg4
I241
ssI943
(dp960
g2
g473
sg4
I241
ssI944
(dp961
g2
g3
sg4
I242
ssI945
(dp962
g2
g6
sg4
I242
ssI946
(dp963
g2
g8
sg4
I242
ssI947
(dp964
g2
g16
sg4
I242
ssI948
(dp965
g2
g86
sg4
I242
ssI949
(dp966
g2
g3
sg4
I243
ssI950
(dp967
g2
g6
sg4
I243
ssI951
(dp968
g2
g8
sg4
I243
ssI952
(dp969
g2
g16
sg4
I243
ssI953
(dp970
g2
g3
sg4
I244
ssI954
(dp971
g2
g6
sg4
I244
ssI955
(dp972
g2
g8
sg4
I244
ssI956
(dp973
g2
g16
sg4
I244
ssI957
(dp974
g2
g86
sg4
I244
ssI958
(dp975
g2
g126
sg4
I244
ssI959
(dp976
g2
g3
sg4
I245
ssI960
(dp977
g2
g6
sg4
I245
ssI961
(dp978
g2
g8
sg4
I245
ssI962
(dp979
g2
g3
sg4
I246
ssI963
(dp980
g2
g6
sg4
I246
ssI964
(dp981
g2
g8
sg4
I246
ssI965
(dp982
g2
g16
sg4
I246
ssI966
(dp983
g2
g86
sg4
I246
ssI967
(dp984
g2
g126
sg4
I246
ssI968
(dp985
g2
g471
sg4
I246
ssI969
(dp986
g2
g473
sg4
I246
ssI970
(dp987
g2
g475
sg4
I246
ssI971
(dp988
g2
V10
p989
sg4
I246
ssI972
(dp990
g2
g3
sg4
I247
ssI973
(dp991
g2
g6
sg4
I247
ssI974
(dp992
g2
g8
sg4
I247
ssI975
(dp993
g2
g16
sg4
I247
ssI976
(dp994
g2
g86
sg4
I247
ssI977
(dp995
g2
g3
sg4
I248
ssI978
(dp996
g2
g6
sg4
I248
ssI979
(dp997
g2
g8
sg4
I248
ssI980
(dp998
g2
g16
sg4
I248
ssI981
(dp999
g2
g86
sg4
I248
ssI982
(dp1000
g2
g126
sg4
I248
ssI983
(dp1001
g2
g471
sg4
I248
ssI984
(dp1002
g2
g473
sg4
I248
ssI985
(dp1003
g2
g3
sg4
I249
ssI986
(dp1004
g2
g6
sg4
I249
ssI987
(dp1005
g2
g8
sg4
I249
ssI988
(dp1006
g2
g16
sg4
I249
ssI989
(dp1007
g2
g86
sg4
I249
ssI990
(dp1008
g2
g126
sg4
I249
ssI991
(dp1009
g2
g471
sg4
I249
ssI992
(dp1010
g2
g473
sg4
I249
ssI993
(dp1011
g2
g3
sg4
I250
ssI994
(dp1012
g2
g6
sg4
I250
ssI995
(dp1013
g2
g8
sg4
I250
ssI996
(dp1014
g2
g16
sg4
I250
ssI997
(dp1015
g2
g86
sg4
I250
ssI998
(dp1016
g2
g126
sg4
I250
ssI999
(dp1017
g2
g471
sg4
I250
ssI1000
(dp1018
g2
g473
sg4
I250
ssI1001
(dp1019
g2
g475
sg4
I250
ssI1002
(dp1020
g2
V10
p1021
sg4
I250
ssI1003
(dp1022
g2
V11
p1023
sg4
I250
ssI1004
(dp1024
g2
V12
p1025
sg4
I250
ssI1005
(dp1026
g2
g3
sg4
I251
ssI1006
(dp1027
g2
g6
sg4
I251
ssI1007
(dp1028
g2
g8
sg4
I251
ssI1008
(dp1029
g2
g16
sg4
I251
ssI1009
(dp1030
g2
g86
sg4
I251
ssI1010
(dp1031
g2
g126
sg4
I251
ssI1011
(dp1032
g2
g471
sg4
I251
ssI1012
(dp1033
g2
g473
sg4
I251
ssI1013
(dp1034
g2
g475
sg4
I251
ssI1014
(dp1035
g2
V10
p1036
sg4
I251
ssI1015
(dp1037
g2
V11
p1038
sg4
I251
ssI1016
(dp1039
g2
V12
p1040
sg4
I251
ssI1017
(dp1041
g2
V13
p1042
sg4
I251
ssI1018
(dp1043
g2
V14
p1044
sg4
I251
ssI1019
(dp1045
g2
V15
p1046
sg4
I251
ssI1020
(dp1047
g2
V16
p1048
sg4
I251
ssI1021
(dp1049
g2
g3
sg4
I252
ssI1022
(dp1050
g2
g6
sg4
I252
ssI1023
(dp1051
g2
g8
sg4
I252
ssI1024
(dp1052
g2
g16
sg4
I252
ssI1025
(dp1053
g2
g86
sg4
I252
ssI1026
(dp1054
g2
g126
sg4
I252
ssI1027
(dp1055
g2
g471
sg4
I252
ssI1028
(dp1056
g2
g473
sg4
I252
ssI1029
(dp1057
g2
g3
sg4
I253
ssI1030
(dp1058
g2
g6
sg4
I253
ssI1031
(dp1059
g2
g8
sg4
I253
ssI1032
(dp1060
g2
g16
sg4
I253
ssI1033
(dp1061
g2
g86
sg4
I253
ssI1034
(dp1062
g2
g126
sg4
I253
ssI1035
(dp1063
g2
g471
sg4
I253
ssI1036
(dp1064
g2
g473
sg4
I253
ssI1037
(dp1065
g2
g3
sg4
I254
ssI1038
(dp1066
g2
g6
sg4
I254
ssI1039
(dp1067
g2
g8
sg4
I254
ssI1040
(dp1068
g2
g16
sg4
I254
ssI1041
(dp1069
g2
g86
sg4
I254
ssI1042
(dp1070
g2
g126
sg4
I254
ssI1043
(dp1071
g2
g471
sg4
I254
ssI1044
(dp1072
g2
g473
sg4
I254
ssI1045
(dp1073
g2
g3
sg4
I255
ssI1046
(dp1074
g2
g6
sg4
I255
ssI1047
(dp1075
g2
g8
sg4
I255
ssI1048
(dp1076
g2
g16
sg4
I255
ssI1049
(dp1077
g2
g86
sg4
I255
ssI1050
(dp1078
g2
g126
sg4
I255
ssI1051
(dp1079
g2
g3
sg4
I256
ssI1052
(dp1080
g2
g6
sg4
I256
ssI1053
(dp1081
g2
g8
sg4
I256
ssI1054
(dp1082
g2
g16
sg4
I256
ssI1055
(dp1083
g2
g86
sg4
I256
ssI1056
(dp1084
g2
g126
sg4
I256
ssI1057
(dp1085
g2
g3
sg4
I257
ssI1058
(dp1086
g2
g6
sg4
I257
ssI1059
(dp1087
g2
g8
sg4
I257
ssI1060
(dp1088
g2
g16
sg4
I257
ssI1061
(dp1089
g2
g86
sg4
I257
ssI1062
(dp1090
g2
g126
sg4
I257
ssI1063
(dp1091
g2
g3
sg4
I258
ssI1064
(dp1092
g2
g6
sg4
I258
ssI1065
(dp1093
g2
g8
sg4
I258
ssI1066
(dp1094
g2
g16
sg4
I258
ssI1067
(dp1095
g2
g86
sg4
I258
ssI1068
(dp1096
g2
g126
sg4
I258
ssI1069
(dp1097
g2
g471
sg4
I258
ssI1070
(dp1098
g2
g3
sg4
I259
ssI1071
(dp1099
g2
g6
sg4
I259
ssI1072
(dp1100
g2
g8
sg4
I259
ssI1073
(dp1101
g2
g16
sg4
I259
ssI1074
(dp1102
g2
g86
sg4
I259
ssI1075
(dp1103
g2
g126
sg4
I259
ssI1076
(dp1104
g2
g471
sg4
I259
ssI1077
(dp1105
g2
g3
sg4
I260
ssI1078
(dp1106
g2
g3
sg4
I261
ssI1079
(dp1107
g2
g3
sg4
I262
ssI1080
(dp1108
g2
g3
sg4
I263
ssI1081
(dp1109
g2
g3
sg4
I264
ssI1082
(dp1110
g2
g3
sg4
I265
ssI1083
(dp1111
g2
g3
sg4
I266
ssI1084
(dp1112
g2
g3
sg4
I267
ssI1085
(dp1113
g2
g3
sg4
I268
ssI1086
(dp1114
g2
g3
sg4
I269
ssI1087
(dp1115
g2
g3
sg4
I270
ssI1088
(dp1116
g2
g3
sg4
I271
ssI1089
(dp1117
g2
g3
sg4
I272
ssI1090
(dp1118
g2
g3
sg4
I273
ssI1091
(dp1119
g2
g3
sg4
I273
ssI1092
(dp1120
g2
g3
sg4
I274
ssI1093
(dp1121
g2
g3
sg4
I275
ssI1094
(dp1122
g2
g3
sg4
I276
ssI1095
(dp1123
g2
g3
sg4
I277
ssI1096
(dp1124
g2
g3
sg4
I278
ssI1097
(dp1125
g2
g3
sg4
I279
ssI1098
(dp1126
g2
g3
sg4
I280
ssI1099
(dp1127
g2
g3
sg4
I281
ssI1100
(dp1128
g2
g3
sg4
I282
ssI1101
(dp1129
g2
g3
sg4
I283
ssI1102
(dp1130
g2
g3
sg4
I284
ssI1103
(dp1131
g2
g3
sg4
I285
ssI1104
(dp1132
g2
g3
sg4
I285
ssI1105
(dp1133
g2
g3
sg4
I286
ssI1106
(dp1134
g2
g3
sg4
I287
ssI1107
(dp1135
g2
g3
sg4
I287
ssI1108
(dp1136
g2
g3
sg4
I288
ssI1109
(dp1137
g2
g6
sg4
I288
ssI1110
(dp1138
g2
g8
sg4
I288
ssI1111
(dp1139
g2
g16
sg4
I288
ssI1112
(dp1140
g2
g3
sg4
I289
ssI1113
(dp1141
g2
g6
sg4
I289
ssI1114
(dp1142
g2
g8
sg4
I289
ssI1115
(dp1143
g2
g3
sg4
I290
ssI1116
(dp1144
g2
g6
sg4
I290
ssI1117
(dp1145
g2
g8
sg4
I290
ssI1118
(dp1146
g2
g16
sg4
I290
ssI1119
(dp1147
g2
g86
sg4
I290
ssI1120
(dp1148
g2
g126
sg4
I290
ssI1121
(dp1149
g2
g471
sg4
I290
ssI1122
(dp1150
g2
g473
sg4
I290
ssI1123
(dp1151
g2
g3
sg4
I291
ssI1124
(dp1152
g2
g6
sg4
I291
ssI1125
(dp1153
g2
g8
sg4
I291
ssI1126
(dp1154
g2
g16
sg4
I291
ssI1127
(dp1155
g2
g86
sg4
I291
ssI1128
(dp1156
g2
g126
sg4
I291
ssI1129
(dp1157
g2
g471
sg4
I291
ssI1130
(dp1158
g2
g473
sg4
I291
ssI1131
(dp1159
g2
g475
sg4
I291
ssI1132
(dp1160
g2
g3
sg4
I292
ssI1133
(dp1161
g2
g3
sg4
I293
ssI1134
(dp1162
g2
g3
sg4
I294
ssI1135
(dp1163
g2
g3
sg4
I295
ssI1136
(dp1164
g2
g6
sg4
I295
ssI1137
(dp1165
g2
g8
sg4
I295
ssI1138
(dp1166
g2
g16
sg4
I295
ssI1139
(dp1167
g2
g86
sg4
I295
ssI1140
(dp1168
g2
g126
sg4
I295
ssI1141
(dp1169
g2
g471
sg4
I295
ssI1142
(dp1170
g2
g3
sg4
I296
ssI1143
(dp1171
g2
g6
sg4
I296
ssI1144
(dp1172
g2
g8
sg4
I296
ssI1145
(dp1173
g2
g16
sg4
I296
ssI1146
(dp1174
g2
g86
sg4
I296
ssI1147
(dp1175
g2
g126
sg4
I296
ss.