(dp0
I1
(dp1
S'rusheng'
p2
V
p3
sS'gradekeys4'
p4
V\u5c4b
p5
sS'rhymelabel'
p6
V\u5185\u8f49\u7b2b\u4e00\u958b
p7
sS'gradekeys1'
p8
V\u6771
p9
sS'gradekeys3'
p10
V\u9001
p11
sS'gradekeys2'
p12
V\u8463
p13
sS'fanqie'
p14
g3
ssI2
(dp15
g2
g3
sg4
V\u6c83\u71ed
p16
sg6
V\u5185\u8f49\u7b2b\u4e8c\u958b\u5408
p17
sg8
V\u51ac\u937e
p18
sg10
V\u5b8b\u7528
p19
sg12
V\u816b
p20
sg14
g3
ssI3
(dp21
g2
g3
sg4
V\u89ba
p22
sg6
V\u5916\u8f49\u7b2b\u4e09\u958b\u5408
p23
sg8
V\u6c5f
p24
sg10
V\u7d73
p25
sg12
V\u8b1b
p26
sg14
g3
ssI4
(dp27
g2
g3
sg4
V
p28
sg6
V\u5185\u8f49\u7b2b\u56db\u958b\u5408
p29
sg8
V\u652f
p30
sg10
V\u5bd8
p31
sg12
V\u7d19
p32
sg14
g3
ssI5
(dp33
g2
g3
sg4
g28
sg6
V\u5185\u8f49\u7b2b\u4e94\u5408
p34
sg8
V\u652f
p35
sg10
V\u5bd8
p36
sg12
V\u7d19
p37
sg14
g3
ssI6
(dp38
g2
g3
sg4
g28
sg6
V\u5185\u8f49\u7b2b\u516d\u958b
p39
sg8
V\u8102
p40
sg10
V\u81f3
p41
sg12
V\u65e8
p42
sg14
g3
ssI7
(dp43
g2
g3
sg4
g28
sg6
V\u5185\u8f49\u7b2b\u4e03\u5408
p44
sg8
V\u8102
p45
sg10
V\u81f3
p46
sg12
V\u65e8
p47
sg14
g3
ssI8
(dp48
g2
g3
sg4
g28
sg6
V\u5185\u8f49\u7b2b\u516b\u958b
p49
sg8
V\u4e4b
p50
sg10
V\u5fd7
p51
sg12
V\u6b62
p52
sg14
g3
ssI9
(dp53
g2
V\u53bb\u8072\u5bc4\u6b64
p54
sg4
V\u5ee2
p55
sg6
V\u5185\u8f49\u7b2b\u4e5d\u958b
p56
sg8
V\u5fae
p57
sg10
V\u672a
p58
sg12
V\u5c3e
p59
sg14
g3
ssI10
(dp60
g2
V\u53bb\u8072\u5bc4\u6b64
p61
sg4
V\u5ee2
p62
sg6
V\u5185\u8f49\u7b2b\u5341\u5408
p63
sg8
V\u5fae
p64
sg10
V\u672a
p65
sg12
V\u5c3e
p66
sg14
g3
ssI11
(dp67
g2
g3
sg4
g28
sg6
V\u5185\u8f49\u7b2b\u5341\u4e00\u958b
p68
sg8
V\u9b5a
p69
sg10
V\u5fa1
p70
sg12
V\u8a9e
p71
sg14
g3
ssI12
(dp72
g2
g3
sg4
g28
sg6
V\u5185\u8f49\u7b2b\u5341\u4e8c\u958b\u5408
p73
sg8
V\u6a21\u865e
p74
sg10
V\u66ae\u9047
p75
sg12
V\u59e5\u9e8c
p76
sg14
g3
ssI13
(dp77
g2
V\u53bb\u8072\u5bc4\u6b64
p78
sg4
V\u592c
p79
sg6
V\u5916\u8f49\u7b2b\u5341\u4e09\u958b
p80
sg8
V\u548d\u7686\u9f4a
p81
sg10
V\u4ee3\u602a\u796d\u973d
p82
sg12
V\u6d77\u99ed\u85ba
p83
sg14
g3
ssI14
(dp84
g2
V\u53bb\u8072\u5bc4\u6b64
p85
sg4
V\u592c
p86
sg6
V\u5916\u8f49\u7b2b\u5341\u56db\u5408
p87
sg8
V\u7070\u7686
p88
sg10
V\u968a\u602a\u796d\u973d
p89
sg12
V\u8cc4\u99ed
p90
sg14
V\u8197\u4ed5\u61f7\u53cd
p91
ssI15
(dp92
g2
g3
sg4
g28
sg6
V\u5916\u8f49\u7b2b\u5341\u4e94\u958b
p93
sg8
V\u4f73
p94
sg10
V\u6cf0\u5366\u796d
p95
sg12
V\u87f9
p96
sg14
g3
ssI16
(dp97
g2
g3
sg4
g28
sg6
V\u5916\u8f49\u7b2b\u5341\u516d\u5408
p98
sg8
V\u4f73
p99
sg10
V\u6cf0\u5366\u796d
p100
sg12
V\u87f9
p101
sg14
g3
ssI17
(dp102
g2
g3
sg4
V\u6c92\u6adb\u8cea
p103
sg6
V\u5916\u8f49\u7b2b\u5341\u4e03\u958b
p104
sg8
V\u75d5\u81fb\u771f
p105
sg10
V\u6068\u9707
p106
sg12
V\u5f88\u8eeb
p107
sg14
g3
ssI18
(dp108
g2
g3
sg4
V\u6c92\u8853
p109
sg6
V\u5916\u8f49\u7b2b\u5341\u516b\u5408
p110
sg8
V\u4c1f\u8ac4
p111
sg10
V\u6141\u7a15
p112
sg12
V\u6df7\u6e96
p113
sg14
g3
ssI19
(dp114
g2
g3
sg4
V\u8fc4
p115
sg6
V\u5916\u8f49\u7b2b\u5341\u4e5d\u958b
p116
sg8
V\u6b23
p117
sg10
V\u712e
p118
sg12
V\u96b1
p119
sg14
g3
ssI20
(dp120
g2
g3
sg4
V\u7269
p121
sg6
V\u5916\u8f49\u7b2b\u4e8c\u5341\u5408
p122
sg8
V\u6587
p123
sg10
V\u554f
p124
sg12
V\u543b
p125
sg14
g3
ssI21
(dp126
g2
g3
sg4
V\u938b\u6708\u859b
p127
sg6
V\u5916\u8f49\u7b2b\u4e8c\u5341\u4e00\u958b
p128
sg8
V\u5c71\u5143\u4ed9
p129
sg10
V\u8949\u9858\u7dda
p130
sg12
V\u7522\u962e\u736e
p131
sg14
g3
ssI22
(dp132
g2
g3
sg4
V\u938b\u6708\u859b
p133
sg6
V\u5916\u8f49\u7b2b\u4e8c\u5341\u4e8c\u5408
p134
sg8
V\u5c71\u5143\u4ed9
p135
sg10
V\u8949\u9858\u7dda
p136
sg12
V\u7522\u962e\u736e
p137
sg14
g3
ssI23
(dp138
g2
g3
sg4
V\u66f7\u9ee0\u859b\u5c51
p139
sg6
V\u5916\u8f49\u7b2b\u4e8c\u5341\u4e09\u958b
p140
sg8
V\u5bd2\u522a\u4ed9\u5148
p141
sg10
V\u7ff0\u8aeb\u7dda\u9730
p142
sg12
V\u65f1\u6f78\u736e\u9291
p143
sg14
g3
ssI24
(dp144
g2
g3
sg4
V\u672b\u9ee0\u859b\u5c51
p145
sg6
V\u5916\u8f49\u7b2b\u4e8c\u5341\u56db\u5408
p146
sg8
V\u6853\u522a\u4ed9\u5148
p147
sg10
V\u63db\u8aeb\u7dda\u9730
p148
sg12
V\u7de9\u6f78\u736e\u9291
p149
sg14
g3
ssI25
(dp150
g2
g3
sg4
g28
sg6
V\u5916\u8f49\u7b2b\u4e8c\u5341\u4e94\u958b
p151
sg8
V\u8c6a\u80b4?\u5bb5\u856d
p152
sg10
V\u865f\u6548\U00025b07\u562f
p153
sg12
V\u6667\u5de7\u5c0f\u7be0
p154
sg14
g3
ssI26
(dp155
g2
g3
sg4
g28
sg6
V\u5916\u8f49\u7b2b\u4e8c\u5341\u516d\u5408
p156
sg8
V\u5bb5
p157
sg10
V\U00025b07
p158
sg12
V\u5c0f
p159
sg14
g3
ssI27
(dp160
g2
g3
sg4
g28
sg6
V\u5185\u8f49\u7b2b\u4e8c\u5341\u4e03\u5408
p161
sg8
V\u6b4c
p162
sg10
V\u7b87
p163
sg12
V\u54ff
p164
sg14
g3
ssI28
(dp165
g2
g3
sg4
g28
sg6
V\u5185\u8f49\u7b2b\u4e8c\u5341\u516b\u5408
p166
sg8
V\u6208
p167
sg10
V\u6548
p168
sg12
V\u679c
p169
sg14
V\U00029a37\u53bb\u9774\u53cd
p170
ssI29
(dp171
g2
g3
sg4
g28
sg6
V\u5185\u8f49\u7b2b\u4e8c\u5341\u4e5d\u958b
p172
sg8
V\u9ebb
p173
sg10
V\u79a1
p174
sg12
V\u99ac
p175
sg14
g3
ssI30
(dp176
g2
g3
sg4
g28
sg6
V\u5916\u8f49\u7b2b\u4e09\u5341\u5408
p177
sg8
V\u9ebb
p178
sg10
V\u79a1
p179
sg12
V\u99ac
p180
sg14
g3
ssI31
(dp181
g2
g3
sg4
V\u9438\u8449
p182
sg6
V\u5185\u8f49\u7b2b\u4e09\u5341\u4e00\u958b
p183
sg8
V\u5510\u967d
p184
sg10
V\u5b95\u6f3e
p185
sg12
V\u8569\u990a
p186
sg14
g3
ssI32
(dp187
g2
g3
sg4
V\u9438\u8449
p188
sg6
V\u5185\u8f49\u7b2b\u4e09\u5341\u4e8c\u5408
p189
sg8
V\u5510\u967d
p190
sg10
V\u5b95\u6f3e
p191
sg12
V\u8569\u990a
p192
sg14
g3
ssI33
(dp193
g2
g3
sg4
V\u964c\u6614
p194
sg6
V\u5916\u8f49\u7b2b\u4e09\u5341\u4e09\u958b
p195
sg8
V\u5e9a\u6e05
p196
sg10
V\u656c\u52c1
p197
sg12
V\u6897\u975c
p198
sg14
g3
ssI34
(dp199
g2
g3
sg4
V\u964c\u6614
p200
sg6
V\u5916\u8f49\u7b2b\u4e09\u5341\u56db\u5408
p201
sg8
V\u5e9a\u6e05
p202
sg10
V\u656c\u52c1
p203
sg12
V\u6897\u975c
p204
sg14
g3
ssI35
(dp205
g2
g3
sg4
V\u9ea5\u6614\u932b
p206
sg6
V\u5916\u8f49\u7b2b\u4e09\u5341\u4e94\u958b
p207
sg8
V\u8015\u6e05\u9752
p208
sg10
V\u8acd\u52c1\u5f91
p209
sg12
V\u803f\u975c\u8fe5
p210
sg14
g3
ssI36
(dp211
g2
g3
sg4
V\u9ea5\u932b
p212
sg6
V\u5916\u8f49\u7b2b\u4e09\u5341\u516d\u5408
p213
sg8
V\u8015\u9752
p214
sg10
V\u8acd\u5f91
p215
sg12
V\u803f\u8fe5
p216
sg14
g3
ssI37
(dp217
g2
g3
sg4
g28
sg6
V\u5185\u8f49\u7b2b\u4e09\u5341\u4e03\u958b
p218
sg8
V\u4faf\u5c24\u5e7d
p219
sg10
V\U000202eb\u5ba5\u5e7c
p220
sg12
V\u539a\u6709\u9edd
p221
sg14
g3
ssI38
(dp222
g2
g3
sg4
V\u7ddd
p223
sg6
V\u5185\u8f49\u7b2b\u4e09\u5341\u516b\u5408
p224
sg8
V\u4fb5
p225
sg10
V\u6c81
p226
sg12
V\u5bd1
p227
sg14
g3
ssI39
(dp228
g2
g3
sg4
V\u5408\u6d3d\u8449\u6017
p229
sg6
V\u5916\u8f49\u7b2b\u4e09\u5341\u4e5d\u958b
p230
sg8
V\u8983\u54b8\u9e7d\u6dfb
p231
sg10
V\u52d8\u9677\u8c54\u3b87
p232
sg12
V\u611f\u8c4f\u7430\u5fdd
p233
sg14
g3
ssI40
(dp234
g2
g3
sg4
V\u76cd\u72ce\u696d\u8449
p235
sg6
V\u5916\u8f49\u7b2b\u56db\u5341\u5408
p236
sg8
V\u8ac7\u929c\u56b4\u9e7d
p237
sg10
V\u95de\u9451\u91c5\u8c54
p238
sg12
V\u6562\u6abb\u513c\u7430
p239
sg14
V\U0002809d\u767d\u7518\u53cd
p240
ssI41
(dp241
g2
g3
sg4
V\u4e4f
p242
sg6
V\u5916\u8f49\u7b2b\u56db\u5341\u4e00\u5408
p243
sg8
V\u51e1
p244
sg10
V\u68b5
p245
sg12
V\u8303
p246
sg14
V\u438e\u5973\u6cd5\u53cd\u7332\u8d77\u6cd5\u53cd
p247
ssI42
(dp248
g2
g3
sg4
V\u5fb7\u8077
p249
sg6
V\u5185\u8f49\u7b2b\u56db\u5341\u4e8c\u958b
p250
sg8
V\u767b\u84b8
p251
sg10
V\u5d9d\u8b49
p252
sg12
V\u7b49\u62ef
p253
sg14
g3
ssI43
(dp254
g2
g3
sg4
V\u5fb7\u8077
p255
sg6
V\u5185\u8f49\u7b2b\u56db\u5341\u4e09\u5408
p256
sg8
V\u767b
p257
sg10
g3
sg12
V\u6307\u5fae\u97fb\u9451\u5dfb\u7d42
p258
sg14
g3
ss.