(dp0
I1
I12
sI2
I12
sI3
I11
sI4
I5
sI5
I5
sI6
I5
sI7
I5
sI8
I5
sI9
I5
sI10
I5
sI11
I3
sI12
I3
sI13
I4
sI14
I4
sI15
I4
sI16
I4
sI17
I14
sI18
I14
sI19
I14
sI20
I14
sI21
I13
sI22
I13
sI23
I13
sI24
I13
sI25
I6
sI26
I6
sI27
I1
sI28
I1
sI29
I2
sI30
I2
sI31
I8
sI32
I8
sI33
I10
sI34
I10
sI35
I10
sI36
I10
sI37
I7
sI38
I16
sI39
I15
sI40
I15
sI41
I15
sI42
I9
sI43
I9
s.