(dp0
I1
(dp1
S'text'
p2
S'nei'
p3
sS'corrected'
p4
S'nei'
p5
ssI2
(dp6
g2
S'nei'
p7
sg4
S'nei'
p8
ssI3
(dp9
g2
S'wai'
p10
sg4
S'wai'
p11
ssI4
(dp12
g2
S'nei'
p13
sg4
S'nei'
p14
ssI5
(dp15
g2
S'nei'
p16
sg4
S'nei'
p17
ssI6
(dp18
g2
S'nei'
p19
sg4
S'nei'
p20
ssI7
(dp21
g2
S'nei'
p22
sg4
S'nei'
p23
ssI8
(dp24
g2
S'nei'
p25
sg4
S'nei'
p26
ssI9
(dp27
g2
S'nei'
p28
sg4
S'nei'
p29
ssI10
(dp30
g2
S'nei'
p31
sg4
S'nei'
p32
ssI11
(dp33
g2
S'nei'
p34
sg4
S'nei'
p35
ssI12
(dp36
g2
S'nei'
p37
sg4
S'nei'
p38
ssI13
(dp39
g2
S'wai'
p40
sg4
S'wai'
p41
ssI14
(dp42
g2
S'wai'
p43
sg4
S'nei'
p44
ssI15
(dp45
g2
S'wai'
p46
sg4
S'wai'
p47
ssI16
(dp48
g2
S'wai'
p49
sg4
S'wai'
p50
ssI17
(dp51
g2
S'wai'
p52
sg4
S'wai'
p53
ssI18
(dp54
g2
S'wai'
p55
sg4
S'wai'
p56
ssI19
(dp57
g2
S'wai'
p58
sg4
S'wai'
p59
ssI20
(dp60
g2
S'wai'
p61
sg4
S'wai'
p62
ssI21
(dp63
g2
S'wai'
p64
sg4
S'wai'
p65
ssI22
(dp66
g2
S'wai'
p67
sg4
S'wai'
p68
ssI23
(dp69
g2
S'wai'
p70
sg4
S'wai'
p71
ssI24
(dp72
g2
S'wai'
p73
sg4
S'wai'
p74
ssI25
(dp75
g2
S'wai'
p76
sg4
S'wai'
p77
ssI26
(dp78
g2
S'wai'
p79
sg4
S'wai'
p80
ssI27
(dp81
g2
S'nei'
p82
sg4
S'wai'
p83
ssI28
(dp84
g2
S'nei'
p85
sg4
S'wai'
p86
ssI29
(dp87
g2
S'nei'
p88
sg4
S'wai'
p89
ssI30
(dp90
g2
S'wai'
p91
sg4
S'wai'
p92
ssI31
(dp93
g2
S'nei'
p94
sg4
S'nei'
p95
ssI32
(dp96
g2
S'nei'
p97
sg4
S'nei'
p98
ssI33
(dp99
g2
S'wai'
p100
sg4
S'wai'
p101
ssI34
(dp102
g2
S'wai'
p103
sg4
S'wai'
p104
ssI35
(dp105
g2
S'wai'
p106
sg4
S'wai'
p107
ssI36
(dp108
g2
S'wai'
p109
sg4
S'wai'
p110
ssI37
(dp111
g2
S'nei'
p112
sg4
S'nei'
p113
ssI38
(dp114
g2
S'nei'
p115
sg4
S'nei'
p116
ssI39
(dp117
g2
S'nei'
p118
sg4
S'wai'
p119
ssI40
(dp120
g2
S'nei'
p121
sg4
S'nei'
p122
ssI41
(dp123
g2
S'nei'
p124
sg4
S'nei'
p125
ssI42
(dp126
g2
S'nei'
p127
sg4
S'nei'
p128
ssI43
(dp129
g2
S'nei'
p130
sg4
S'nei'
p131
ss.