(dp0
I8192
I1544
sI1
I23
sI3
I24
sI4
I31
sI5
I26
sI8198
I1545
sI7
I33
sI8
I25
sI9
I27
sI10
I29
sI11
I32
sI8204
I1539
sI13
I20
sI14
I21
sI16
I2
sI17
I28
sI18
I1
sI19
I22
sI20
I30
sI8214
I1566
sI8196
I1540
sI8218
I1561
sI8219
I1570
sI8220
I1572
sI8221
I1564
sI8222
I1571
sI31
I7
sI8226
I1565
sI8234
I1614
sI8235
I1616
sI46
I9
sI47
I19
sI8240
I1612
sI49
I12
sI8242
I1636
sI8243
I1609
sI8244
I1606
sI8245
I1617
sI8246
I1618
sI55
I18
sI56
I5
sI8249
I1607
sI8250
I1645
sI59
I14
sI60
I10
sI8202
I1541
sI62
I4
sI63
I6
sI64
I3
sI65
I13
sI66
I15
sI67
I17
sI68
I16
sI8261
I1592
sI8262
I1588
sI71
I11
sI8264
I1585
sI76
I8
sI8270
I1600
sI8205
I1537
sI8272
I1594
sI8273
I1589
sI8274
I1586
sI8275
I1587
sI8276
I1593
sI8206
I1536
sI8279
I1595
sI8281
I2622
sI8283
I2613
sI8284
I2621
sI93
I1157
sI95
I1153
sI96
I1158
sI97
I1154
sI8290
I2626
sI99
I1150
sI8293
I2620
sI102
I1152
sI8295
I2623
sI8296
I2617
sI105
I1149
sI8298
I2616
sI107
I1155
sI108
I1159
sI109
I1151
sI110
I1147
sI111
I1148
sI112
I1160
sI114
I1156
sI12307
I1869
sI8308
I2649
sI8310
I2650
sI8311
I2659
sI8314
I2648
sI8317
I2647
sI8320
I2663
sI8327
I2732
sI8328
I2729
sI8331
I2709
sI8332
I2696
sI14462
I2006
sI8335
I2707
sI8336
I2695
sI8337
I2697
sI8341
I2727
sI8342
I2731
sI8344
I2704
sI8350
I2680
sI8352
I2684
sI8353
I2693
sI8354
I2686
sI8356
I2673
sI8357
I2690
sI8358
I2674
sI8359
I2687
sI8360
I2685
sI8362
I2683
sI8363
I2681
sI8364
I2682
sI8365
I2678
sI8366
I2679
sI8367
I2692
sI8368
I2688
sI8370
I2689
sI12318
I1873
sI8375
I3369
sI8376
I3370
sI185
I2076
sI187
I2094
sI188
I2099
sI189
I2080
sI191
I2073
sI192
I2092
sI193
I2081
sI194
I2079
sI8387
I3382
sI8388
I3376
sI197
I2078
sI198
I2075
sI199
I2095
sI200
I2082
sI201
I2083
sI202
I2077
sI203
I2087
sI8398
I3402
sI8400
I3414
sI8402
I3415
sI8404
I3411
sI8405
I3403
sI215
I2098
sI8408
I3405
sI8409
I3413
sI8410
I3418
sI13923
I3748
sI12822
I3620
sI8418
I3472
sI8419
I3469
sI8422
I3510
sI8423
I3508
sI8424
I3475
sI8425
I3499
sI234
I2088
sI8427
I3514
sI8429
I3476
sI8430
I3471
sI239
I2097
sI240
I2096
sI8434
I3495
sI243
I2086
sI8436
I3470
sI246
I2084
sI248
I2093
sI249
I2089
sI250
I2074
sI251
I2091
sI252
I2085
sI8445
I3463
sI8446
I3461
sI8448
I3444
sI8449
I3457
sI8450
I3445
sI8451
I3447
sI8452
I3458
sI262
I2090
sI8455
I3446
sI8456
I3456
sI8457
I3453
sI8458
I3454
sI8459
I3466
sI8460
I3459
sI8461
I3465
sI8462
I3464
sI8463
I3460
sI8465
I528
sI8467
I519
sI8468
I529
sI8469
I522
sI8471
I524
sI8472
I526
sI281
I3160
sI8474
I531
sI8475
I520
sI284
I3170
sI8477
I530
sI8478
I527
sI8479
I518
sI8480
I525
sI8481
I523
sI8482
I521
sI8483
I533
sI8484
I532
sI8485
I534
sI8486
I535
sI8241
I1643
sI296
I3173
sI297
I3174
sI8490
I540
sI8492
I538
sI8494
I539
sI8495
I594
sI8497
I550
sI8498
I547
sI308
I3195
sI8501
I537
sI8502
I546
sI8506
I542
sI8508
I545
sI8509
I541
sI8510
I618
sI8511
I637
sI8512
I629
sI322
I3189
sI323
I3180
sI8516
I628
sI8518
I623
sI8519
I619
sI8520
I627
sI12286
I1843
sI8522
I635
sI8523
I638
sI8524
I644
sI333
I3204
sI8526
I636
sI335
I3183
sI336
I3182
sI8248
I1611
sI338
I3181
sI339
I3203
sI340
I3193
sI341
I3201
sI342
I3178
sI343
I3198
sI8536
I592
sI8537
I590
sI8538
I588
sI347
I3186
sI6167
I3366
sI8195
I1538
sI353
I3205
sI354
I3188
sI8547
I589
sI8252
I1605
sI8555
I591
sI8557
I1550
sI8559
I1546
sI369
I40
sI371
I39
sI8564
I1557
sI8254
I1619
sI8566
I1553
sI375
I42
sI376
I36
sI8569
I1551
sI378
I41
sI8571
I1552
sI8572
I1558
sI382
I38
sI383
I37
sI384
I35
sI385
I43
sI386
I34
sI8582
I1567
sI8584
I1562
sI8587
I1574
sI8588
I2662
sI8589
I1583
sI286
I3172
sI15060
I3851
sI8598
I1569
sI8599
I1568
sI8600
I1573
sI8601
I1563
sI8602
I1630
sI8603
I1626
sI414
I61
sI415
I45
sI8609
I1632
sI418
I51
sI419
I53
sI420
I63
sI421
I46
sI8614
I1629
sI423
I48
sI424
I44
sI425
I52
sI426
I62
sI427
I67
sI428
I64
sI429
I54
sI430
I55
sI431
I57
sI434
I58
sI435
I59
sI436
I50
sI439
I49
sI443
I47
sI444
I65
sI445
I56
sI446
I66
sI447
I60
sI8268
I1601
sI1379
I2145
sI8652
I2638
sI8653
I2630
sI8655
I2639
sI8656
I2645
sI8657
I2632
sI8658
I2629
sI8659
I2633
sI8661
I2646
sI8662
I2631
sI8663
I2644
sI8664
I2634
sI8665
I2637
sI8666
I2636
sI8271
I1590
sI8668
I2643
sI8669
I2642
sI8670
I2641
sI8674
I2654
sI8676
I2653
sI8678
I2656
sI8679
I2720
sI8680
I2658
sI8681
I2721
sI8685
I2657
sI8686
I2661
sI8690
I2652
sI8692
I2660
sI8694
I2705
sI8695
I2712
sI8696
I2700
sI8697
I2676
sI506
I1165
sI507
I1163
sI8700
I2726
sI13738
I1978
sI511
I1164
sI512
I1172
sI8706
I2711
sI515
I1180
sI516
I1161
sI519
I1171
sI520
I1173
sI13740
I1972
sI522
I1166
sI523
I1162
sI524
I1167
sI525
I1178
sI526
I1168
sI527
I1169
sI528
I1176
sI8721
I2675
sI8722
I2691
sI531
I1170
sI8201
I1543
sI533
I1175
sI534
I2111
sI536
I1174
sI538
I1181
sI539
I1182
sI541
I1179
sI8741
I3398
sI8743
I3391
sI8744
I3393
sI8745
I3394
sI555
I2104
sI8749
I3400
sI8750
I3395
sI559
I2100
sI8753
I3390
sI562
I2101
sI8756
I3392
sI8757
I3397
sI8758
I3399
sI8759
I3384
sI8760
I3401
sI569
I2102
sI8762
I3387
sI571
I2103
sI8766
I3406
sI8767
I3417
sI8770
I3497
sI8773
I3422
sI8774
I3419
sI8289
I2624
sI8776
I3420
sI8777
I3412
sI8778
I3410
sI8781
I3408
sI8782
I3416
sI8783
I3404
sI8203
I1559
sI8785
I3407
sI8786
I3487
sI8291
I2619
sI598
I2115
sI599
I2118
sI8793
I3488
sI8795
I3490
sI8796
I3489
sI608
I2116
sI8801
I3500
sI610
I2108
sI611
I2119
sI612
I2110
sI613
I2121
sI614
I2117
sI615
I2114
sI616
I2112
sI618
I2107
sI12681
I1886
sI620
I2109
sI8813
I3448
sI8814
I3452
sI623
I2105
sI13387
I1910
sI627
I2106
sI629
I2120
sI12296
I1845
sI631
I2113
sI14338
I3804
sI2837
I2238
sI8833
I702
sI8835
I700
sI8836
I703
sI8837
I714
sI8839
I707
sI8840
I713
sI8841
I717
sI8842
I711
sI8843
I712
sI8845
I716
sI8846
I701
sI8847
I715
sI8848
I710
sI8849
I705
sI8850
I706
sI8851
I704
sI8852
I708
sI8853
I718
sI8854
I709
sI663
I3214
sI8856
I698
sI8858
I681
sI8859
I687
sI8860
I696
sI8862
I685
sI8863
I683
sI8864
I694
sI8865
I692
sI8866
I691
sI8868
I690
sI8869
I682
sI8870
I684
sI8871
I699
sI8872
I697
sI8873
I693
sI8874
I686
sI8875
I695
sI8876
I689
sI8877
I688
sI8878
I663
sI8879
I679
sI8880
I671
sI8882
I659
sI8883
I674
sI8884
I666
sI8885
I664
sI694
I3223
sI8887
I676
sI8888
I667
sI697
I3229
sI8890
I672
sI8891
I680
sI8892
I661
sI701
I3222
sI8894
I658
sI8895
I656
sI8896
I657
sI706
I3231
sI707
I3242
sI8900
I669
sI8902
I650
sI712
I3241
sI8905
I652
sI8906
I653
sI8908
I645
sI719
I3239
sI8912
I651
sI8914
I654
sI8915
I649
sI8917
I648
sI8918
I646
sI8919
I647
sI8925
I1697
sI8927
I1695
sI8928
I1707
sI8929
I1710
sI8931
I1701
sI8932
I1705
sI8933
I1703
sI8934
I1704
sI8935
I1712
sI8937
I1711
sI8938
I1706
sI8939
I1700
sI8940
I1699
sI8941
I1698
sI8942
I1702
sI8943
I1708
sI8944
I1696
sI8946
I1709
sI8950
I1682
sI760
I75
sI762
I73
sI8955
I1691
sI764
I78
sI8957
I1687
sI766
I76
sI767
I84
sI768
I71
sI8961
I1686
sI770
I83
sI772
I79
sI773
I68
sI774
I70
sI775
I80
sI776
I81
sI777
I82
sI778
I69
sI779
I77
sI780
I74
sI781
I72
sI8975
I1662
sI8976
I1669
sI8977
I1663
sI8979
I1666
sI8980
I1661
sI6958
I3331
sI8982
I1677
sI8986
I1660
sI6959
I3332
sI8990
I1673
sI8991
I1679
sI8992
I1671
sI6960
I3329
sI8994
I1650
sI8996
I1655
sI8997
I1652
sI8998
I1653
sI9000
I1647
sI9003
I1658
sI9006
I1657
sI9007
I1648
sI9008
I1654
sI9009
I1656
sI9010
I1651
sI9011
I1649
sI9017
I2793
sI9019
I2787
sI9020
I2802
sI9021
I2798
sI9023
I2799
sI9024
I2797
sI9025
I2794
sI9026
I2801
sI9027
I2791
sI9029
I2800
sI9030
I2790
sI9031
I2803
sI9032
I2788
sI9034
I2789
sI9035
I2792
sI9036
I2795
sI9038
I2796
sI8333
I2708
sI9042
I2769
sI9043
I2771
sI9044
I2784
sI854
I1187
sI855
I1189
sI856
I1185
sI9049
I2781
sI9050
I2785
sI9052
I2774
sI9053
I2770
sI9054
I2780
sI9055
I2779
sI9056
I2777
sI865
I1183
sI9058
I2775
sI9059
I2782
sI9060
I2776
sI9061
I2773
sI870
I1186
sI871
I1184
sI873
I1188
sI9068
I2752
sI9069
I2764
sI9072
I2748
sI9074
I2753
sI12850
I3634
sI9078
I2751
sI9079
I2765
sI9081
I2762
sI12879
I3664
sI9084
I2766
sI9086
I2743
sI9089
I2746
sI9090
I2745
sI9092
I2736
sI9096
I2744
sI9098
I2742
sI9099
I2739
sI9100
I2740
sI9101
I2741
sI9102
I2737
sI9103
I2738
sI946
I2123
sI12446
I3581
sI950
I2130
sI951
I2127
sI952
I2129
sI957
I2122
sI959
I2125
sI960
I2126
sI961
I2124
sI964
I2128
sI8761
I3396
sI13944
I3724
sI14273
I3763
sI306
I3179
sI8381
I3381
sI9063
I2758
sI1036
I3258
sI1038
I3259
sI1040
I3255
sI1042
I3247
sI1043
I3245
sI1044
I3261
sI1045
I3246
sI1046
I3244
sI1048
I3253
sI1049
I3243
sI1050
I3256
sI1051
I3254
sI1052
I3257
sI1053
I3248
sI1054
I3250
sI1055
I3251
sI1056
I3252
sI1057
I3249
sI13830
I3072
sI13832
I3075
sI9271
I665
sI9276
I655
sI9277
I660
sI9278
I673
sI9279
I662
sI9281
I678
sI9282
I675
sI309
I3197
sI9289
I670
sI9290
I677
sI9291
I668
sI8377
I3373
sI8379
I3380
sI8380
I3377
sI1131
I127
sI1134
I128
sI1135
I141
sI1136
I118
sI1137
I138
sI8383
I3378
sI1150
I109
sI1151
I110
sI1154
I104
sI1155
I123
sI1156
I108
sI1157
I116
sI1158
I111
sI1159
I137
sI1160
I85
sI1161
I106
sI1163
I105
sI1164
I113
sI8386
I3379
sI1166
I124
sI1167
I119
sI1168
I122
sI1169
I91
sI1170
I107
sI1171
I97
sI1172
I98
sI9366
I1680
sI1175
I86
sI9368
I1659
sI9370
I1675
sI9371
I1676
sI1180
I117
sI1182
I121
sI1183
I112
sI9380
I1668
sI9381
I1665
sI9382
I1667
sI9383
I1672
sI1192
I120
sI1193
I115
sI1194
I139
sI1195
I114
sI12491
I3639
sI1226
I1214
sI1229
I1226
sI1242
I1216
sI1243
I1213
sI1247
I1202
sI1248
I1191
sI1249
I1220
sI1251
I1219
sI1252
I1190
sI1253
I1205
sI1254
I1201
sI1255
I1204
sI1257
I1232
sI1258
I1210
sI1259
I1235
sI1260
I1236
sI1261
I1192
sI1262
I1194
sI1263
I1227
sI1264
I1193
sI9458
I2750
sI1267
I1212
sI9460
I2747
sI9461
I2755
sI9462
I2757
sI9463
I2761
sI1272
I1211
sI1273
I1225
sI1274
I1209
sI1275
I1221
sI1278
I1238
sI1279
I1203
sI9472
I2756
sI9473
I2763
sI9474
I2754
sI1284
I1217
sI1285
I1218
sI1286
I1228
sI1287
I1215
sI1318
I2160
sI1321
I2174
sI1335
I2134
sI1338
I2156
sI1339
I2153
sI1340
I2135
sI1341
I2159
sI1343
I2168
sI1344
I2131
sI1345
I2149
sI1346
I2146
sI1347
I2176
sI1348
I2144
sI1352
I2152
sI1354
I2142
sI1355
I2140
sI1356
I2141
sI1359
I2148
sI1362
I2158
sI1364
I2137
sI1365
I2151
sI1366
I2147
sI1367
I2136
sI1370
I2157
sI1371
I2166
sI9569
I727
sI1378
I2150
sI9571
I729
sI9572
I730
sI9573
I732
sI9575
I722
sI9576
I724
sI9577
I720
sI9579
I725
sI9581
I731
sI9582
I719
sI9583
I728
sI9584
I723
sI9585
I726
sI9586
I721
sI10531
I2864
sI8426
I3474
sI8431
I3478
sI9661
I1720
sI9663
I1722
sI9664
I1723
sI9665
I1725
sI9667
I1716
sI9669
I1714
sI9670
I1726
sI9671
I1718
sI9673
I1724
sI9674
I1713
sI9675
I1721
sI9676
I1717
sI9677
I1719
sI9678
I1715
sI8440
I3479
sI8442
I3467
sI1504
I134
sI8444
I3455
sI1518
I130
sI1519
I95
sI1520
I87
sI1522
I89
sI1523
I90
sI1524
I94
sI1525
I129
sI1527
I96
sI1528
I136
sI1529
I126
sI1530
I103
sI1531
I100
sI1532
I88
sI1536
I135
sI15327
I2995
sI1543
I140
sI324
I3202
sI1545
I92
sI1547
I99
sI1548
I125
sI1550
I131
sI1551
I133
sI1553
I102
sI1554
I101
sI1555
I132
sI1557
I93
sI1559
I2132
sI9753
I2808
sI9755
I2805
sI9756
I2814
sI9757
I2836
sI9759
I2813
sI9762
I2806
sI9763
I2810
sI9765
I2809
sI9766
I2804
sI9767
I2812
sI9768
I2811
sI9769
I2815
sI9770
I2807
sI11187
I1794
sI1610
I1208
sI1611
I1200
sI1612
I1206
sI13922
I3740
sI1614
I1195
sI1615
I1196
sI1616
I1239
sI1619
I1223
sI1620
I1222
sI1621
I1233
sI1622
I1234
sI1623
I1237
sI1624
I1198
sI15057
I3850
sI12875
I3653
sI1635
I1229
sI1639
I1224
sI1640
I1199
sI1641
I1230
sI1643
I1207
sI1646
I1231
sI8784
I3421
sI277
I3168
sI8239
I1644
sI279
I3163
sI280
I3169
sI283
I3167
sI1702
I2167
sI1703
I2143
sI1704
I2138
sI1706
I2163
sI1707
I2161
sI1708
I2165
sI13938
I3728
sI1711
I2155
sI1712
I2133
sI1713
I2162
sI1715
I1197
sI1716
I2139
sI1717
I2172
sI1718
I2154
sI1720
I2170
sI13940
I3745
sI1727
I2171
sI1729
I2175
sI1730
I2164
sI1732
I2169
sI289
I3164
sI1739
I2173
sI290
I3162
sI9937
I743
sI9939
I747
sI9941
I749
sI9943
I736
sI9944
I740
sI9945
I734
sI9946
I757
sI9947
I741
sI9949
I748
sI9950
I733
sI9951
I744
sI9952
I738
sI9953
I742
sI9954
I735
sI9955
I739
sI9956
I737
sI9957
I746
sI9958
I745
sI295
I3176
sI13971
I3731
sI332
I3190
sI298
I3175
sI9983
I759
sI9986
I750
sI9987
I751
sI9994
I758
sI9995
I752
sI12778
I2978
sI11196
I1808
sI11227
I2906
sI15324
I2997
sI10029
I1735
sI10031
I1740
sI10032
I1741
sI10033
I1736
sI10035
I1729
sI10036
I1733
sI10037
I1744
sI10038
I1745
sI10039
I1734
sI10041
I1742
sI10042
I1727
sI10043
I1737
sI10044
I1730
sI10045
I1731
sI10046
I1728
sI10047
I1732
sI10048
I1743
sI10049
I1739
sI10050
I1738
sI285
I3171
sI11246
I2914
sI1870
I144
sI13967
I3726
sI1887
I158
sI1890
I175
sI1893
I155
sI1895
I148
sI1896
I142
sI1897
I182
sI1898
I156
sI15335
I2998
sI1900
I147
sI1901
I152
sI1902
I153
sI1903
I149
sI1904
I178
sI1905
I168
sI1906
I173
sI1907
I174
sI1908
I169
sI1911
I143
sI1913
I183
sI1914
I157
sI1916
I154
sI1917
I151
sI1918
I150
sI1919
I146
sI1929
I145
sI1930
I179
sI10123
I2817
sI10124
I2829
sI10125
I2837
sI337
I3196
sI10127
I2835
sI10128
I2826
sI10129
I2822
sI10130
I2818
sI10131
I2827
sI10133
I2819
sI10134
I2816
sI10135
I2824
sI10136
I2830
sI10137
I2820
sI10138
I2833
sI10139
I2823
sI10140
I2831
sI10141
I2825
sI10142
I2821
sI326
I3192
sI12779
I2972
sI327
I3199
sI328
I3184
sI329
I3191
sI1979
I1255
sI1983
I1267
sI1984
I1242
sI1985
I1251
sI331
I3185
sI1988
I1241
sI1992
I1246
sI1993
I1260
sI1994
I1252
sI1995
I1270
sI1996
I1269
sI1997
I1243
sI1998
I1262
sI1999
I1264
sI2000
I1244
sI334
I3187
sI2007
I1245
sI2008
I1253
sI2011
I1247
sI2021
I1254
sI2023
I1248
sI8251
I1641
sI12629
I1867
sI344
I3177
sI2070
I2205
sI2071
I2193
sI2075
I2208
sI2076
I2192
sI2077
I2227
sI2078
I2219
sI2079
I2226
sI2080
I2177
sI2082
I2202
sI2083
I2210
sI2084
I2201
sI2085
I2194
sI2086
I2198
sI2087
I2200
sI2088
I2196
sI2089
I2179
sI2090
I2187
sI2091
I2186
sI2092
I2184
sI8253
I1640
sI2095
I2218
sI2097
I2217
sI2100
I2209
sI2101
I2220
sI2102
I2207
sI2103
I2206
sI2106
I2197
sI2109
I2216
sI12780
I2973
sI13969
I3727
sI2112
I2199
sI2113
I2212
sI2114
I2195
sI2115
I2214
sI14255
I3123
sI12641
I1859
sI10313
I756
sI14635
I3777
sI13478
I3036
sI355
I3194
sI8800
I3503
sI10330
I773
sI10331
I791
sI10332
I775
sI10334
I778
sI10335
I788
sI10336
I777
sI10337
I780
sI10338
I779
sI10339
I798
sI10340
I792
sI10341
I772
sI10342
I771
sI10343
I781
sI10344
I789
sI10345
I790
sI10346
I760
sI10347
I787
sI10348
I774
sI10349
I776
sI10350
I794
sI12648
I1863
sI11283
I2900
sI10356
I783
sI10357
I762
sI10358
I766
sI10359
I761
sI10360
I764
sI5088
I2475
sI11285
I2881
sI12651
I1870
sI10375
I763
sI8256
I1624
sI10379
I782
sI10380
I795
sI10381
I793
sI10383
I765
sI11288
I2877
sI10391
I796
sI8561
I1547
sI8563
I1548
sI10420
I1781
sI10422
I1754
sI10423
I1759
sI10424
I1752
sI10426
I1751
sI10427
I1772
sI10429
I1770
sI2238
I163
sI10432
I1761
sI10433
I1750
sI10434
I1775
sI10436
I1780
sI10438
I1746
sI10439
I1762
sI10441
I1765
sI10442
I1769
sI2254
I162
sI2255
I165
sI2256
I172
sI10449
I1763
sI10451
I1773
sI2260
I171
sI2263
I177
sI2264
I170
sI10457
I1774
sI2266
I167
sI2267
I181
sI2268
I161
sI8570
I1549
sI2270
I176
sI2272
I160
sI14636
I3779
sI10467
I1748
sI2279
I164
sI10472
I1755
sI10474
I1758
sI10475
I1764
sI2284
I166
sI2287
I180
sI2289
I159
sI10484
I1757
sI8575
I1555
sI8260
I1591
sI8576
I1554
sI8577
I1560
sI8578
I1556
sI15291
I3005
sI10514
I2849
sI10515
I2841
sI10516
I2840
sI10518
I2867
sI10519
I2846
sI10521
I2845
sI10522
I2842
sI10525
I2839
sI10526
I2865
sI10527
I2869
sI10528
I2843
sI10529
I2844
sI10530
I2838
sI5731
I2448
sI10532
I2859
sI12678
I1896
sI2346
I1265
sI2347
I1257
sI2348
I1250
sI10541
I2856
sI2350
I1272
sI10543
I2852
sI10544
I2854
sI2353
I1256
sI2358
I1273
sI2359
I1275
sI2360
I1249
sI10559
I2851
sI2371
I1266
sI10564
I2853
sI10565
I2850
sI10566
I2866
sI10567
I2855
sI2377
I1263
sI2378
I1259
sI2379
I1268
sI2381
I1258
sI2383
I1261
sI352
I3200
sI12686
I1888
sI12400
I2963
sI12687
I1894
sI15418
I3676
sI12688
I1889
sI11323
I3560
sI12690
I1885
sI11325
I3552
sI12691
I1883
sI2422
I2189
sI2424
I2228
sI12692
I1882
sI12693
I1898
sI8389
I3372
sI12694
I1895
sI2439
I2183
sI2440
I2178
sI2442
I2191
sI12695
I1892
sI2445
I2229
sI2447
I2222
sI2450
I2185
sI2451
I2190
sI2452
I2188
sI2454
I2221
sI2456
I2225
sI15428
I3675
sI2463
I2223
sI2465
I2224
sI2467
I2180
sI2468
I2182
sI2469
I2215
sI2470
I2204
sI2471
I2181
sI2473
I2203
sI2475
I2211
sI11337
I3556
sI8812
I3451
sI10698
I767
sI10699
I769
sI10700
I784
sI10705
I785
sI10706
I797
sI8611
I1631
sI10708
I770
sI10709
I768
sI10713
I786
sI12843
I3631
sI8616
I1628
sI15443
I3690
sI8618
I1633
sI8620
I1627
sI14543
I3105
sI14083
I1996
sI8255
I1642
sI14085
I1993
sI10790
I1766
sI10795
I1779
sI10796
I1777
sI10797
I1756
sI10798
I1768
sI2607
I205
sI2608
I189
sI2609
I197
sI10804
I1778
sI10805
I1771
sI11271
I2873
sI8628
I1596
sI2622
I192
sI2623
I196
sI2625
I206
sI2626
I198
sI2627
I199
sI2628
I186
sI2629
I191
sI2631
I202
sI2632
I184
sI2633
I187
sI2634
I190
sI2635
I193
sI2636
I194
sI2638
I201
sI2639
I200
sI14094
I2000
sI2647
I185
sI2651
I195
sI2652
I188
sI2653
I203
sI2655
I204
sI2658
I207
sI8637
I1637
sI8638
I1599
sI8639
I1597
sI15365
I3704
sI10882
I2860
sI10883
I2861
sI10884
I2871
sI10886
I2863
sI2697
I1291
sI2698
I1283
sI2699
I1290
sI2700
I1297
sI2701
I1298
sI2714
I1284
sI2715
I1285
sI2716
I1281
sI2718
I1279
sI2719
I1299
sI2720
I1277
sI2721
I1287
sI2723
I1295
sI2724
I1276
sI2725
I1294
sI2727
I1289
sI2728
I1280
sI2729
I1300
sI2730
I1288
sI2731
I1296
sI2732
I1278
sI11378
I3541
sI2739
I1293
sI2743
I1282
sI2744
I1286
sI11380
I3540
sI2747
I1292
sI14199
I3143
sI8651
I2628
sI14113
I2046
sI11383
I3545
sI2790
I2241
sI2791
I2246
sI2792
I2242
sI2793
I2236
sI2806
I2240
sI2807
I2237
sI2810
I2251
sI2811
I2249
sI2812
I2245
sI2813
I2235
sI8277
I1598
sI2815
I2248
sI2816
I2230
sI2817
I2252
sI2818
I2247
sI2819
I2253
sI2820
I2250
sI2822
I2231
sI2823
I2239
sI2824
I2244
sI2831
I2243
sI2835
I2232
sI2836
I2234
sI14126
I2017
sI2838
I2233
sI14127
I2027
sI11041
I832
sI11043
I845
sI11044
I844
sI11047
I836
sI11048
I851
sI11049
I834
sI11050
I847
sI11051
I850
sI11053
I837
sI11054
I835
sI11055
I848
sI11056
I831
sI11057
I841
sI11058
I833
sI11059
I846
sI11060
I849
sI11061
I842
sI11062
I853
sI14132
I2019
sI11070
I821
sI11071
I818
sI11072
I815
sI11073
I819
sI14134
I2022
sI14135
I2020
sI11086
I811
sI11087
I801
sI14136
I2023
sI11090
I802
sI11091
I826
sI11092
I820
sI11093
I803
sI11095
I806
sI11096
I805
sI12772
I2974
sI11098
I827
sI11099
I807
sI11100
I808
sI11101
I817
sI11102
I809
sI11103
I828
sI11104
I810
sI11105
I816
sI11106
I804
sI11107
I829
sI11108
I812
sI12774
I2980
sI11111
I799
sI11115
I800
sI11116
I813
sI11117
I822
sI11118
I823
sI11119
I814
sI11133
I1824
sI11135
I1820
sI11136
I1835
sI11137
I1825
sI11139
I1815
sI11140
I1833
sI11141
I1834
sI11142
I1818
sI11143
I1832
sI11145
I1826
sI11146
I1831
sI11147
I1819
sI11148
I1814
sI11149
I1821
sI11150
I1823
sI11151
I1822
sI11153
I1829
sI11154
I1817
sI12782
I2979
sI11162
I1792
sI11164
I1813
sI12784
I2981
sI11178
I1799
sI11179
I1785
sI11182
I1793
sI11183
I1786
sI11184
I1809
sI11185
I1800
sI2994
I218
sI2995
I219
sI11188
I1791
sI11189
I1788
sI11190
I1787
sI11192
I1795
sI3001
I220
sI11194
I1796
sI11195
I1797
sI3004
I217
sI11197
I1802
sI11199
I1801
sI11200
I1803
sI11203
I1782
sI11207
I1783
sI11208
I1790
sI11210
I1807
sI11211
I1784
sI11221
I1812
sI11225
I2905
sI14159
I2041
sI11229
I2907
sI11231
I2918
sI11232
I2911
sI11234
I2909
sI11235
I2908
sI11236
I2902
sI11237
I2913
sI11238
I2921
sI11239
I2917
sI11240
I2904
sI11241
I2915
sI11242
I2912
sI11243
I2923
sI11244
I2910
sI8285
I2615
sI8701
I2715
sI11255
I2874
sI11256
I2889
sI11257
I2885
sI293
I3165
sI8703
I2702
sI8704
I2734
sI11270
I2875
sI4609
I2520
sI11274
I2879
sI11275
I2886
sI11276
I2884
sI11277
I2876
sI3086
I1311
sI3087
I1302
sI11280
I2883
sI11281
I2891
sI11282
I2887
sI8707
I2733
sI11284
I2899
sI3093
I1310
sI11286
I2880
sI3095
I1303
sI3096
I1304
sI8708
I2710
sI11290
I2903
sI11291
I2892
sI11292
I2897
sI11295
I2872
sI14171
I3084
sI11300
I2898
sI11301
I2882
sI11302
I2901
sI11303
I2890
sI649
I3206
sI8287
I2625
sI8711
I2713
sI8712
I2728
sI11317
I3549
sI11319
I3561
sI11320
I3559
sI11321
I3557
sI14175
I3087
sI11324
I3562
sI8714
I2717
sI11326
I3551
sI11327
I3555
sI11329
I3554
sI11330
I3553
sI11331
I3564
sI11332
I3547
sI11333
I3550
sI11335
I3548
sI11336
I3558
sI8716
I2714
sI11338
I3563
sI11289
I2893
sI11349
I3530
sI10471
I1753
sI11362
I3522
sI11363
I3518
sI11366
I3546
sI11367
I3524
sI11368
I3527
sI11369
I3521
sI3178
I2267
sI3179
I2269
sI11372
I3520
sI11373
I3526
sI11374
I3534
sI11375
I3525
sI11376
I3519
sI3185
I2265
sI3186
I2268
sI3187
I2266
sI3188
I2264
sI11382
I3536
sI14185
I3086
sI12820
I3611
sI11387
I3517
sI14186
I3091
sI11392
I3529
sI11393
I3532
sI11394
I3533
sI11395
I3531
sI8726
I2716
sI294
I3166
sI11411
I839
sI11412
I838
sI11413
I843
sI12825
I3612
sI14292
I3825
sI11421
I852
sI11422
I840
sI8731
I2677
sI6950
I3328
sI8733
I2722
sI12830
I3603
sI12831
I3607
sI654
I3217
sI11456
I825
sI12832
I3619
sI12111
I3584
sI11466
I830
sI11467
I824
sI3277
I2529
sI3288
I2524
sI12112
I3578
sI11503
I1828
sI11504
I1830
sI11505
I1827
sI11513
I1836
sI11514
I1816
sI14643
I3775
sI8294
I2618
sI8747
I3388
sI12844
I3633
sI11535
I1810
sI11537
I1811
sI14296
I3821
sI657
I3209
sI8751
I3385
sI11548
I1805
sI11550
I1806
sI11551
I1804
sI3360
I211
sI3362
I210
sI3363
I215
sI3369
I221
sI3370
I216
sI3371
I223
sI3372
I222
sI8754
I3389
sI3377
I209
sI3378
I214
sI3379
I212
sI3380
I213
sI10121
I2832
sI14219
I3118
sI14220
I3107
sI4663
I2394
sI11596
I2922
sI11597
I2924
sI12856
I3644
sI11605
I2916
sI11606
I2920
sI8297
I2614
sI12861
I3668
sI11640
I2896
sI11642
I2894
sI3452
I1307
sI3454
I1309
sI3455
I1312
sI12864
I3649
sI11650
I2895
sI3464
I1308
sI14231
I3116
sI3469
I1301
sI3470
I1313
sI3471
I1305
sI3472
I1306
sI12867
I3658
sI12868
I3655
sI12870
I3659
sI11687
I3568
sI11688
I3565
sI14236
I3110
sI12871
I3650
sI11695
I3570
sI11697
I3569
sI11698
I3566
sI12874
I3657
sI4683
I2348
sI12876
I3662
sI12877
I3663
sI11732
I3538
sI12878
I3651
sI11734
I3537
sI11735
I3535
sI3544
I2256
sI3546
I2262
sI3547
I2261
sI11742
I3543
sI11743
I3542
sI11744
I3539
sI3553
I2257
sI3555
I2260
sI3556
I2255
sI3561
I2254
sI3562
I2263
sI3563
I2259
sI3564
I2258
sI8787
I3492
sI14250
I3131
sI15395
I3681
sI14251
I3126
sI8790
I3501
sI8791
I3486
sI11802
I880
sI11803
I862
sI11806
I877
sI11807
I865
sI11808
I864
sI11812
I855
sI11813
I854
sI11814
I881
sI11815
I871
sI11816
I863
sI11817
I872
sI11818
I856
sI11819
I861
sI11820
I867
sI11821
I858
sI11827
I866
sI3638
I2527
sI3639
I2525
sI11834
I878
sI11835
I876
sI11836
I869
sI3646
I2528
sI14261
I3761
sI11841
I870
sI11842
I868
sI11844
I874
sI3654
I2526
sI11847
I904
sI3656
I2523
sI11850
I906
sI11851
I918
sI11853
I902
sI11854
I901
sI11855
I903
sI11856
I879
sI11857
I922
sI11858
I913
sI8803
I3483
sI11861
I910
sI11862
I908
sI11863
I907
sI11864
I914
sI8804
I3491
sI11867
I916
sI12354
I2933
sI14267
I3756
sI11886
I1853
sI11892
I1854
sI11894
I1846
sI11896
I1852
sI11898
I1841
sI3710
I234
sI3711
I232
sI3712
I225
sI3713
I245
sI11907
I1851
sI11909
I1850
sI11910
I1847
sI11911
I1856
sI11913
I1849
sI3726
I242
sI3727
I239
sI3728
I229
sI3730
I235
sI3731
I237
sI3732
I246
sI3733
I226
sI3736
I240
sI3737
I224
sI3738
I228
sI3739
I244
sI3740
I227
sI3741
I247
sI3742
I241
sI3743
I233
sI3744
I238
sI12127
I3636
sI14278
I3755
sI11942
I1875
sI11944
I1877
sI11945
I1864
sI11946
I1876
sI3755
I236
sI3756
I230
sI3758
I231
sI3759
I243
sI11956
I1878
sI11959
I1872
sI11966
I1858
sI8822
I3449
sI8823
I3450
sI11986
I2936
sI11987
I2946
sI3802
I1328
sI3803
I1331
sI3804
I1329
sI3805
I1330
sI11999
I2942
sI12000
I2940
sI12001
I2939
sI12002
I2932
sI12003
I2945
sI12005
I2941
sI3818
I1319
sI3819
I1315
sI12013
I2943
sI3822
I1326
sI3823
I1333
sI3824
I1338
sI3825
I1320
sI3826
I1337
sI3827
I1321
sI3828
I1318
sI3829
I1314
sI3830
I1327
sI3831
I1336
sI3832
I1334
sI3833
I1325
sI3834
I1316
sI3835
I1324
sI3836
I1322
sI12034
I2937
sI3843
I1317
sI12036
I2960
sI12037
I2966
sI12038
I2955
sI3847
I1335
sI3848
I1323
sI3849
I1332
sI3850
I1339
sI3851
I1340
sI12048
I2968
sI12049
I2965
sI12050
I2962
sI12051
I2964
sI645
I3219
sI647
I3210
sI12076
I3621
sI12078
I3594
sI12079
I3593
sI12080
I3589
sI648
I3215
sI12082
I3579
sI12083
I3583
sI12084
I3580
sI12085
I3582
sI3894
I2279
sI3895
I2284
sI3896
I2291
sI3897
I2286
sI12090
I3600
sI12091
I3597
sI12092
I3590
sI12094
I3573
sI12095
I3575
sI12096
I3592
sI12097
I3576
sI651
I3212
sI3910
I2287
sI3911
I2271
sI3914
I2289
sI3915
I2280
sI3916
I2275
sI3917
I2276
sI12110
I3577
sI3919
I2292
sI3920
I2278
sI3921
I2270
sI3922
I2282
sI3923
I2274
sI3924
I2272
sI3925
I2290
sI3926
I2281
sI3927
I2293
sI3928
I2277
sI655
I3220
sI12126
I3628
sI3935
I2288
sI12128
I3626
sI12129
I3637
sI12130
I3635
sI3939
I2294
sI3940
I2283
sI14310
I3767
sI3942
I2273
sI3943
I2285
sI14311
I3793
sI658
I3213
sI12142
I3642
sI12143
I3641
sI659
I3216
sI660
I3207
sI12680
I1891
sI662
I3208
sI14316
I3797
sI12170
I857
sI12171
I859
sI664
I3211
sI12181
I860
sI666
I3218
sI12192
I905
sI14320
I3805
sI12194
I875
sI14321
I3794
sI14322
I3792
sI14323
I3799
sI12215
I873
sI12217
I923
sI12218
I919
sI12220
I921
sI12225
I920
sI12226
I917
sI11595
I2919
sI8385
I3375
sI4049
I285
sI4051
I278
sI4052
I282
sI4053
I288
sI4055
I286
sI4056
I287
sI4057
I291
sI4058
I284
sI4059
I283
sI4061
I290
sI4062
I279
sI4063
I281
sI4064
I280
sI4065
I292
sI4066
I293
sI4067
I276
sI4068
I277
sI4069
I294
sI4070
I289
sI14332
I3808
sI14593
I3133
sI4078
I275
sI4079
I265
sI4080
I249
sI4081
I266
sI4089
I265
sI12684
I1900
sI12284
I1842
sI4094
I254
sI4095
I263
sI4096
I251
sI4098
I252
sI4099
I270
sI4100
I258
sI4101
I271
sI4103
I272
sI4104
I261
sI4105
I248
sI4106
I253
sI4107
I260
sI4108
I274
sI13939
I3735
sI4110
I273
sI4111
I257
sI4112
I256
sI4113
I250
sI4114
I264
sI4115
I267
sI4116
I269
sI4119
I259
sI4124
I255
sI4126
I262
sI4127
I268
sI14342
I3810
sI14595
I3135
sI14343
I3809
sI4141
I1367
sI4143
I1379
sI4144
I1375
sI4145
I1376
sI691
I3232
sI4148
I1373
sI4149
I1368
sI4150
I1374
sI4151
I1371
sI4153
I1377
sI4154
I1370
sI4155
I1378
sI4156
I1366
sI4157
I1365
sI4158
I1369
sI4159
I1364
sI4160
I1372
sI4161
I1380
sI4162
I1381
sI14347
I3815
sI12356
I2947
sI4170
I1358
sI4171
I1363
sI696
I3226
sI12376
I2935
sI4186
I1356
sI4187
I1361
sI4188
I1342
sI698
I3236
sI4190
I1349
sI4191
I1353
sI4192
I1350
sI699
I3227
sI4196
I1352
sI4197
I1341
sI4198
I1357
sI4199
I1354
sI4200
I1359
sI700
I3221
sI4202
I1348
sI4204
I1355
sI4205
I1345
sI4206
I1346
sI4207
I1347
sI4208
I1344
sI4211
I1351
sI702
I3225
sI15416
I3678
sI4216
I1362
sI4217
I1343
sI4218
I1360
sI703
I3233
sI704
I3224
sI4233
I2323
sI4235
I2328
sI4236
I2338
sI4237
I2333
sI4239
I2329
sI4240
I2330
sI4241
I2335
sI4242
I2339
sI4243
I2327
sI4245
I2336
sI4246
I2326
sI4247
I2331
sI4248
I2322
sI4249
I2325
sI4250
I2324
sI4251
I2321
sI4252
I2337
sI4253
I2334
sI4254
I2332
sI12447
I3596
sI12448
I3599
sI710
I3237
sI4262
I2312
sI4264
I2317
sI12457
I3598
sI4278
I2305
sI4279
I2320
sI4280
I2310
sI4282
I2302
sI4283
I2296
sI4284
I2297
sI4285
I2303
sI4288
I2300
sI4289
I2295
sI4290
I2309
sI4291
I2316
sI4292
I2301
sI4294
I2298
sI4295
I2318
sI4296
I2315
sI4297
I2307
sI4298
I2299
sI4299
I2306
sI4300
I2313
sI12493
I3640
sI4303
I2304
sI15419
I3701
sI12498
I3648
sI12499
I3647
sI4308
I2319
sI4309
I2311
sI4310
I2314
sI4311
I2308
sI720
I3240
sI708
I3234
sI722
I3238
sI723
I3235
sI690
I3228
sI12538
I887
sI12540
I889
sI12543
I890
sI12544
I891
sI12545
I900
sI12546
I899
sI12548
I883
sI12549
I882
sI12550
I892
sI12551
I896
sI12553
I888
sI12554
I884
sI12555
I898
sI12556
I893
sI12557
I885
sI12559
I915
sI12564
I909
sI12565
I911
sI12568
I912
sI6147
I2540
sI12582
I932
sI12584
I926
sI12585
I929
sI12588
I930
sI6194
I3315
sI12590
I924
sI12595
I925
sI12596
I933
sI12597
I927
sI12598
I934
sI12599
I928
sI12600
I935
sI12601
I936
sI12602
I931
sI6197
I3314
sI4417
I387
sI4419
I392
sI4420
I381
sI4421
I383
sI4423
I393
sI4424
I386
sI4425
I389
sI4426
I388
sI4427
I394
sI4429
I382
sI4430
I385
sI4431
I395
sI4432
I384
sI4433
I391
sI4434
I396
sI4436
I390
sI4437
I398
sI12630
I1861
sI4440
I353
sI4442
I340
sI4443
I359
sI4444
I339
sI4446
I356
sI4447
I345
sI4448
I346
sI4449
I350
sI4450
I357
sI4452
I354
sI4453
I338
sI4454
I355
sI12647
I1862
sI4456
I358
sI4457
I352
sI4458
I349
sI4459
I341
sI4467
I351
sI12660
I1865
sI12662
I1868
sI4471
I397
sI12664
I1871
sI12667
I1866
sI12674
I1897
sI12676
I1890
sI4485
I317
sI4486
I296
sI4488
I302
sI4489
I305
sI4490
I303
sI4492
I306
sI4493
I295
sI4494
I297
sI4495
I310
sI4496
I304
sI12689
I1884
sI4498
I313
sI4499
I301
sI4500
I312
sI4501
I299
sI4502
I307
sI4503
I298
sI4504
I311
sI4505
I308
sI4506
I309
sI4507
I300
sI4508
I1451
sI4509
I1452
sI4510
I1449
sI4511
I1441
sI4512
I1435
sI4513
I1448
sI4516
I1446
sI4517
I1442
sI4518
I1437
sI4521
I1436
sI4522
I1440
sI4523
I1439
sI4524
I1438
sI4525
I1450
sI4526
I1444
sI4527
I1445
sI4528
I1454
sI4530
I1447
sI12724
I2951
sI4534
I1414
sI6217
I3280
sI4536
I1417
sI12729
I2948
sI12730
I2952
sI4542
I1416
sI4544
I1415
sI12739
I2950
sI12741
I2949
sI12743
I2961
sI12748
I2967
sI12749
I2957
sI12750
I2970
sI12752
I2956
sI8952
I1688
sI4563
I1443
sI12758
I2958
sI12759
I2959
sI15780
I3692
sI8954
I1694
sI12766
I2983
sI12768
I2975
sI4578
I1383
sI4579
I1453
sI4580
I1393
sI4582
I1396
sI4584
I1390
sI4585
I1382
sI4586
I1391
sI4587
I1386
sI4588
I1397
sI12781
I2976
sI4590
I1392
sI12783
I2977
sI4592
I1389
sI4593
I1388
sI4594
I1384
sI4595
I1387
sI4596
I1394
sI4597
I1395
sI4598
I1385
sI4599
I1398
sI4601
I2519
sI4603
I2516
sI4604
I2522
sI4605
I2515
sI4607
I2510
sI4608
I2521
sI8960
I1681
sI4610
I2508
sI4611
I2514
sI4613
I2513
sI4614
I2512
sI4615
I2517
sI4616
I2507
sI4617
I2511
sI4618
I2518
sI4619
I2509
sI8962
I1684
sI12814
I3614
sI12816
I3617
sI4626
I2457
sI4627
I2456
sI4628
I2452
sI12821
I3609
sI4630
I2379
sI12824
I3601
sI4633
I2453
sI4634
I2458
sI4636
I2468
sI4637
I2454
sI4638
I2455
sI8965
I1693
sI4640
I2360
sI12833
I3606
sI6235
I3272
sI8966
I1685
sI4647
I2387
sI12840
I3632
sI12841
I3630
sI12842
I3643
sI8967
I1689
sI4652
I2382
sI4653
I2389
sI4655
I2380
sI4656
I2381
sI4657
I2396
sI4658
I2392
sI4659
I2388
sI12852
I3645
sI6238
I3267
sI4662
I2386
sI8969
I1683
sI4664
I2391
sI12858
I3652
sI12860
I3654
sI8970
I1664
sI4670
I2359
sI4672
I2349
sI12865
I3661
sI4674
I2351
sI8971
I1678
sI4676
I2346
sI4677
I2342
sI4678
I2345
sI4679
I2340
sI4680
I2347
sI12873
I3656
sI4682
I2350
sI8612
I1634
sI4684
I2363
sI4685
I2344
sI4686
I2343
sI4687
I2341
sI4688
I2352
sI4689
I2358
sI4690
I2357
sI4691
I2353
sI6196
I3279
sI12906
I886
sI12907
I894
sI12908
I897
sI4718
I2487
sI4719
I2482
sI4720
I2479
sI4722
I2480
sI4723
I2486
sI4724
I2485
sI4729
I2477
sI4731
I2481
sI4732
I2478
sI12925
I895
sI6253
I3291
sI12952
I937
sI12963
I938
sI14449
I2013
sI4785
I368
sI4787
I365
sI4788
I362
sI4789
I364
sI4791
I372
sI4792
I373
sI4793
I370
sI4794
I380
sI4795
I377
sI4797
I363
sI4798
I367
sI4799
I379
sI4800
I369
sI4801
I378
sI4802
I371
sI4803
I366
sI4804
I374
sI4805
I376
sI4806
I375
sI4808
I360
sI4810
I343
sI4811
I347
sI4815
I361
sI4820
I344
sI4821
I342
sI4823
I348
sI14458
I2002
sI4836
I318
sI14544
I3103
sI14461
I2005
sI14346
I3807
sI13044
I1880
sI13045
I1899
sI13046
I1887
sI4856
I316
sI4857
I320
sI4858
I319
sI14463
I2009
sI13054
I1893
sI13055
I1881
sI6163
I2535
sI4866
I315
sI4867
I314
sI4877
I1420
sI4878
I1434
sI4879
I1425
sI4880
I1418
sI4881
I1419
sI4884
I1422
sI4885
I1431
sI4886
I1433
sI4887
I1430
sI4889
I1426
sI4891
I1428
sI4892
I1421
sI4893
I1424
sI4894
I1427
sI4895
I1423
sI4896
I1432
sI13091
I2953
sI14470
I2057
sI4917
I1429
sI13138
I2982
sI4969
I2503
sI4971
I2499
sI4972
I2492
sI4973
I2496
sI4975
I2501
sI4977
I2494
sI4978
I2495
sI4979
I2505
sI4981
I2500
sI4982
I2498
sI4983
I2502
sI4984
I2488
sI4985
I2497
sI4986
I2493
sI4987
I2490
sI4988
I2489
sI4989
I2491
sI4990
I2504
sI13183
I3613
sI4994
I2462
sI4995
I2466
sI13189
I3622
sI13191
I3624
sI5000
I2467
sI13193
I3605
sI5002
I2463
sI5004
I2459
sI5005
I2451
sI5008
I2469
sI5010
I2465
sI5011
I2464
sI5012
I2461
sI5013
I2460
sI5014
I2366
sI5016
I2365
sI5017
I2506
sI5018
I2400
sI5020
I2393
sI5021
I2372
sI5023
I2374
sI5024
I2367
sI5027
I2399
sI5028
I2377
sI10533
I2858
sI5030
I2395
sI5032
I2371
sI13229
I3669
sI5040
I2354
sI5041
I2356
sI13238
I3665
sI13239
I3666
sI13242
I3670
sI14495
I2066
sI13249
I1012
sI13251
I1009
sI13252
I1015
sI13253
I1010
sI13255
I1013
sI13256
I1021
sI13258
I1016
sI13261
I1014
sI13262
I1019
sI13263
I1011
sI13264
I1018
sI13265
I1017
sI13266
I1020
sI13267
I1023
sI13268
I1022
sI13278
I998
sI13279
I1001
sI13280
I999
sI13281
I1000
sI5092
I2476
sI5096
I2471
sI5097
I2470
sI14503
I2065
sI13294
I992
sI13295
I980
sI13296
I978
sI5105
I2484
sI13298
I1002
sI13299
I979
sI13300
I991
sI13301
I993
sI13302
I985
sI13303
I989
sI13304
I990
sI13305
I983
sI13306
I1006
sI13307
I994
sI13308
I996
sI13310
I1004
sI13311
I987
sI13312
I1005
sI13313
I1008
sI13314
I1007
sI13316
I997
sI9046
I2778
sI13318
I1027
sI13319
I982
sI13321
I1033
sI13322
I1024
sI13323
I1003
sI13324
I986
sI13325
I984
sI13326
I981
sI13327
I1030
sI13328
I1032
sI13329
I1025
sI13330
I988
sI13331
I1028
sI13336
I1034
sI13337
I1029
sI13338
I995
sI13339
I1026
sI13341
I1950
sI13343
I1937
sI13344
I1947
sI13345
I1949
sI13347
I1946
sI13348
I1954
sI13349
I1955
sI13350
I1951
sI13351
I1943
sI13353
I1952
sI13354
I1942
sI13355
I1945
sI13356
I1953
sI13357
I1941
sI13358
I1940
sI13359
I1938
sI13360
I1939
sI13361
I1948
sI13362
I1944
sI14515
I2015
sI5178
I322
sI5179
I334
sI5180
I332
sI13373
I1933
sI5182
I333
sI5183
I327
sI5184
I328
sI5186
I331
sI5189
I321
sI5190
I330
sI9057
I2772
sI5192
I335
sI5194
I336
sI5195
I323
sI13388
I1909
sI13390
I1914
sI13391
I1928
sI13392
I1926
sI13393
I1916
sI13395
I1917
sI13396
I1931
sI13398
I1923
sI13399
I1921
sI13400
I1915
sI13401
I1911
sI13402
I1924
sI13403
I1912
sI13404
I1913
sI13406
I1919
sI13407
I1936
sI13408
I1920
sI13411
I1925
sI9062
I2768
sI13414
I1956
sI13416
I1927
sI13417
I1918
sI13419
I1929
sI13421
I1958
sI13423
I1957
sI10430
I1749
sI13430
I1932
sI13433
I3054
sI13435
I3041
sI13436
I3055
sI13437
I3051
sI11928
I1839
sI13439
I3048
sI13440
I3058
sI13441
I3053
sI13442
I3049
sI13443
I3057
sI13445
I3042
sI13446
I3052
sI13447
I3047
sI13448
I3045
sI13449
I3050
sI13450
I3046
sI13451
I3043
sI13452
I3056
sI2242
I2213
sI14087
I1998
sI5270
I1399
sI13463
I3030
sI13464
I3024
sI13465
I3022
sI5274
I1408
sI14633
I3782
sI5279
I1413
sI5280
I1401
sI5281
I1407
sI5282
I1403
sI5283
I1402
sI5286
I1400
sI5287
I1406
sI5086
I2473
sI5289
I1404
sI13482
I3018
sI13484
I3035
sI13485
I3015
sI13487
I3016
sI13488
I3019
sI13489
I3038
sI13490
I3020
sI13491
I3039
sI13492
I3012
sI13493
I3032
sI13494
I3013
sI13495
I3026
sI13496
I3014
sI13497
I3037
sI13498
I3033
sI13499
I3023
sI13500
I3025
sI13503
I3034
sI13506
I3059
sI13507
I3017
sI13508
I3028
sI13509
I3031
sI5087
I2483
sI13511
I3029
sI13513
I3062
sI13514
I3061
sI13520
I3060
sI5337
I2427
sI5339
I2407
sI5340
I2428
sI5341
I2404
sI10448
I1760
sI5347
I2403
sI5349
I2425
sI5350
I2402
sI5351
I2405
sI5352
I2406
sI5353
I2401
sI5354
I2408
sI5355
I2431
sI5356
I2424
sI5357
I2410
sI5358
I2409
sI5362
I2435
sI5363
I2440
sI5364
I2434
sI13182
I3604
sI5366
I2447
sI5367
I2443
sI5368
I2438
sI10452
I1747
sI5370
I2439
sI5372
I2446
sI5373
I2433
sI14549
I3096
sI5381
I2449
sI14091
I1990
sI13186
I3623
sI13187
I3610
sI7726
I3493
sI14337
I3816
sI14553
I3098
sI14554
I3104
sI5407
I2383
sI5410
I2384
sI14275
I3762
sI5416
I2385
sI5424
I2378
sI5425
I2373
sI5426
I2398
sI5427
I2376
sI14639
I3778
sI14562
I3153
sI13646
I1057
sI13647
I1058
sI13648
I1060
sI13649
I1059
sI13662
I1043
sI13663
I1037
sI13666
I1054
sI13667
I1056
sI13668
I1042
sI13669
I1044
sI13671
I1061
sI13672
I1039
sI13673
I1053
sI13674
I1051
sI13675
I1052
sI13676
I1055
sI13677
I1050
sI13678
I1040
sI13679
I1038
sI13680
I1041
sI13687
I1045
sI13690
I1047
sI13691
I1036
sI13692
I1046
sI13693
I1049
sI13694
I1035
sI13695
I1048
sI5546
I337
sI5547
I329
sI5548
I325
sI5556
I326
sI5557
I324
sI13754
I1966
sI13755
I1962
sI13756
I1985
sI13758
I1983
sI13759
I1980
sI13760
I1970
sI13761
I1968
sI13762
I1969
sI13763
I1971
sI13764
I1967
sI13765
I1977
sI13766
I1974
sI13767
I1961
sI13768
I1975
sI13769
I1973
sI13770
I1960
sI13771
I1964
sI13772
I1984
sI13775
I1981
sI13776
I1979
sI13784
I1963
sI13785
I1976
sI13786
I1959
sI13787
I1965
sI14586
I3134
sI13790
I1982
sI15735
I3714
sI11371
I3523
sI692
I3230
sI14645
I3773
sI5638
I1411
sI5639
I1412
sI5640
I1405
sI13833
I3074
sI5649
I1409
sI5651
I1410
sI13846
I3065
sI13847
I3078
sI13848
I3080
sI13851
I3071
sI13852
I3079
sI13853
I3081
sI13856
I3067
sI13857
I3076
sI13858
I3068
sI13860
I3069
sI13861
I3070
sI13862
I3066
sI13863
I3073
sI13864
I3077
sI13878
I3063
sI13879
I3064
sI11919
I1840
sI9464
I2759
sI8373
I3374
sI5705
I2417
sI5707
I2411
sI5708
I2415
sI5709
I2420
sI5711
I2422
sI5712
I2421
sI5713
I2423
sI5714
I2414
sI5715
I2418
sI5717
I2416
sI5718
I2413
sI5720
I2412
sI5721
I2429
sI5722
I2419
sI9465
I2767
sI5730
I2437
sI5051
I2355
sI13924
I3751
sI13925
I3742
sI15425
I3683
sI5103
I2474
sI5741
I2432
sI5745
I2450
sI5746
I2436
sI5747
I2442
sI5748
I2444
sI5749
I2441
sI13942
I3741
sI13943
I3743
sI5752
I2368
sI13945
I3730
sI13947
I3752
sI13948
I3725
sI13949
I3737
sI13950
I3732
sI13951
I3738
sI13952
I3736
sI13953
I3747
sI13954
I3733
sI13955
I3744
sI13956
I3734
sI13958
I3749
sI13960
I3750
sI5102
I2472
sI13963
I3746
sI11377
I3544
sI13966
I3729
sI5775
I2370
sI13968
I3739
sI14616
I3111
sI13970
I3723
sI5779
I2375
sI5780
I2364
sI5782
I2369
sI5783
I2397
sI5787
I2390
sI13985
I1067
sI8649
I2635
sI13987
I1066
sI13988
I1073
sI13989
I1065
sI13991
I1074
sI13992
I1068
sI13993
I1063
sI13994
I1069
sI13995
I1076
sI13997
I1072
sI13998
I1075
sI13999
I1064
sI14000
I1062
sI14001
I1070
sI14002
I1071
sI14010
I1123
sI14011
I1128
sI14012
I1126
sI14014
I1125
sI14015
I1131
sI14018
I1127
sI14020
I1132
sI14021
I1124
sI14022
I1130
sI14025
I1129
sI14030
I1098
sI14031
I1090
sI14032
I1100
sI14035
I1103
sI14036
I1095
sI14037
I1096
sI14039
I1097
sI14040
I1094
sI14041
I1105
sI14042
I1108
sI14043
I1104
sI14044
I1119
sI14045
I1099
sI14046
I1112
sI14047
I1102
sI14048
I1101
sI11379
I3528
sI14052
I1091
sI14054
I1117
sI14056
I1120
sI14057
I1122
sI14063
I1106
sI14065
I1113
sI14066
I1118
sI14068
I1121
sI14069
I1116
sI14070
I1114
sI14071
I1115
sI14077
I1999
sI14080
I2001
sI14081
I1989
sI5891
I499
sI14084
I1992
sI5893
I501
sI14086
I1995
sI11905
I1837
sI14089
I1997
sI14090
I1987
sI5899
I503
sI14092
I1988
sI14093
I1991
sI5902
I500
sI14637
I3783
sI5905
I502
sI14100
I2048
sI10542
I2857
sI14102
I2043
sI14103
I2053
sI14104
I2052
sI14106
I2051
sI14107
I2047
sI14108
I2050
sI14109
I2049
sI5918
I450
sI5919
I451
sI14112
I2045
sI5921
I449
sI14114
I2055
sI14115
I2044
sI14116
I2056
sI14641
I3781
sI14123
I2016
sI14125
I2039
sI5934
I404
sI5935
I409
sI14128
I2032
sI14129
I2025
sI5939
I427
sI5940
I403
sI5941
I407
sI5942
I405
sI5943
I414
sI5944
I399
sI5945
I420
sI5946
I410
sI14139
I2026
sI5948
I421
sI5949
I417
sI5950
I412
sI5951
I400
sI5952
I411
sI5953
I425
sI5954
I426
sI5956
I429
sI14646
I3772
sI5959
I416
sI5960
I406
sI5962
I401
sI14155
I2030
sI5964
I402
sI5965
I415
sI14158
I2031
sI5967
I413
sI14160
I2034
sI14161
I2036
sI14162
I2033
sI14163
I2035
sI14164
I2042
sI5976
I430
sI5977
I419
sI5978
I418
sI5979
I408
sI14172
I3094
sI14173
I3085
sI5983
I1532
sI14177
I3088
sI14178
I3095
sI14179
I3090
sI14181
I3082
sI14182
I3083
sI14183
I3092
sI14184
I3089
sI5993
I1533
sI5994
I1534
sI14194
I3137
sI14196
I3138
sI14654
I3833
sI6007
I1484
sI14201
I3139
sI14202
I3146
sI6011
I1485
sI14204
I3141
sI14205
I3144
sI14206
I3145
sI14207
I3142
sI14209
I3140
sI6026
I1457
sI6027
I1459
sI6028
I1471
sI14221
I3112
sI14223
I3117
sI14224
I3120
sI6033
I1458
sI10563
I2847
sI6036
I1455
sI6037
I1465
sI6038
I1467
sI6039
I1482
sI6042
I1460
sI6043
I1456
sI6044
I1486
sI6045
I1469
sI14238
I3132
sI14242
I3127
sI6051
I1468
sI14244
I3124
sI14245
I3129
sI14247
I3128
sI6057
I1462
sI6058
I1466
sI6059
I1463
sI14252
I3122
sI14253
I3125
sI14254
I3121
sI6063
I1461
sI6068
I1470
sI6069
I1464
sI14263
I3753
sI14264
I3765
sI14265
I3764
sI6075
I2609
sI14268
I3759
sI6077
I2612
sI14270
I3760
sI14271
I3766
sI11936
I1838
sI14274
I3754
sI6083
I2611
sI14276
I3757
sI14277
I3758
sI6086
I2610
sI14286
I3820
sI14287
I3827
sI14288
I3830
sI14290
I3828
sI14291
I3822
sI11279
I2888
sI14293
I3824
sI14294
I3831
sI6104
I2546
sI14297
I3823
sI14298
I3826
sI14300
I3832
sI14301
I3829
sI11933
I1844
sI14306
I3796
sI14307
I3790
sI14308
I3802
sI6118
I2532
sI6119
I2534
sI14312
I3789
sI14313
I3788
sI14315
I3795
sI6124
I2537
sI6125
I2538
sI14318
I3800
sI14319
I3803
sI6128
I2530
sI6129
I2541
sI6130
I2545
sI6131
I2539
sI14324
I3801
sI6134
I2536
sI6135
I2548
sI6136
I2544
sI14330
I3814
sI10570
I2848
sI14333
I3818
sI6143
I2533
sI14336
I3813
sI6145
I2543
sI6146
I2547
sI11947
I1874
sI6148
I2531
sI14678
I3840
sI6150
I2550
sI6151
I2542
sI14344
I3812
sI14345
I3811
sI6154
I2551
sI6155
I2552
sI14353
I1081
sI6162
I2549
sI14355
I1085
sI14356
I1088
sI14359
I1080
sI14360
I1084
sI14365
I1082
sI14366
I1078
sI14368
I1077
sI14369
I1083
sI14370
I1079
sI14371
I1086
sI14378
I1133
sI14381
I1111
sI14382
I1137
sI14383
I1134
sI14384
I1136
sI14386
I1135
sI6195
I3289
sI14388
I1140
sI14389
I1138
sI14395
I1139
sI8390
I3371
sI14688
I3842
sI14402
I1142
sI14403
I1143
sI6212
I3286
sI6214
I3296
sI6215
I3292
sI14409
I1141
sI6218
I3264
sI14411
I1144
sI6220
I3262
sI6221
I3293
sI6224
I3297
sI6227
I3275
sI6228
I3277
sI6229
I3290
sI14423
I1089
sI6232
I3294
sI14426
I1109
sI14427
I1110
sI14428
I1092
sI14429
I1107
sI14430
I1093
sI6240
I3266
sI6241
I3278
sI6242
I3268
sI6243
I3281
sI6245
I3284
sI6246
I3273
sI6247
I3270
sI6248
I3271
sI6249
I3265
sI6251
I3298
sI6252
I3282
sI14445
I2004
sI6254
I3269
sI6255
I3283
sI14448
I2012
sI6257
I494
sI6259
I480
sI6260
I496
sI6261
I482
sI14454
I2010
sI6263
I484
sI6264
I486
sI6265
I490
sI6266
I485
sI6267
I491
sI14460
I2007
sI6269
I495
sI6270
I481
sI6271
I498
sI6272
I489
sI6273
I488
sI6274
I487
sI6275
I483
sI6276
I492
sI6277
I497
sI6278
I493
sI14471
I2062
sI14472
I2060
sI14474
I2059
sI14475
I2063
sI14476
I2061
sI14480
I2058
sI6302
I436
sI6303
I438
sI6304
I423
sI14497
I2003
sI6211
I3276
sI6307
I428
sI6308
I435
sI14501
I2064
sI6310
I437
sI6311
I442
sI6312
I431
sI6315
I424
sI6316
I422
sI6318
I433
sI6319
I432
sI6320
I439
sI6323
I448
sI14518
I2024
sI6327
I444
sI14521
I2028
sI14522
I2029
sI6331
I445
sI6332
I434
sI6333
I443
sI6334
I440
sI6335
I441
sI6339
I446
sI14537
I3097
sI14539
I3101
sI14540
I3100
sI6349
I1528
sI6351
I1518
sI6352
I1531
sI6355
I1522
sI6356
I1524
sI6357
I1520
sI14550
I3099
sI14552
I3102
sI6361
I1527
sI6362
I1525
sI6363
I1530
sI6364
I1523
sI6365
I1526
sI12829
I3616
sI6367
I1529
sI6369
I1519
sI6370
I1521
sI14563
I3151
sI14566
I3150
sI14567
I3154
sI14568
I3148
sI14569
I3149
sI14573
I3147
sI14579
I3152
sI292
I3161
sI6394
I1480
sI6395
I1479
sI6401
I1483
sI6402
I1477
sI6403
I1476
sI6404
I1472
sI6407
I1481
sI14601
I3136
sI6411
I1478
sI14605
I3108
sI14606
I3115
sI14607
I3106
sI6417
I1475
sI14610
I3109
sI6419
I1473
sI14613
I3119
sI14614
I3114
sI14615
I3113
sI6424
I1474
sI14629
I3771
sI14631
I3770
sI14632
I3774
sI6441
I2605
sI6443
I2591
sI6444
I2607
sI6445
I2596
sI6447
I2593
sI6448
I2598
sI6449
I2602
sI6450
I2608
sI6451
I2604
sI14644
I3776
sI6453
I2594
sI6454
I2599
sI6455
I2595
sI6456
I2601
sI6458
I2592
sI6459
I2597
sI6460
I2603
sI6461
I2600
sI6462
I2606
sI14655
I3838
sI14656
I3835
sI14658
I3837
sI14665
I3836
sI14667
I3834
sI14676
I3844
sI15426
I3672
sI6486
I2558
sI14679
I3843
sI14681
I3819
sI6492
I2559
sI13370
I1930
sI14686
I3845
sI14687
I3841
sI6496
I2553
sI13371
I1934
sI13372
I1935
sI14699
I3786
sI6546
I3351
sI14702
I3806
sI14705
I3791
sI14706
I3798
sI6515
I2555
sI6516
I2554
sI6519
I2556
sI6523
I3285
sI12011
I2925
sI6533
I3360
sI6536
I3357
sI6537
I3356
sI6539
I3363
sI6540
I3365
sI6541
I3364
sI6542
I3368
sI6543
I3358
sI6545
I3361
sI6219
I3288
sI6547
I3362
sI6548
I3355
sI6549
I3354
sI6550
I3353
sI6551
I3349
sI6552
I3352
sI6553
I3359
sI12016
I2938
sI6562
I3287
sI6564
I3316
sI6565
I3312
sI12646
I1860
sI12017
I2944
sI12018
I2927
sI12019
I2928
sI6493
I2557
sI12020
I2926
sI6586
I3300
sI6587
I3310
sI13386
I1922
sI14786
I1145
sI14787
I1146
sI6596
I3308
sI6603
I3303
sI6605
I3299
sI6608
I3305
sI6609
I3302
sI6610
I3311
sI6611
I3304
sI12025
I2930
sI12026
I2931
sI8391
I3383
sI12028
I2934
sI14133
I2021
sI6674
I461
sI6675
I462
sI14871
I2070
sI6681
I465
sI6682
I463
sI14875
I2072
sI6684
I464
sI14877
I2068
sI14878
I2067
sI14879
I2071
sI14880
I2069
sI12039
I2971
sI6579
I3306
sI12042
I2969
sI12043
I2954
sI6582
I3313
sI14955
I3159
sI6766
I1502
sI6767
I1495
sI6771
I1500
sI6772
I1497
sI6773
I1501
sI6774
I1499
sI6775
I1498
sI6776
I1496
sI14970
I3155
sI14971
I3156
sI6594
I3309
sI6595
I3307
sI6210
I3263
sI9047
I2786
sI8956
I1692
sI14339
I3817
sI12866
I3667
sI14685
I3839
sI13739
I1986
sI6858
I2569
sI6859
I2572
sI15055
I3849
sI6865
I2573
sI6866
I2571
sI6868
I2570
sI15062
I3846
sI15063
I3848
sI15064
I3847
sI8958
I1690
sI15089
I962
sI15091
I974
sI15095
I963
sI15096
I967
sI15098
I965
sI15102
I975
sI15103
I972
sI15104
I973
sI15105
I976
sI15106
I961
sI15107
I966
sI15108
I968
sI15109
I977
sI15110
I964
sI6615
I3301
sI15134
I949
sI15135
I942
sI15136
I946
sI15138
I954
sI15139
I943
sI15140
I940
sI15141
I948
sI15142
I947
sI15143
I955
sI15144
I939
sI15145
I953
sI15146
I956
sI15147
I957
sI15148
I950
sI6957
I3330
sI15150
I941
sI15151
I958
sI15152
I951
sI15154
I944
sI15155
I960
sI15156
I945
sI12818
I3618
sI9048
I2783
sI15165
I952
sI14144
I2018
sI11689
I3567
sI12086
I3585
sI13453
I3044
sI12088
I3588
sI12089
I3595
sI15193
I1907
sI15195
I1908
sI15198
I1905
sI15201
I1906
sI9363
I1674
sI14146
I2038
sI7040
I453
sI15233
I1904
sI7042
I458
sI7043
I454
sI15236
I1901
sI13462
I3021
sI15239
I1903
sI7050
I457
sI15243
I1902
sI7052
I459
sI7057
I452
sI7058
I455
sI7059
I460
sI7060
I456
sI6237
I3274
sI15279
I3009
sI15280
I3001
sI15281
I3003
sI15282
I3008
sI15286
I3002
sI15288
I3004
sI15289
I3010
sI15290
I3000
sI9375
I1670
sI15292
I3007
sI15294
I3006
sI8667
I2640
sI12109
I3586
sI15318
I2987
sI15319
I2993
sI15320
I2985
sI15322
I2990
sI15323
I2988
sI7132
I1493
sI15325
I2991
sI15326
I2986
sI7135
I1491
sI15328
I2984
sI15329
I2996
sI15330
I2999
sI7141
I1492
sI15334
I2992
sI7143
I1494
sI15338
I2994
sI13479
I3027
sI7149
I1487
sI7150
I1489
sI7151
I1490
sI7152
I1488
sI13480
I3011
sI15351
I2989
sI12116
I3574
sI12118
I3602
sI15367
I3717
sI15368
I3708
sI15369
I3716
sI15371
I3711
sI15372
I3710
sI15373
I3720
sI15374
I3703
sI15377
I3706
sI15378
I3719
sI15379
I3718
sI15380
I3707
sI15381
I3705
sI15382
I3702
sI15383
I3709
sI15384
I3713
sI15386
I3712
sI15394
I3686
sI12123
I3629
sI15396
I3684
sI15397
I3695
sI15411
I3673
sI15414
I3680
sI15415
I3685
sI7224
I2561
sI15417
I3679
sI7226
I2562
sI7227
I2565
sI15420
I3671
sI15421
I3697
sI15422
I3682
sI15423
I3687
sI15424
I3688
sI7333
I3317
sI7234
I2567
sI15427
I3674
sI7236
I2566
sI15429
I3700
sI15430
I3696
sI15431
I3694
sI15432
I3691
sI7241
I2560
sI7242
I2568
sI15435
I3689
sI7244
I2564
sI8034
I3434
sI15440
I3677
sI15441
I3698
sI12131
I3627
sI15451
I3699
sI8037
I3504
sI15459
I969
sI15460
I971
sI14154
I2040
sI15470
I970
sI11287
I2878
sI12141
I3638
sI7316
I3325
sI7318
I3324
sI7319
I3319
sI7325
I3327
sI7326
I3322
sI7327
I3321
sI7328
I3320
sI13510
I3040
sI7334
I3323
sI7335
I3326
sI7336
I3318
sI7368
I571
sI7384
I561
sI7386
I554
sI7387
I557
sI7388
I559
sI7390
I551
sI7391
I556
sI7392
I563
sI7394
I558
sI7396
I555
sI7397
I553
sI7398
I562
sI7399
I569
sI7401
I568
sI7405
I560
sI7410
I474
sI7411
I476
sI7417
I472
sI7418
I478
sI7419
I473
sI7420
I475
sI7431
I600
sI7435
I625
sI7436
I595
sI7437
I596
sI7438
I597
sI7439
I598
sI7448
I613
sI7449
I612
sI7450
I611
sI7451
I624
sI10800
I1776
sI10801
I1767
sI7478
I1576
sI7482
I1575
sI7483
I1580
sI7484
I1579
sI7485
I1582
sI7486
I1581
sI7488
I1584
sI7489
I1578
sI7494
I1577
sI5345
I2426
sI14707
I3787
sI7502
I1510
sI7503
I1505
sI7509
I1509
sI7510
I1507
sI7511
I1508
sI7512
I1506
sI7523
I1603
sI7527
I1615
sI7528
I1602
sI7529
I1604
sI7530
I1608
sI7531
I1613
sI7534
I1610
sI7540
I1620
sI7541
I1639
sI7543
I1621
sI15746
I3715
sI7570
I2665
sI9455
I2749
sI7581
I2664
sI7583
I2670
sI7586
I2669
sI7587
I2666
sI7588
I2667
sI7589
I2671
sI15782
I3693
sI7594
I2583
sI7595
I2582
sI7601
I2588
sI7602
I2585
sI7604
I2581
sI7611
I2586
sI7619
I2724
sI7620
I2694
sI7621
I2723
sI7623
I2706
sI7626
I2698
sI7632
I2701
sI7633
I2730
sI7634
I2725
sI7635
I2735
sI5369
I2445
sI9466
I2760
sI8438
I3494
sI7659
I3443
sI7662
I3423
sI7663
I3428
sI7664
I3424
sI7668
I3426
sI7669
I3441
sI7670
I3425
sI7672
I3427
sI7673
I3440
sI7676
I3429
sI7677
I3442
sI7678
I3437
sI14642
I3780
sI7681
I3439
sI7686
I3344
sI7694
I3346
sI7696
I3345
sI7707
I3515
sI7712
I3468
sI7714
I3473
sI7715
I3506
sI7719
I3498
sI7724
I3477
sI14169
I3093
sI12872
I3660
sI12272
I1857
sI7752
I566
sI7754
I570
sI7756
I564
sI7758
I631
sI7760
I630
sI7763
I567
sI7765
I552
sI7767
I565
sI7768
I632
sI7776
I467
sI7779
I471
sI7781
I470
sI7785
I466
sI7793
I479
sI7794
I468
sI7795
I469
sI7796
I477
sI7799
I620
sI7801
I617
sI7802
I622
sI7803
I621
sI7804
I615
sI7805
I614
sI7806
I626
sI7807
I616
sI7815
I643
sI14963
I3158
sI14964
I3157
sI7868
I1504
sI7870
I1516
sI7871
I1514
sI7877
I1503
sI7878
I1513
sI7879
I1515
sI7885
I1511
sI7886
I1517
sI7888
I1512
sI7891
I1625
sI7893
I1638
sI7896
I1635
sI7897
I1623
sI7899
I1622
sI12471
I3591
sI7938
I2668
sI7949
I2672
sI7960
I2587
sI7962
I2584
sI7963
I2575
sI12819
I3608
sI7969
I2574
sI7970
I2589
sI7971
I2577
sI7972
I2590
sI7977
I2578
sI7978
I2579
sI7979
I2580
sI7980
I2576
sI7983
I2703
sI7987
I2718
sI7988
I2719
sI7995
I2699
sI10890
I2870
sI10892
I2862
sI10893
I2868
sI8063
I3339
sI8030
I3431
sI14452
I2011
sI11997
I2929
sI8036
I3436
sI12262
I1855
sI8038
I3435
sI8041
I3430
sI8042
I3438
sI8044
I3432
sI8045
I3433
sI8052
I3335
sI8054
I3342
sI8055
I3337
sI8061
I3333
sI8062
I3338
sI14453
I2008
sI8064
I3336
sI8069
I3341
sI8070
I3334
sI8071
I3347
sI8072
I3340
sI8075
I3484
sI8079
I3513
sI8080
I3482
sI8081
I3480
sI8082
I3505
sI8083
I3481
sI8086
I3485
sI8097
I515
sI8099
I504
sI8100
I517
sI8101
I507
sI8103
I511
sI8104
I513
sI8105
I509
sI8106
I549
sI8107
I505
sI8109
I516
sI8110
I514
sI8111
I508
sI8112
I512
sI8113
I510
sI8114
I506
sI8124
I641
sI8126
I536
sI8127
I604
sI8130
I543
sI12273
I1848
sI8132
I548
sI8133
I544
sI8142
I599
sI8143
I610
sI8144
I640
sI8146
I609
sI8147
I639
sI8148
I607
sI8149
I605
sI8151
I642
sI8152
I601
sI8154
I633
sI8155
I634
sI8156
I602
sI8158
I608
sI8159
I606
sI8160
I603
sI14457
I2014
sI8166
I580
sI8168
I578
sI8169
I593
sI8170
I579
sI8172
I572
sI8173
I573
sI8174
I574
sI8175
I575
sI8176
I585
sI8178
I584
sI8179
I577
sI8180
I582
sI8181
I581
sI8182
I576
sI8183
I583
sI8184
I586
sI8185
I587
sI8189
I1542
sI8191
I1535
s.