(dp0
I1
(dp1
S'number'
p2
I1
sS'name'
p3
S'chunyin'
p4
ssI2
(dp5
g2
I1
sg3
S'chunyin'
p6
ssI3
(dp7
g2
I1
sg3
S'chunyin'
p8
ssI4
(dp9
g2
I1
sg3
S'chunyin'
p10
ssI5
(dp11
g2
I2
sg3
S'sheyin'
p12
ssI6
(dp13
g2
I2
sg3
S'sheyin'
p14
ssI7
(dp15
g2
I2
sg3
S'sheyin'
p16
ssI8
(dp17
g2
I2
sg3
S'sheyin'
p18
ssI9
(dp19
g2
I3
sg3
S'yayin'
p20
ssI10
(dp21
g2
I3
sg3
S'yayin'
p22
ssI11
(dp23
g2
I3
sg3
S'yayin'
p24
ssI12
(dp25
g2
I3
sg3
S'yayin'
p26
ssI13
(dp27
g2
I4
sg3
S'chiyin'
p28
ssI14
(dp29
g2
I4
sg3
S'chiyin'
p30
ssI15
(dp31
g2
I4
sg3
S'chiyin'
p32
ssI16
(dp33
g2
I4
sg3
S'chiyin'
p34
ssI17
(dp35
g2
I4
sg3
S'chiyin'
p36
ssI18
(dp37
g2
I5
sg3
S'houyin'
p38
ssI19
(dp39
g2
I5
sg3
S'houyin'
p40
ssI20
(dp41
g2
I5
sg3
S'houyin'
p42
ssI21
(dp43
g2
I5
sg3
S'houyin'
p44
ssI22
(dp45
g2
I6
sg3
S'banshe'
p46
ssI23
(dp47
g2
I7
sg3
S'banchi'
p48
ss.