(dp0
I0
(dp1
S'final'
p2
I0
sS'id'
p3
I0
sS'number'
p4
V1
p5
ssI1
(dp6
g2
I0
sg3
I1
sg4
V2
p7
ssI2
(dp8
g2
I0
sg3
I2
sg4
V3
p9
ssI3
(dp10
g2
I0
sg3
I3
sg4
V4
p11
ssI4
(dp12
g2
I0
sg3
I4
sg4
V5
p13
ssI5
(dp14
g2
I0
sg3
I5
sg4
V6
p15
ssI6
(dp16
g2
I0
sg3
I6
sg4
V7
p17
ssI7
(dp18
g2
I0
sg3
I7
sg4
V8
p19
ssI8
(dp20
g2
I0
sg3
I8
sg4
V9
p21
ssI9
(dp22
g2
I0
sg3
I9
sg4
V10
p23
ssI10
(dp24
g2
I0
sg3
I10
sg4
V11
p25
ssI11
(dp26
g2
I0
sg3
I11
sg4
V12
p27
ssI12
(dp28
g2
I0
sg3
I12
sg4
V13
p29
ssI13
(dp30
g2
I0
sg3
I13
sg4
V14
p31
ssI14
(dp32
g2
I0
sg3
I14
sg4
V15
p33
ssI15
(dp34
g2
I0
sg3
I15
sg4
V16
p35
ssI16
(dp36
g2
I0
sg3
I16
sg4
V17
p37
ssI17
(dp38
g2
I0
sg3
I17
sg4
V18
p39
ssI18
(dp40
g2
I0
sg3
I18
sg4
V19
p41
ssI19
(dp42
g2
I1
sg3
I19
sg4
V20
p43
ssI20
(dp44
g2
I1
sg3
I20
sg4
V21
p45
ssI21
(dp46
g2
I1
sg3
I21
sg4
V22
p47
ssI22
(dp48
g2
I1
sg3
I22
sg4
V23
p49
ssI23
(dp50
g2
I1
sg3
I23
sg4
V24
p51
ssI24
(dp52
g2
I1
sg3
I24
sg4
V25
p53
ssI25
(dp54
g2
I1
sg3
I25
sg4
V26
p55
ssI26
(dp56
g2
I1
sg3
I26
sg4
V27
p57
ssI27
(dp58
g2
I1
sg3
I27
sg4
V28
p59
ssI28
(dp60
g2
I1
sg3
I28
sg4
V29
p61
ssI29
(dp62
g2
I1
sg3
I29
sg4
V30
p63
ssI30
(dp64
g2
I1
sg3
I30
sg4
V31
p65
ssI31
(dp66
g2
I1
sg3
I31
sg4
V32
p67
ssI32
(dp68
g2
I1
sg3
I32
sg4
V33
p69
ssI33
(dp70
g2
I1
sg3
I33
sg4
V34
p71
ssI34
(dp72
g2
I1
sg3
I34
sg4
V35
p73
ssI35
(dp74
g2
I2
sg3
I35
sg4
V36
p75
ssI36
(dp76
g2
I2
sg3
I36
sg4
V37
p77
ssI37
(dp78
g2
I2
sg3
I37
sg4
V38
p79
ssI38
(dp80
g2
I2
sg3
I38
sg4
V39
p81
ssI39
(dp82
g2
I2
sg3
I39
sg4
V40
p83
ssI40
(dp84
g2
I2
sg3
I40
sg4
V41
p85
ssI41
(dp86
g2
I2
sg3
I41
sg4
V42
p87
ssI42
(dp88
g2
I2
sg3
I42
sg4
V43
p89
ssI43
(dp90
g2
I2
sg3
I43
sg4
V44
p91
ssI44
(dp92
g2
I2
sg3
I44
sg4
V45
p93
ssI45
(dp94
g2
I2
sg3
I45
sg4
V46
p95
ssI46
(dp96
g2
I2
sg3
I46
sg4
V47
p97
ssI47
(dp98
g2
I2
sg3
I47
sg4
V48
p99
ssI48
(dp100
g2
I2
sg3
I48
sg4
V49
p101
ssI49
(dp102
g2
I2
sg3
I49
sg4
V50
p103
ssI50
(dp104
g2
I2
sg3
I50
sg4
V51
p105
ssI51
(dp106
g2
I2
sg3
I51
sg4
V52
p107
ssI52
(dp108
g2
I2
sg3
I52
sg4
V53
p109
ssI53
(dp110
g2
I3
sg3
I53
sg4
V54
p111
ssI54
(dp112
g2
I3
sg3
I54
sg4
V55
p113
ssI55
(dp114
g2
I3
sg3
I55
sg4
V56
p115
ssI56
(dp116
g2
I3
sg3
I56
sg4
V57
p117
ssI57
(dp118
g2
I3
sg3
I57
sg4
V58
p119
ssI58
(dp120
g2
I3
sg3
I58
sg4
V59
p121
ssI59
(dp122
g2
I3
sg3
I59
sg4
V60
p123
ssI60
(dp124
g2
I3
sg3
I60
sg4
V61
p125
ssI61
(dp126
g2
I3
sg3
I61
sg4
V62
p127
ssI62
(dp128
g2
I3
sg3
I62
sg4
V63
p129
ssI63
(dp130
g2
I3
sg3
I63
sg4
V64
p131
ssI64
(dp132
g2
I3
sg3
I64
sg4
V65
p133
ssI65
(dp134
g2
I3
sg3
I65
sg4
V66
p135
ssI66
(dp136
g2
I3
sg3
I66
sg4
V67
p137
ssI67
(dp138
g2
I3
sg3
I67
sg4
V68
p139
ssI68
(dp140
g2
I3
sg3
I68
sg4
V69
p141
ssI69
(dp142
g2
I3
sg3
I69
sg4
V70
p143
ssI70
(dp144
g2
I4
sg3
I70
sg4
V71
p145
ssI71
(dp146
g2
I4
sg3
I71
sg4
V72
p147
ssI72
(dp148
g2
I4
sg3
I72
sg4
V73
p149
ssI73
(dp150
g2
I4
sg3
I73
sg4
V74
p151
ssI74
(dp152
g2
I4
sg3
I74
sg4
V75
p153
ssI75
(dp154
g2
I4
sg3
I75
sg4
V76
p155
ssI76
(dp156
g2
I4
sg3
I76
sg4
V77
p157
ssI77
(dp158
g2
I4
sg3
I77
sg4
V78
p159
ssI78
(dp160
g2
I4
sg3
I78
sg4
V79
p161
ssI79
(dp162
g2
I4
sg3
I79
sg4
V80
p163
ssI80
(dp164
g2
I4
sg3
I80
sg4
V81
p165
ssI81
(dp166
g2
I4
sg3
I81
sg4
V82
p167
ssI82
(dp168
g2
I4
sg3
I82
sg4
V83
p169
ssI83
(dp170
g2
I4
sg3
I83
sg4
V84
p171
ssI84
(dp172
g2
I4
sg3
I84
sg4
V85
p173
ssI85
(dp174
g2
I4
sg3
I85
sg4
V86
p175
ssI86
(dp176
g2
I4
sg3
I86
sg4
V87
p177
ssI87
(dp178
g2
I4
sg3
I87
sg4
V88
p179
ssI88
(dp180
g2
I4
sg3
I88
sg4
V89
p181
ssI89
(dp182
g2
I4
sg3
I89
sg4
V90
p183
ssI90
(dp184
g2
I4
sg3
I90
sg4
V91
p185
ssI91
(dp186
g2
I4
sg3
I91
sg4
V92
p187
ssI92
(dp188
g2
I4
sg3
I92
sg4
V93
p189
ssI93
(dp190
g2
I4
sg3
I93
sg4
V94
p191
ssI94
(dp192
g2
I4
sg3
I94
sg4
V95
p193
ssI95
(dp194
g2
I4
sg3
I95
sg4
V96
p195
ssI96
(dp196
g2
I4
sg3
I96
sg4
V97
p197
ssI97
(dp198
g2
I5
sg3
I97
sg4
V98
p199
ssI98
(dp200
g2
I5
sg3
I98
sg4
V99
p201
ssI99
(dp202
g2
I5
sg3
I99
sg4
V100
p203
ssI100
(dp204
g2
I5
sg3
I100
sg4
V101
p205
ssI101
(dp206
g2
I5
sg3
I101
sg4
V102
p207
ssI102
(dp208
g2
I5
sg3
I102
sg4
V103
p209
ssI103
(dp210
g2
I5
sg3
I103
sg4
V104
p211
ssI104
(dp212
g2
I5
sg3
I104
sg4
V105
p213
ssI105
(dp214
g2
I5
sg3
I105
sg4
V106
p215
ssI106
(dp216
g2
I5
sg3
I106
sg4
V107
p217
ssI107
(dp218
g2
I5
sg3
I107
sg4
V108
p219
ssI108
(dp220
g2
I5
sg3
I108
sg4
V109
p221
ssI109
(dp222
g2
I5
sg3
I109
sg4
V110
p223
ssI110
(dp224
g2
I5
sg3
I110
sg4
V111
p225
ssI111
(dp226
g2
I5
sg3
I111
sg4
V112
p227
ssI112
(dp228
g2
I5
sg3
I112
sg4
V113
p229
ssI113
(dp230
g2
I5
sg3
I113
sg4
V114
p231
ssI114
(dp232
g2
I5
sg3
I114
sg4
V115
p233
ssI115
(dp234
g2
I5
sg3
I115
sg4
V116
p235
ssI116
(dp236
g2
I5
sg3
I116
sg4
V117
p237
ssI117
(dp238
g2
I5
sg3
I117
sg4
V118
p239
ssI118
(dp240
g2
I5
sg3
I118
sg4
V119
p241
ssI119
(dp242
g2
I5
sg3
I119
sg4
V120
p243
ssI120
(dp244
g2
I6
sg3
I120
sg4
V121
p245
ssI121
(dp246
g2
I6
sg3
I121
sg4
V122
p247
ssI122
(dp248
g2
I6
sg3
I122
sg4
V123
p249
ssI123
(dp250
g2
I6
sg3
I123
sg4
V124
p251
ssI124
(dp252
g2
I6
sg3
I124
sg4
V125
p253
ssI125
(dp254
g2
I6
sg3
I125
sg4
V126
p255
ssI126
(dp256
g2
I6
sg3
I126
sg4
V127
p257
ssI127
(dp258
g2
I6
sg3
I127
sg4
V128
p259
ssI128
(dp260
g2
I6
sg3
I128
sg4
V129
p261
ssI129
(dp262
g2
I6
sg3
I129
sg4
V130
p263
ssI130
(dp264
g2
I6
sg3
I130
sg4
V131
p265
ssI131
(dp266
g2
I6
sg3
I131
sg4
V132
p267
ssI132
(dp268
g2
I6
sg3
I132
sg4
V133
p269
ssI133
(dp270
g2
I6
sg3
I133
sg4
V134
p271
ssI134
(dp272
g2
I6
sg3
I134
sg4
V135
p273
ssI135
(dp274
g2
I6
sg3
I135
sg4
V136
p275
ssI136
(dp276
g2
I6
sg3
I136
sg4
V137
p277
ssI137
(dp278
g2
I6
sg3
I137
sg4
V138
p279
ssI138
(dp280
g2
I6
sg3
I138
sg4
V139
p281
ssI139
(dp282
g2
I6
sg3
I139
sg4
V140
p283
ssI140
(dp284
g2
I6
sg3
I140
sg4
V141
p285
ssI141
(dp286
g2
I6
sg3
I141
sg4
V142
p287
ssI142
(dp288
g2
I6
sg3
I142
sg4
V143
p289
ssI143
(dp290
g2
I6
sg3
I143
sg4
V144
p291
ssI144
(dp292
g2
I6
sg3
I144
sg4
V145
p293
ssI145
(dp294
g2
I6
sg3
I145
sg4
V146
p295
ssI146
(dp296
g2
I6
sg3
I146
sg4
V147
p297
ssI147
(dp298
g2
I7
sg3
I147
sg4
V148
p299
ssI148
(dp300
g2
I7
sg3
I148
sg4
V149
p301
ssI149
(dp302
g2
I7
sg3
I149
sg4
V150
p303
ssI150
(dp304
g2
I7
sg3
I150
sg4
V151
p305
ssI151
(dp306
g2
I7
sg3
I151
sg4
V152
p307
ssI152
(dp308
g2
I7
sg3
I152
sg4
V153
p309
ssI153
(dp310
g2
I7
sg3
I153
sg4
V154
p311
ssI154
(dp312
g2
I7
sg3
I154
sg4
V155
p313
ssI155
(dp314
g2
I7
sg3
I155
sg4
V156
p315
ssI156
(dp316
g2
I7
sg3
I156
sg4
V157
p317
ssI157
(dp318
g2
I7
sg3
I157
sg4
V158
p319
ssI158
(dp320
g2
I7
sg3
I158
sg4
V159
p321
ssI159
(dp322
g2
I7
sg3
I159
sg4
V160
p323
ssI160
(dp324
g2
I7
sg3
I160
sg4
V161
p325
ssI161
(dp326
g2
I7
sg3
I161
sg4
V162
p327
ssI162
(dp328
g2
I7
sg3
I162
sg4
V163
p329
ssI163
(dp330
g2
I7
sg3
I163
sg4
V164
p331
ssI164
(dp332
g2
I7
sg3
I164
sg4
V165
p333
ssI165
(dp334
g2
I7
sg3
I165
sg4
V166
p335
ssI166
(dp336
g2
I7
sg3
I166
sg4
V167
p337
ssI167
(dp338
g2
I7
sg3
I167
sg4
V168
p339
ssI168
(dp340
g2
I7
sg3
I168
sg4
V169
p341
ssI169
(dp342
g2
I7
sg3
I169
sg4
V170
p343
ssI170
(dp344
g2
I7
sg3
I170
sg4
V171
p345
ssI171
(dp346
g2
I7
sg3
I171
sg4
V172
p347
ssI172
(dp348
g2
I7
sg3
I172
sg4
V173
p349
ssI173
(dp350
g2
I7
sg3
I173
sg4
V174
p351
ssI174
(dp352
g2
I7
sg3
I174
sg4
V175
p353
ssI175
(dp354
g2
I7
sg3
I175
sg4
V176
p355
ssI176
(dp356
g2
I7
sg3
I176
sg4
V177
p357
ssI177
(dp358
g2
I7
sg3
I177
sg4
V178
p359
ssI178
(dp360
g2
I7
sg3
I178
sg4
V179
p361
ssI179
(dp362
g2
I7
sg3
I179
sg4
V180
p363
ssI180
(dp364
g2
I7
sg3
I180
sg4
V181
p365
ssI181
(dp366
g2
I8
sg3
I181
sg4
V182
p367
ssI182
(dp368
g2
I8
sg3
I182
sg4
V183
p369
ssI183
(dp370
g2
I8
sg3
I183
sg4
V184
p371
ssI184
(dp372
g2
I8
sg3
I184
sg4
V185
p373
ssI185
(dp374
g2
I8
sg3
I185
sg4
V186
p375
ssI186
(dp376
g2
I8
sg3
I186
sg4
V187
p377
ssI187
(dp378
g2
I9
sg3
I187
sg4
V188
p379
ssI188
(dp380
g2
I9
sg3
I188
sg4
V189
p381
ssI189
(dp382
g2
I9
sg3
I189
sg4
V190
p383
ssI190
(dp384
g2
I9
sg3
I190
sg4
V191
p385
ssI191
(dp386
g2
I10
sg3
I191
sg4
V192
p387
ssI192
(dp388
g2
I10
sg3
I192
sg4
V193
p389
ssI193
(dp390
g2
I10
sg3
I193
sg4
V194
p391
ssI194
(dp392
g2
I10
sg3
I194
sg4
V195
p393
ssI195
(dp394
g2
I10
sg3
I195
sg4
V196
p395
ssI196
(dp396
g2
I10
sg3
I196
sg4
V197
p397
ssI197
(dp398
g2
I10
sg3
I197
sg4
V198
p399
ssI198
(dp400
g2
I11
sg3
I198
sg4
V199
p401
ssI199
(dp402
g2
I11
sg3
I199
sg4
V200
p403
ssI200
(dp404
g2
I12
sg3
I200
sg4
V201
p405
ssI201
(dp406
g2
I12
sg3
I201
sg4
V202
p407
ssI202
(dp408
g2
I12
sg3
I202
sg4
V203
p409
ssI203
(dp410
g2
I12
sg3
I203
sg4
V204
p411
ssI204
(dp412
g2
I12
sg3
I204
sg4
V205
p413
ssI205
(dp414
g2
I12
sg3
I205
sg4
V206
p415
ssI206
(dp416
g2
I12
sg3
I206
sg4
V207
p417
ssI207
(dp418
g2
I12
sg3
I207
sg4
V208
p419
ssI208
(dp420
g2
I13
sg3
I208
sg4
V209
p421
ssI209
(dp422
g2
I13
sg3
I209
sg4
V210
p423
ssI210
(dp424
g2
I13
sg3
I210
sg4
V211
p425
ssI211
(dp426
g2
I13
sg3
I211
sg4
V212
p427
ssI212
(dp428
g2
I13
sg3
I212
sg4
V213
p429
ssI213
(dp430
g2
I13
sg3
I213
sg4
V214
p431
ssI214
(dp432
g2
I13
sg3
I214
sg4
V215
p433
ssI215
(dp434
g2
I13
sg3
I215
sg4
V216
p435
ssI216
(dp436
g2
I13
sg3
I216
sg4
V217
p437
ssI217
(dp438
g2
I13
sg3
I217
sg4
V218
p439
ssI218
(dp440
g2
I13
sg3
I218
sg4
V219
p441
ssI219
(dp442
g2
I13
sg3
I219
sg4
V220
p443
ssI220
(dp444
g2
I13
sg3
I220
sg4
V221
p445
ssI221
(dp446
g2
I13
sg3
I221
sg4
V222
p447
ssI222
(dp448
g2
I13
sg3
I222
sg4
V223
p449
ssI223
(dp450
g2
I13
sg3
I223
sg4
V224
p451
ssI224
(dp452
g2
I13
sg3
I224
sg4
V225
p453
ssI225
(dp454
g2
I13
sg3
I225
sg4
V226
p455
ssI226
(dp456
g2
I13
sg3
I226
sg4
V227
p457
ssI227
(dp458
g2
I13
sg3
I227
sg4
V228
p459
ssI228
(dp460
g2
I13
sg3
I228
sg4
V229
p461
ssI229
(dp462
g2
I13
sg3
I229
sg4
V230
p463
ssI230
(dp464
g2
I13
sg3
I230
sg4
V231
p465
ssI231
(dp466
g2
I13
sg3
I231
sg4
V232
p467
ssI232
(dp468
g2
I13
sg3
I232
sg4
V233
p469
ssI233
(dp470
g2
I14
sg3
I233
sg4
V234
p471
ssI234
(dp472
g2
I14
sg3
I234
sg4
V235
p473
ssI235
(dp474
g2
I14
sg3
I235
sg4
V236
p475
ssI236
(dp476
g2
I14
sg3
I236
sg4
V237
p477
ssI237
(dp478
g2
I14
sg3
I237
sg4
V238
p479
ssI238
(dp480
g2
I14
sg3
I238
sg4
V239
p481
ssI239
(dp482
g2
I14
sg3
I239
sg4
V240
p483
ssI240
(dp484
g2
I14
sg3
I240
sg4
V241
p485
ssI241
(dp486
g2
I14
sg3
I241
sg4
V242
p487
ssI242
(dp488
g2
I14
sg3
I242
sg4
V243
p489
ssI243
(dp490
g2
I14
sg3
I243
sg4
V244
p491
ssI244
(dp492
g2
I14
sg3
I244
sg4
V245
p493
ssI245
(dp494
g2
I14
sg3
I245
sg4
V246
p495
ssI246
(dp496
g2
I14
sg3
I246
sg4
V247
p497
ssI247
(dp498
g2
I14
sg3
I247
sg4
V248
p499
ssI248
(dp500
g2
I14
sg3
I248
sg4
V249
p501
ssI249
(dp502
g2
I14
sg3
I249
sg4
V250
p503
ssI250
(dp504
g2
I14
sg3
I250
sg4
V251
p505
ssI251
(dp506
g2
I14
sg3
I251
sg4
V252
p507
ssI252
(dp508
g2
I14
sg3
I252
sg4
V253
p509
ssI253
(dp510
g2
I14
sg3
I253
sg4
V254
p511
ssI254
(dp512
g2
I14
sg3
I254
sg4
V255
p513
ssI255
(dp514
g2
I14
sg3
I255
sg4
V256
p515
ssI256
(dp516
g2
I14
sg3
I256
sg4
V257
p517
ssI257
(dp518
g2
I15
sg3
I257
sg4
V258
p519
ssI258
(dp520
g2
I15
sg3
I258
sg4
V259
p521
ssI259
(dp522
g2
I15
sg3
I259
sg4
V260
p523
ssI260
(dp524
g2
I15
sg3
I260
sg4
V261
p525
ssI261
(dp526
g2
I15
sg3
I261
sg4
V262
p527
ssI262
(dp528
g2
I15
sg3
I262
sg4
V263
p529
ssI263
(dp530
g2
I15
sg3
I263
sg4
V264
p531
ssI264
(dp532
g2
I15
sg3
I264
sg4
V265
p533
ssI265
(dp534
g2
I15
sg3
I265
sg4
V266
p535
ssI266
(dp536
g2
I15
sg3
I266
sg4
V267
p537
ssI267
(dp538
g2
I15
sg3
I267
sg4
V268
p539
ssI268
(dp540
g2
I16
sg3
I268
sg4
V269
p541
ssI269
(dp542
g2
I16
sg3
I269
sg4
V270
p543
ssI270
(dp544
g2
I16
sg3
I270
sg4
V271
p545
ssI271
(dp546
g2
I16
sg3
I271
sg4
V272
p547
ssI272
(dp548
g2
I16
sg3
I272
sg4
V273
p549
ssI273
(dp550
g2
I16
sg3
I273
sg4
V274
p551
ssI274
(dp552
g2
I16
sg3
I274
sg4
V275
p553
ssI275
(dp554
g2
I16
sg3
I275
sg4
V276
p555
ssI276
(dp556
g2
I16
sg3
I276
sg4
V277
p557
ssI277
(dp558
g2
I16
sg3
I277
sg4
V278
p559
ssI278
(dp560
g2
I16
sg3
I278
sg4
V279
p561
ssI279
(dp562
g2
I16
sg3
I279
sg4
V280
p563
ssI280
(dp564
g2
I16
sg3
I280
sg4
V281
p565
ssI281
(dp566
g2
I16
sg3
I281
sg4
V282
p567
ssI282
(dp568
g2
I16
sg3
I282
sg4
V283
p569
ssI283
(dp570
g2
I16
sg3
I283
sg4
V284
p571
ssI284
(dp572
g2
I16
sg3
I284
sg4
V285
p573
ssI285
(dp574
g2
I16
sg3
I285
sg4
V286
p575
ssI286
(dp576
g2
I16
sg3
I286
sg4
V287
p577
ssI287
(dp578
g2
I16
sg3
I287
sg4
V288
p579
ssI288
(dp580
g2
I16
sg3
I288
sg4
V289
p581
ssI289
(dp582
g2
I16
sg3
I289
sg4
V290
p583
ssI290
(dp584
g2
I16
sg3
I290
sg4
V291
p585
ssI291
(dp586
g2
I16
sg3
I291
sg4
V292
p587
ssI292
(dp588
g2
I16
sg3
I292
sg4
V293
p589
ssI293
(dp590
g2
I16
sg3
I293
sg4
V294
p591
ssI294
(dp592
g2
I16
sg3
I294
sg4
V295
p593
ssI295
(dp594
g2
I16
sg3
I295
sg4
V296
p595
ssI296
(dp596
g2
I16
sg3
I296
sg4
V297
p597
ssI297
(dp598
g2
I17
sg3
I297
sg4
V298
p599
ssI298
(dp600
g2
I17
sg3
I298
sg4
V299
p601
ssI299
(dp602
g2
I17
sg3
I299
sg4
V300
p603
ssI300
(dp604
g2
I17
sg3
I300
sg4
V301
p605
ssI301
(dp606
g2
I17
sg3
I301
sg4
V302
p607
ssI302
(dp608
g2
I17
sg3
I302
sg4
V303
p609
ssI303
(dp610
g2
I17
sg3
I303
sg4
V304
p611
ssI304
(dp612
g2
I17
sg3
I304
sg4
V305
p613
ssI305
(dp614
g2
I17
sg3
I305
sg4
V306
p615
ssI306
(dp616
g2
I17
sg3
I306
sg4
V307
p617
ssI307
(dp618
g2
I17
sg3
I307
sg4
V308
p619
ssI308
(dp620
g2
I17
sg3
I308
sg4
V309
p621
ssI309
(dp622
g2
I17
sg3
I309
sg4
V310
p623
ssI310
(dp624
g2
I17
sg3
I310
sg4
V311
p625
ssI311
(dp626
g2
I17
sg3
I311
sg4
V312
p627
ssI312
(dp628
g2
I17
sg3
I312
sg4
V313
p629
ssI313
(dp630
g2
I17
sg3
I313
sg4
V314
p631
ssI314
(dp632
g2
I17
sg3
I314
sg4
V315
p633
ssI315
(dp634
g2
I18
sg3
I315
sg4
V316
p635
ssI316
(dp636
g2
I18
sg3
I316
sg4
V317
p637
ssI317
(dp638
g2
I18
sg3
I317
sg4
V318
p639
ssI318
(dp640
g2
I18
sg3
I318
sg4
V319
p641
ssI319
(dp642
g2
I18
sg3
I319
sg4
V320
p643
ssI320
(dp644
g2
I18
sg3
I320
sg4
V321
p645
ssI321
(dp646
g2
I18
sg3
I321
sg4
V322
p647
ssI322
(dp648
g2
I18
sg3
I322
sg4
V323
p649
ssI323
(dp650
g2
I18
sg3
I323
sg4
V324
p651
ssI324
(dp652
g2
I18
sg3
I324
sg4
V325
p653
ssI325
(dp654
g2
I18
sg3
I325
sg4
V326
p655
ssI326
(dp656
g2
I18
sg3
I326
sg4
V327
p657
ssI327
(dp658
g2
I18
sg3
I327
sg4
V328
p659
ssI328
(dp660
g2
I18
sg3
I328
sg4
V329
p661
ssI329
(dp662
g2
I18
sg3
I329
sg4
V330
p663
ssI330
(dp664
g2
I18
sg3
I330
sg4
V331
p665
ssI331
(dp666
g2
I18
sg3
I331
sg4
V332
p667
ssI332
(dp668
g2
I18
sg3
I332
sg4
V333
p669
ssI333
(dp670
g2
I18
sg3
I333
sg4
V334
p671
ssI334
(dp672
g2
I18
sg3
I334
sg4
V335
p673
ssI335
(dp674
g2
I18
sg3
I335
sg4
V336
p675
ssI336
(dp676
g2
I18
sg3
I336
sg4
V337
p677
ssI337
(dp678
g2
I18
sg3
I337
sg4
V338
p679
ssI338
(dp680
g2
I18
sg3
I338
sg4
V339
p681
ssI339
(dp682
g2
I18
sg3
I339
sg4
V340
p683
ssI340
(dp684
g2
I18
sg3
I340
sg4
V341
p685
ssI341
(dp686
g2
I18
sg3
I341
sg4
V342
p687
ssI342
(dp688
g2
I18
sg3
I342
sg4
V343
p689
ssI343
(dp690
g2
I18
sg3
I343
sg4
V344
p691
ssI344
(dp692
g2
I18
sg3
I344
sg4
V345
p693
ssI345
(dp694
g2
I18
sg3
I345
sg4
V346
p695
ssI346
(dp696
g2
I18
sg3
I346
sg4
V347
p697
ssI347
(dp698
g2
I18
sg3
I347
sg4
V348
p699
ssI348
(dp700
g2
I18
sg3
I348
sg4
V349
p701
ssI349
(dp702
g2
I18
sg3
I349
sg4
V350
p703
ssI350
(dp704
g2
I19
sg3
I350
sg4
V351
p705
ssI351
(dp706
g2
I19
sg3
I351
sg4
V352
p707
ssI352
(dp708
g2
I19
sg3
I352
sg4
V353
p709
ssI353
(dp710
g2
I19
sg3
I353
sg4
V354
p711
ssI354
(dp712
g2
I19
sg3
I354
sg4
V355
p713
ssI355
(dp714
g2
I19
sg3
I355
sg4
V356
p715
ssI356
(dp716
g2
I19
sg3
I356
sg4
V357
p717
ssI357
(dp718
g2
I19
sg3
I357
sg4
V358
p719
ssI358
(dp720
g2
I20
sg3
I358
sg4
V359
p721
ssI359
(dp722
g2
I20
sg3
I359
sg4
V360
p723
ssI360
(dp724
g2
I20
sg3
I360
sg4
V361
p725
ssI361
(dp726
g2
I20
sg3
I361
sg4
V362
p727
ssI362
(dp728
g2
I20
sg3
I362
sg4
V363
p729
ssI363
(dp730
g2
I20
sg3
I363
sg4
V364
p731
ssI364
(dp732
g2
I20
sg3
I364
sg4
V365
p733
ssI365
(dp734
g2
I20
sg3
I365
sg4
V366
p735
ssI366
(dp736
g2
I20
sg3
I366
sg4
V367
p737
ssI367
(dp738
g2
I20
sg3
I367
sg4
V368
p739
ssI368
(dp740
g2
I20
sg3
I368
sg4
V369
p741
ssI369
(dp742
g2
I20
sg3
I369
sg4
V370
p743
ssI370
(dp744
g2
I20
sg3
I370
sg4
V371
p745
ssI371
(dp746
g2
I20
sg3
I371
sg4
V372
p747
ssI372
(dp748
g2
I20
sg3
I372
sg4
V373
p749
ssI373
(dp750
g2
I20
sg3
I373
sg4
V374
p751
ssI374
(dp752
g2
I20
sg3
I374
sg4
V375
p753
ssI375
(dp754
g2
I20
sg3
I375
sg4
V376
p755
ssI376
(dp756
g2
I20
sg3
I376
sg4
V377
p757
ssI377
(dp758
g2
I20
sg3
I377
sg4
V378
p759
ssI378
(dp760
g2
I20
sg3
I378
sg4
V379
p761
ssI379
(dp762
g2
I20
sg3
I379
sg4
V380
p763
ssI380
(dp764
g2
I21
sg3
I380
sg4
V381
p765
ssI381
(dp766
g2
I21
sg3
I381
sg4
V382
p767
ssI382
(dp768
g2
I21
sg3
I382
sg4
V383
p769
ssI383
(dp770
g2
I21
sg3
I383
sg4
V384
p771
ssI384
(dp772
g2
I21
sg3
I384
sg4
V385
p773
ssI385
(dp774
g2
I21
sg3
I385
sg4
V386
p775
ssI386
(dp776
g2
I21
sg3
I386
sg4
V387
p777
ssI387
(dp778
g2
I21
sg3
I387
sg4
V388
p779
ssI388
(dp780
g2
I21
sg3
I388
sg4
V389
p781
ssI389
(dp782
g2
I21
sg3
I389
sg4
V390
p783
ssI390
(dp784
g2
I21
sg3
I390
sg4
V391
p785
ssI391
(dp786
g2
I21
sg3
I391
sg4
V392
p787
ssI392
(dp788
g2
I21
sg3
I392
sg4
V393
p789
ssI393
(dp790
g2
I21
sg3
I393
sg4
V394
p791
ssI394
(dp792
g2
I21
sg3
I394
sg4
V395
p793
ssI395
(dp794
g2
I21
sg3
I395
sg4
V396
p795
ssI396
(dp796
g2
I21
sg3
I396
sg4
V397
p797
ssI397
(dp798
g2
I21
sg3
I397
sg4
V398
p799
ssI398
(dp800
g2
I22
sg3
I398
sg4
V399
p801
ssI399
(dp802
g2
I22
sg3
I399
sg4
V400
p803
ssI400
(dp804
g2
I22
sg3
I400
sg4
V401
p805
ssI401
(dp806
g2
I22
sg3
I401
sg4
V402
p807
ssI402
(dp808
g2
I22
sg3
I402
sg4
V403
p809
ssI403
(dp810
g2
I22
sg3
I403
sg4
V404
p811
ssI404
(dp812
g2
I22
sg3
I404
sg4
V405
p813
ssI405
(dp814
g2
I22
sg3
I405
sg4
V406
p815
ssI406
(dp816
g2
I22
sg3
I406
sg4
V407
p817
ssI407
(dp818
g2
I22
sg3
I407
sg4
V408
p819
ssI408
(dp820
g2
I23
sg3
I408
sg4
V409
p821
ssI409
(dp822
g2
I23
sg3
I409
sg4
V410
p823
ssI410
(dp824
g2
I23
sg3
I410
sg4
V411
p825
ssI411
(dp826
g2
I23
sg3
I411
sg4
V412
p827
ssI412
(dp828
g2
I23
sg3
I412
sg4
V413
p829
ssI413
(dp830
g2
I23
sg3
I413
sg4
V414
p831
ssI414
(dp832
g2
I23
sg3
I414
sg4
V415
p833
ssI415
(dp834
g2
I23
sg3
I415
sg4
V416
p835
ssI416
(dp836
g2
I23
sg3
I416
sg4
V417
p837
ssI417
(dp838
g2
I23
sg3
I417
sg4
V418
p839
ssI418
(dp840
g2
I23
sg3
I418
sg4
V419
p841
ssI419
(dp842
g2
I23
sg3
I419
sg4
V420
p843
ssI420
(dp844
g2
I23
sg3
I420
sg4
V421
p845
ssI421
(dp846
g2
I23
sg3
I421
sg4
V422
p847
ssI422
(dp848
g2
I23
sg3
I422
sg4
V423
p849
ssI423
(dp850
g2
I23
sg3
I423
sg4
V424
p851
ssI424
(dp852
g2
I23
sg3
I424
sg4
V425
p853
ssI425
(dp854
g2
I23
sg3
I425
sg4
V426
p855
ssI426
(dp856
g2
I23
sg3
I426
sg4
V427
p857
ssI427
(dp858
g2
I23
sg3
I427
sg4
V428
p859
ssI428
(dp860
g2
I23
sg3
I428
sg4
V429
p861
ssI429
(dp862
g2
I23
sg3
I429
sg4
V430
p863
ssI430
(dp864
g2
I23
sg3
I430
sg4
V431
p865
ssI431
(dp866
g2
I23
sg3
I431
sg4
V432
p867
ssI432
(dp868
g2
I23
sg3
I432
sg4
V433
p869
ssI433
(dp870
g2
I23
sg3
I433
sg4
V434
p871
ssI434
(dp872
g2
I23
sg3
I434
sg4
V435
p873
ssI435
(dp874
g2
I23
sg3
I435
sg4
V436
p875
ssI436
(dp876
g2
I23
sg3
I436
sg4
V437
p877
ssI437
(dp878
g2
I23
sg3
I437
sg4
V438
p879
ssI438
(dp880
g2
I24
sg3
I438
sg4
V439
p881
ssI439
(dp882
g2
I24
sg3
I439
sg4
V440
p883
ssI440
(dp884
g2
I24
sg3
I440
sg4
V441
p885
ssI441
(dp886
g2
I24
sg3
I441
sg4
V442
p887
ssI442
(dp888
g2
I24
sg3
I442
sg4
V443
p889
ssI443
(dp890
g2
I24
sg3
I443
sg4
V444
p891
ssI444
(dp892
g2
I24
sg3
I444
sg4
V445
p893
ssI445
(dp894
g2
I24
sg3
I445
sg4
V446
p895
ssI446
(dp896
g2
I24
sg3
I446
sg4
V447
p897
ssI447
(dp898
g2
I24
sg3
I447
sg4
V448
p899
ssI448
(dp900
g2
I24
sg3
I448
sg4
V449
p901
ssI449
(dp902
g2
I24
sg3
I449
sg4
V450
p903
ssI450
(dp904
g2
I24
sg3
I450
sg4
V451
p905
ssI451
(dp906
g2
I24
sg3
I451
sg4
V452
p907
ssI452
(dp908
g2
I24
sg3
I452
sg4
V453
p909
ssI453
(dp910
g2
I24
sg3
I453
sg4
V454
p911
ssI454
(dp912
g2
I24
sg3
I454
sg4
V455
p913
ssI455
(dp914
g2
I24
sg3
I455
sg4
V456
p915
ssI456
(dp916
g2
I24
sg3
I456
sg4
V457
p917
ssI457
(dp918
g2
I24
sg3
I457
sg4
V458
p919
ssI458
(dp920
g2
I24
sg3
I458
sg4
V460
p921
ssI459
(dp922
g2
I25
sg3
I459
sg4
V461
p923
ssI460
(dp924
g2
I25
sg3
I460
sg4
V462
p925
ssI461
(dp926
g2
I25
sg3
I461
sg4
V463
p927
ssI462
(dp928
g2
I25
sg3
I462
sg4
V464
p929
ssI463
(dp930
g2
I25
sg3
I463
sg4
V465
p931
ssI464
(dp932
g2
I25
sg3
I464
sg4
V466
p933
ssI465
(dp934
g2
I25
sg3
I465
sg4
V467
p935
ssI466
(dp936
g2
I25
sg3
I466
sg4
V468
p937
ssI467
(dp938
g2
I25
sg3
I467
sg4
V469
p939
ssI468
(dp940
g2
I25
sg3
I468
sg4
V470
p941
ssI469
(dp942
g2
I25
sg3
I469
sg4
V471
p943
ssI470
(dp944
g2
I25
sg3
I470
sg4
V472
p945
ssI471
(dp946
g2
I25
sg3
I471
sg4
V473
p947
ssI472
(dp948
g2
I25
sg3
I472
sg4
V474
p949
ssI473
(dp950
g2
I25
sg3
I473
sg4
V475
p951
ssI474
(dp952
g2
I25
sg3
I474
sg4
V476
p953
ssI475
(dp954
g2
I25
sg3
I475
sg4
V477
p955
ssI476
(dp956
g2
I25
sg3
I476
sg4
V478
p957
ssI477
(dp958
g2
I25
sg3
I477
sg4
V479
p959
ssI478
(dp960
g2
I25
sg3
I478
sg4
V480
p961
ssI479
(dp962
g2
I25
sg3
I479
sg4
V481
p963
ssI480
(dp964
g2
I25
sg3
I480
sg4
V482
p965
ssI481
(dp966
g2
I25
sg3
I481
sg4
V483
p967
ssI482
(dp968
g2
I25
sg3
I482
sg4
V484
p969
ssI483
(dp970
g2
I25
sg3
I483
sg4
V485
p971
ssI484
(dp972
g2
I25
sg3
I484
sg4
V486
p973
ssI485
(dp974
g2
I25
sg3
I485
sg4
V487
p975
ssI486
(dp976
g2
I25
sg3
I486
sg4
V488
p977
ssI487
(dp978
g2
I26
sg3
I487
sg4
V489
p979
ssI488
(dp980
g2
I26
sg3
I488
sg4
V490
p981
ssI489
(dp982
g2
I26
sg3
I489
sg4
V491
p983
ssI490
(dp984
g2
I26
sg3
I490
sg4
V492
p985
ssI491
(dp986
g2
I26
sg3
I491
sg4
V493
p987
ssI492
(dp988
g2
I26
sg3
I492
sg4
V494
p989
ssI493
(dp990
g2
I26
sg3
I493
sg4
V495
p991
ssI494
(dp992
g2
I27
sg3
I494
sg4
V496
p993
ssI495
(dp994
g2
I27
sg3
I495
sg4
V497
p995
ssI496
(dp996
g2
I27
sg3
I496
sg4
V498
p997
ssI497
(dp998
g2
I27
sg3
I497
sg4
V499
p999
ssI498
(dp1000
g2
I27
sg3
I498
sg4
V500
p1001
ssI499
(dp1002
g2
I27
sg3
I499
sg4
V501
p1003
ssI500
(dp1004
g2
I27
sg3
I500
sg4
V502
p1005
ssI501
(dp1006
g2
I27
sg3
I501
sg4
V503
p1007
ssI502
(dp1008
g2
I27
sg3
I502
sg4
V504
p1009
ssI503
(dp1010
g2
I27
sg3
I503
sg4
V505
p1011
ssI504
(dp1012
g2
I27
sg3
I504
sg4
V506
p1013
ssI505
(dp1014
g2
I27
sg3
I505
sg4
V507
p1015
ssI506
(dp1016
g2
I27
sg3
I506
sg4
V508
p1017
ssI507
(dp1018
g2
I27
sg3
I507
sg4
V509
p1019
ssI508
(dp1020
g2
I27
sg3
I508
sg4
V510
p1021
ssI509
(dp1022
g2
I27
sg3
I509
sg4
V511
p1023
ssI510
(dp1024
g2
I27
sg3
I510
sg4
V512
p1025
ssI511
(dp1026
g2
I28
sg3
I511
sg4
V513
p1027
ssI512
(dp1028
g2
I28
sg3
I512
sg4
V514
p1029
ssI513
(dp1030
g2
I28
sg3
I513
sg4
V515
p1031
ssI514
(dp1032
g2
I28
sg3
I514
sg4
V516
p1033
ssI515
(dp1034
g2
I28
sg3
I515
sg4
V517
p1035
ssI516
(dp1036
g2
I28
sg3
I516
sg4
V518
p1037
ssI517
(dp1038
g2
I28
sg3
I517
sg4
V519
p1039
ssI518
(dp1040
g2
I28
sg3
I518
sg4
V520
p1041
ssI519
(dp1042
g2
I28
sg3
I519
sg4
V521
p1043
ssI520
(dp1044
g2
I28
sg3
I520
sg4
V522
p1045
ssI521
(dp1046
g2
I28
sg3
I521
sg4
V523
p1047
ssI522
(dp1048
g2
I28
sg3
I522
sg4
V524
p1049
ssI523
(dp1050
g2
I29
sg3
I523
sg4
V525
p1051
ssI524
(dp1052
g2
I29
sg3
I524
sg4
V526
p1053
ssI525
(dp1054
g2
I29
sg3
I525
sg4
V527
p1055
ssI526
(dp1056
g2
I30
sg3
I526
sg4
V528
p1057
ssI527
(dp1058
g2
I30
sg3
I527
sg4
V529
p1059
ssI528
(dp1060
g2
I30
sg3
I528
sg4
V530
p1061
ssI529
(dp1062
g2
I30
sg3
I529
sg4
V531
p1063
ssI530
(dp1064
g2
I30
sg3
I530
sg4
V532
p1065
ssI531
(dp1066
g2
I30
sg3
I531
sg4
V533
p1067
ssI532
(dp1068
g2
I30
sg3
I532
sg4
V534
p1069
ssI533
(dp1070
g2
I30
sg3
I533
sg4
V535
p1071
ssI534
(dp1072
g2
I30
sg3
I534
sg4
V536
p1073
ssI535
(dp1074
g2
I30
sg3
I535
sg4
V537
p1075
ssI536
(dp1076
g2
I30
sg3
I536
sg4
V538
p1077
ssI537
(dp1078
g2
I30
sg3
I537
sg4
V539
p1079
ssI538
(dp1080
g2
I30
sg3
I538
sg4
V540
p1081
ssI539
(dp1082
g2
I30
sg3
I539
sg4
V541
p1083
ssI540
(dp1084
g2
I30
sg3
I540
sg4
V542
p1085
ssI541
(dp1086
g2
I30
sg3
I541
sg4
V543
p1087
ssI542
(dp1088
g2
I31
sg3
I542
sg4
V544
p1089
ssI543
(dp1090
g2
I31
sg3
I543
sg4
V545
p1091
ssI544
(dp1092
g2
I31
sg3
I544
sg4
V546
p1093
ssI545
(dp1094
g2
I31
sg3
I545
sg4
V547
p1095
ssI546
(dp1096
g2
I31
sg3
I546
sg4
V548
p1097
ssI547
(dp1098
g2
I31
sg3
I547
sg4
V549
p1099
ssI548
(dp1100
g2
I31
sg3
I548
sg4
V550
p1101
ssI549
(dp1102
g2
I31
sg3
I549
sg4
V551
p1103
ssI550
(dp1104
g2
I31
sg3
I550
sg4
V552
p1105
ssI551
(dp1106
g2
I31
sg3
I551
sg4
V553
p1107
ssI552
(dp1108
g2
I31
sg3
I552
sg4
V554
p1109
ssI553
(dp1110
g2
I32
sg3
I553
sg4
V555
p1111
ssI554
(dp1112
g2
I32
sg3
I554
sg4
V556
p1113
ssI555
(dp1114
g2
I32
sg3
I555
sg4
V557
p1115
ssI556
(dp1116
g2
I32
sg3
I556
sg4
V558
p1117
ssI557
(dp1118
g2
I32
sg3
I557
sg4
V559
p1119
ssI558
(dp1120
g2
I32
sg3
I558
sg4
V560
p1121
ssI559
(dp1122
g2
I32
sg3
I559
sg4
V561
p1123
ssI560
(dp1124
g2
I32
sg3
I560
sg4
V562
p1125
ssI561
(dp1126
g2
I32
sg3
I561
sg4
V563
p1127
ssI562
(dp1128
g2
I32
sg3
I562
sg4
V564
p1129
ssI563
(dp1130
g2
I32
sg3
I563
sg4
V565
p1131
ssI564
(dp1132
g2
I32
sg3
I564
sg4
V566
p1133
ssI565
(dp1134
g2
I32
sg3
I565
sg4
V567
p1135
ssI566
(dp1136
g2
I32
sg3
I566
sg4
V568
p1137
ssI567
(dp1138
g2
I32
sg3
I567
sg4
V569
p1139
ssI568
(dp1140
g2
I32
sg3
I568
sg4
V570
p1141
ssI569
(dp1142
g2
I32
sg3
I569
sg4
V571
p1143
ssI570
(dp1144
g2
I32
sg3
I570
sg4
V572
p1145
ssI571
(dp1146
g2
I32
sg3
I571
sg4
V573
p1147
ssI572
(dp1148
g2
I32
sg3
I572
sg4
V574
p1149
ssI573
(dp1150
g2
I32
sg3
I573
sg4
V575
p1151
ssI574
(dp1152
g2
I32
sg3
I574
sg4
V576
p1153
ssI575
(dp1154
g2
I32
sg3
I575
sg4
V577
p1155
ssI576
(dp1156
g2
I32
sg3
I576
sg4
V578
p1157
ssI577
(dp1158
g2
I32
sg3
I577
sg4
V579
p1159
ssI578
(dp1160
g2
I33
sg3
I578
sg4
V580
p1161
ssI579
(dp1162
g2
I33
sg3
I579
sg4
V581
p1163
ssI580
(dp1164
g2
I33
sg3
I580
sg4
V582
p1165
ssI581
(dp1166
g2
I34
sg3
I581
sg4
V583
p1167
ssI582
(dp1168
g2
I34
sg3
I582
sg4
V584
p1169
ssI583
(dp1170
g2
I34
sg3
I583
sg4
V585
p1171
ssI584
(dp1172
g2
I34
sg3
I584
sg4
V586
p1173
ssI585
(dp1174
g2
I34
sg3
I585
sg4
V587
p1175
ssI586
(dp1176
g2
I34
sg3
I586
sg4
V588
p1177
ssI587
(dp1178
g2
I34
sg3
I587
sg4
V589
p1179
ssI588
(dp1180
g2
I34
sg3
I588
sg4
V590
p1181
ssI589
(dp1182
g2
I34
sg3
I589
sg4
V591
p1183
ssI590
(dp1184
g2
I34
sg3
I590
sg4
V592
p1185
ssI591
(dp1186
g2
I34
sg3
I591
sg4
V593
p1187
ssI592
(dp1188
g2
I34
sg3
I592
sg4
V594
p1189
ssI593
(dp1190
g2
I34
sg3
I593
sg4
V595
p1191
ssI594
(dp1192
g2
I34
sg3
I594
sg4
V596
p1193
ssI595
(dp1194
g2
I34
sg3
I595
sg4
V597
p1195
ssI596
(dp1196
g2
I34
sg3
I596
sg4
V598
p1197
ssI597
(dp1198
g2
I34
sg3
I597
sg4
V599
p1199
ssI598
(dp1200
g2
I34
sg3
I598
sg4
V600
p1201
ssI599
(dp1202
g2
I34
sg3
I599
sg4
V601
p1203
ssI600
(dp1204
g2
I34
sg3
I600
sg4
V602
p1205
ssI601
(dp1206
g2
I34
sg3
I601
sg4
V603
p1207
ssI602
(dp1208
g2
I34
sg3
I602
sg4
V604
p1209
ssI603
(dp1210
g2
I34
sg3
I603
sg4
V605
p1211
ssI604
(dp1212
g2
I34
sg3
I604
sg4
V606
p1213
ssI605
(dp1214
g2
I34
sg3
I605
sg4
V607
p1215
ssI606
(dp1216
g2
I34
sg3
I606
sg4
V608
p1217
ssI607
(dp1218
g2
I34
sg3
I607
sg4
V609
p1219
ssI608
(dp1220
g2
I34
sg3
I608
sg4
V610
p1221
ssI609
(dp1222
g2
I34
sg3
I609
sg4
V611
p1223
ssI610
(dp1224
g2
I34
sg3
I610
sg4
V612
p1225
ssI611
(dp1226
g2
I34
sg3
I611
sg4
V613
p1227
ssI612
(dp1228
g2
I34
sg3
I612
sg4
V614
p1229
ssI613
(dp1230
g2
I34
sg3
I613
sg4
V615
p1231
ssI614
(dp1232
g2
I34
sg3
I614
sg4
V616
p1233
ssI615
(dp1234
g2
I34
sg3
I615
sg4
V617
p1235
ssI616
(dp1236
g2
I34
sg3
I616
sg4
V618
p1237
ssI617
(dp1238
g2
I35
sg3
I617
sg4
V619
p1239
ssI618
(dp1240
g2
I35
sg3
I618
sg4
V620
p1241
ssI619
(dp1242
g2
I35
sg3
I619
sg4
V621
p1243
ssI620
(dp1244
g2
I35
sg3
I620
sg4
V622
p1245
ssI621
(dp1246
g2
I35
sg3
I621
sg4
V623
p1247
ssI622
(dp1248
g2
I35
sg3
I622
sg4
V624
p1249
ssI623
(dp1250
g2
I35
sg3
I623
sg4
V625
p1251
ssI624
(dp1252
g2
I35
sg3
I624
sg4
V626
p1253
ssI625
(dp1254
g2
I35
sg3
I625
sg4
V627
p1255
ssI626
(dp1256
g2
I35
sg3
I626
sg4
V628
p1257
ssI627
(dp1258
g2
I35
sg3
I627
sg4
V629
p1259
ssI628
(dp1260
g2
I35
sg3
I628
sg4
V630
p1261
ssI629
(dp1262
g2
I35
sg3
I629
sg4
V631
p1263
ssI630
(dp1264
g2
I35
sg3
I630
sg4
V632
p1265
ssI631
(dp1266
g2
I35
sg3
I631
sg4
V633
p1267
ssI632
(dp1268
g2
I35
sg3
I632
sg4
V634
p1269
ssI633
(dp1270
g2
I35
sg3
I633
sg4
V635
p1271
ssI634
(dp1272
g2
I35
sg3
I634
sg4
V636
p1273
ssI635
(dp1274
g2
I35
sg3
I635
sg4
V637
p1275
ssI636
(dp1276
g2
I35
sg3
I636
sg4
V638
p1277
ssI637
(dp1278
g2
I35
sg3
I637
sg4
V639
p1279
ssI638
(dp1280
g2
I35
sg3
I638
sg4
V640
p1281
ssI639
(dp1282
g2
I35
sg3
I639
sg4
V641
p1283
ssI640
(dp1284
g2
I35
sg3
I640
sg4
V642
p1285
ssI641
(dp1286
g2
I36
sg3
I641
sg4
V643
p1287
ssI642
(dp1288
g2
I36
sg3
I642
sg4
V644
p1289
ssI643
(dp1290
g2
I36
sg3
I643
sg4
V645
p1291
ssI644
(dp1292
g2
I36
sg3
I644
sg4
V646
p1293
ssI645
(dp1294
g2
I36
sg3
I645
sg4
V647
p1295
ssI646
(dp1296
g2
I36
sg3
I646
sg4
V648
p1297
ssI647
(dp1298
g2
I36
sg3
I647
sg4
V649
p1299
ssI648
(dp1300
g2
I36
sg3
I648
sg4
V650
p1301
ssI649
(dp1302
g2
I36
sg3
I649
sg4
V651
p1303
ssI650
(dp1304
g2
I36
sg3
I650
sg4
V652
p1305
ssI651
(dp1306
g2
I36
sg3
I651
sg4
V653
p1307
ssI652
(dp1308
g2
I36
sg3
I652
sg4
V654
p1309
ssI653
(dp1310
g2
I36
sg3
I653
sg4
V655
p1311
ssI654
(dp1312
g2
I36
sg3
I654
sg4
V656
p1313
ssI655
(dp1314
g2
I36
sg3
I655
sg4
V657
p1315
ssI656
(dp1316
g2
I36
sg3
I656
sg4
V658
p1317
ssI657
(dp1318
g2
I36
sg3
I657
sg4
V659
p1319
ssI658
(dp1320
g2
I36
sg3
I658
sg4
V660
p1321
ssI659
(dp1322
g2
I36
sg3
I659
sg4
V661
p1323
ssI660
(dp1324
g2
I36
sg3
I660
sg4
V662
p1325
ssI661
(dp1326
g2
I36
sg3
I661
sg4
V663
p1327
ssI662
(dp1328
g2
I36
sg3
I662
sg4
V664
p1329
ssI663
(dp1330
g2
I36
sg3
I663
sg4
V665
p1331
ssI664
(dp1332
g2
I36
sg3
I664
sg4
V666
p1333
ssI665
(dp1334
g2
I36
sg3
I665
sg4
V667
p1335
ssI666
(dp1336
g2
I36
sg3
I666
sg4
V668
p1337
ssI667
(dp1338
g2
I36
sg3
I667
sg4
V669
p1339
ssI668
(dp1340
g2
I37
sg3
I668
sg4
V670
p1341
ssI669
(dp1342
g2
I37
sg3
I669
sg4
V671
p1343
ssI670
(dp1344
g2
I37
sg3
I670
sg4
V672
p1345
ssI671
(dp1346
g2
I37
sg3
I671
sg4
V673
p1347
ssI672
(dp1348
g2
I37
sg3
I672
sg4
V674
p1349
ssI673
(dp1350
g2
I37
sg3
I673
sg4
V675
p1351
ssI674
(dp1352
g2
I37
sg3
I674
sg4
V676
p1353
ssI675
(dp1354
g2
I37
sg3
I675
sg4
V677
p1355
ssI676
(dp1356
g2
I37
sg3
I676
sg4
V678
p1357
ssI677
(dp1358
g2
I37
sg3
I677
sg4
V679
p1359
ssI678
(dp1360
g2
I37
sg3
I678
sg4
V680
p1361
ssI679
(dp1362
g2
I37
sg3
I679
sg4
V681
p1363
ssI680
(dp1364
g2
I37
sg3
I680
sg4
V682
p1365
ssI681
(dp1366
g2
I37
sg3
I681
sg4
V683
p1367
ssI682
(dp1368
g2
I37
sg3
I682
sg4
V684
p1369
ssI683
(dp1370
g2
I37
sg3
I683
sg4
V685
p1371
ssI684
(dp1372
g2
I37
sg3
I684
sg4
V686
p1373
ssI685
(dp1374
g2
I37
sg3
I685
sg4
V687
p1375
ssI686
(dp1376
g2
I37
sg3
I686
sg4
V688
p1377
ssI687
(dp1378
g2
I37
sg3
I687
sg4
V689
p1379
ssI688
(dp1380
g2
I37
sg3
I688
sg4
V690
p1381
ssI689
(dp1382
g2
I37
sg3
I689
sg4
V691
p1383
ssI690
(dp1384
g2
I37
sg3
I690
sg4
V692
p1385
ssI691
(dp1386
g2
I37
sg3
I691
sg4
V693
p1387
ssI692
(dp1388
g2
I37
sg3
I692
sg4
V694
p1389
ssI693
(dp1390
g2
I37
sg3
I693
sg4
V695
p1391
ssI694
(dp1392
g2
I37
sg3
I694
sg4
V696
p1393
ssI695
(dp1394
g2
I37
sg3
I695
sg4
V697
p1395
ssI696
(dp1396
g2
I37
sg3
I696
sg4
V698
p1397
ssI697
(dp1398
g2
I37
sg3
I697
sg4
V699
p1399
ssI698
(dp1400
g2
I37
sg3
I698
sg4
V700
p1401
ssI699
(dp1402
g2
I37
sg3
I699
sg4
V701
p1403
ssI700
(dp1404
g2
I37
sg3
I700
sg4
V702
p1405
ssI701
(dp1406
g2
I37
sg3
I701
sg4
V703
p1407
ssI702
(dp1408
g2
I38
sg3
I702
sg4
V704
p1409
ssI703
(dp1410
g2
I38
sg3
I703
sg4
V705
p1411
ssI704
(dp1412
g2
I38
sg3
I704
sg4
V706
p1413
ssI705
(dp1414
g2
I38
sg3
I705
sg4
V707
p1415
ssI706
(dp1416
g2
I38
sg3
I706
sg4
V708
p1417
ssI707
(dp1418
g2
I38
sg3
I707
sg4
V709
p1419
ssI708
(dp1420
g2
I38
sg3
I708
sg4
V710
p1421
ssI709
(dp1422
g2
I38
sg3
I709
sg4
V711
p1423
ssI710
(dp1424
g2
I38
sg3
I710
sg4
V712
p1425
ssI711
(dp1426
g2
I38
sg3
I711
sg4
V713
p1427
ssI712
(dp1428
g2
I38
sg3
I712
sg4
V714
p1429
ssI713
(dp1430
g2
I38
sg3
I713
sg4
V715
p1431
ssI714
(dp1432
g2
I38
sg3
I714
sg4
V716
p1433
ssI715
(dp1434
g2
I38
sg3
I715
sg4
V717
p1435
ssI716
(dp1436
g2
I38
sg3
I716
sg4
V718
p1437
ssI717
(dp1438
g2
I38
sg3
I717
sg4
V719
p1439
ssI718
(dp1440
g2
I38
sg3
I718
sg4
V720
p1441
ssI719
(dp1442
g2
I38
sg3
I719
sg4
V721
p1443
ssI720
(dp1444
g2
I38
sg3
I720
sg4
V722
p1445
ssI721
(dp1446
g2
I39
sg3
I721
sg4
V723
p1447
ssI722
(dp1448
g2
I40
sg3
I722
sg4
V724
p1449
ssI723
(dp1450
g2
I40
sg3
I723
sg4
V725
p1451
ssI724
(dp1452
g2
I40
sg3
I724
sg4
V726
p1453
ssI725
(dp1454
g2
I40
sg3
I725
sg4
V727
p1455
ssI726
(dp1456
g2
I40
sg3
I726
sg4
V728
p1457
ssI727
(dp1458
g2
I40
sg3
I727
sg4
V729
p1459
ssI728
(dp1460
g2
I40
sg3
I728
sg4
V730
p1461
ssI729
(dp1462
g2
I40
sg3
I729
sg4
V731
p1463
ssI730
(dp1464
g2
I40
sg3
I730
sg4
V732
p1465
ssI731
(dp1466
g2
I40
sg3
I731
sg4
V733
p1467
ssI732
(dp1468
g2
I40
sg3
I732
sg4
V734
p1469
ssI733
(dp1470
g2
I41
sg3
I733
sg4
V735
p1471
ssI734
(dp1472
g2
I41
sg3
I734
sg4
V736
p1473
ssI735
(dp1474
g2
I41
sg3
I735
sg4
V737
p1475
ssI736
(dp1476
g2
I41
sg3
I736
sg4
V738
p1477
ssI737
(dp1478
g2
I41
sg3
I737
sg4
V739
p1479
ssI738
(dp1480
g2
I41
sg3
I738
sg4
V740
p1481
ssI739
(dp1482
g2
I41
sg3
I739
sg4
V741
p1483
ssI740
(dp1484
g2
I41
sg3
I740
sg4
V742
p1485
ssI741
(dp1486
g2
I41
sg3
I741
sg4
V743
p1487
ssI742
(dp1488
g2
I41
sg3
I742
sg4
V744
p1489
ssI743
(dp1490
g2
I41
sg3
I743
sg4
V745
p1491
ssI744
(dp1492
g2
I41
sg3
I744
sg4
V746
p1493
ssI745
(dp1494
g2
I41
sg3
I745
sg4
V747
p1495
ssI746
(dp1496
g2
I41
sg3
I746
sg4
V748
p1497
ssI747
(dp1498
g2
I41
sg3
I747
sg4
V749
p1499
ssI748
(dp1500
g2
I41
sg3
I748
sg4
V750
p1501
ssI749
(dp1502
g2
I41
sg3
I749
sg4
V751
p1503
ssI750
(dp1504
g2
I42
sg3
I750
sg4
V752
p1505
ssI751
(dp1506
g2
I42
sg3
I751
sg4
V753
p1507
ssI752
(dp1508
g2
I42
sg3
I752
sg4
V754
p1509
ssI753
(dp1510
g2
I42
sg3
I753
sg4
V755
p1511
ssI754
(dp1512
g2
I42
sg3
I754
sg4
V756
p1513
ssI755
(dp1514
g2
I42
sg3
I755
sg4
V757
p1515
ssI756
(dp1516
g2
I42
sg3
I756
sg4
V758
p1517
ssI757
(dp1518
g2
I42
sg3
I757
sg4
V759
p1519
ssI758
(dp1520
g2
I42
sg3
I758
sg4
V760
p1521
ssI759
(dp1522
g2
I42
sg3
I759
sg4
V761
p1523
ssI760
(dp1524
g2
I42
sg3
I760
sg4
V762
p1525
ssI761
(dp1526
g2
I42
sg3
I761
sg4
V763
p1527
ssI762
(dp1528
g2
I42
sg3
I762
sg4
V764
p1529
ssI763
(dp1530
g2
I42
sg3
I763
sg4
V765
p1531
ssI764
(dp1532
g2
I42
sg3
I764
sg4
V766
p1533
ssI765
(dp1534
g2
I42
sg3
I765
sg4
V767
p1535
ssI766
(dp1536
g2
I42
sg3
I766
sg4
V768
p1537
ssI767
(dp1538
g2
I42
sg3
I767
sg4
V769
p1539
ssI768
(dp1540
g2
I42
sg3
I768
sg4
V770
p1541
ssI769
(dp1542
g2
I42
sg3
I769
sg4
V771
p1543
ssI770
(dp1544
g2
I42
sg3
I770
sg4
V772
p1545
ssI771
(dp1546
g2
I42
sg3
I771
sg4
V773
p1547
ssI772
(dp1548
g2
I42
sg3
I772
sg4
V774
p1549
ssI773
(dp1550
g2
I42
sg3
I773
sg4
V775
p1551
ssI774
(dp1552
g2
I42
sg3
I774
sg4
V776
p1553
ssI775
(dp1554
g2
I42
sg3
I775
sg4
V777
p1555
ssI776
(dp1556
g2
I42
sg3
I776
sg4
V778
p1557
ssI777
(dp1558
g2
I43
sg3
I777
sg4
V779
p1559
ssI778
(dp1560
g2
I43
sg3
I778
sg4
V780
p1561
ssI779
(dp1562
g2
I43
sg3
I779
sg4
V781
p1563
ssI780
(dp1564
g2
I43
sg3
I780
sg4
V782
p1565
ssI781
(dp1566
g2
I43
sg3
I781
sg4
V783
p1567
ssI782
(dp1568
g2
I43
sg3
I782
sg4
V784
p1569
ssI783
(dp1570
g2
I43
sg3
I783
sg4
V785
p1571
ssI784
(dp1572
g2
I43
sg3
I784
sg4
V786
p1573
ssI785
(dp1574
g2
I43
sg3
I785
sg4
V787
p1575
ssI786
(dp1576
g2
I43
sg3
I786
sg4
V788
p1577
ssI787
(dp1578
g2
I43
sg3
I787
sg4
V789
p1579
ssI788
(dp1580
g2
I44
sg3
I788
sg4
V790
p1581
ssI789
(dp1582
g2
I44
sg3
I789
sg4
V791
p1583
ssI790
(dp1584
g2
I44
sg3
I790
sg4
V792
p1585
ssI791
(dp1586
g2
I44
sg3
I791
sg4
V793
p1587
ssI792
(dp1588
g2
I44
sg3
I792
sg4
V794
p1589
ssI793
(dp1590
g2
I44
sg3
I793
sg4
V795
p1591
ssI794
(dp1592
g2
I44
sg3
I794
sg4
V796
p1593
ssI795
(dp1594
g2
I45
sg3
I795
sg4
V797
p1595
ssI796
(dp1596
g2
I45
sg3
I796
sg4
V798
p1597
ssI797
(dp1598
g2
I45
sg3
I797
sg4
V799
p1599
ssI798
(dp1600
g2
I45
sg3
I798
sg4
V800
p1601
ssI799
(dp1602
g2
I45
sg3
I799
sg4
V801
p1603
ssI800
(dp1604
g2
I45
sg3
I800
sg4
V802
p1605
ssI801
(dp1606
g2
I45
sg3
I801
sg4
V803
p1607
ssI802
(dp1608
g2
I45
sg3
I802
sg4
V804
p1609
ssI803
(dp1610
g2
I45
sg3
I803
sg4
V805
p1611
ssI804
(dp1612
g2
I45
sg3
I804
sg4
V806
p1613
ssI805
(dp1614
g2
I46
sg3
I805
sg4
V807
p1615
ssI806
(dp1616
g2
I46
sg3
I806
sg4
V808
p1617
ssI807
(dp1618
g2
I46
sg3
I807
sg4
V809
p1619
ssI808
(dp1620
g2
I46
sg3
I808
sg4
V810
p1621
ssI809
(dp1622
g2
I46
sg3
I809
sg4
V811
p1623
ssI810
(dp1624
g2
I46
sg3
I810
sg4
V812
p1625
ssI811
(dp1626
g2
I46
sg3
I811
sg4
V813
p1627
ssI812
(dp1628
g2
I46
sg3
I812
sg4
V814
p1629
ssI813
(dp1630
g2
I46
sg3
I813
sg4
V815
p1631
ssI814
(dp1632
g2
I46
sg3
I814
sg4
V816
p1633
ssI815
(dp1634
g2
I46
sg3
I815
sg4
V817
p1635
ssI816
(dp1636
g2
I46
sg3
I816
sg4
V818
p1637
ssI817
(dp1638
g2
I46
sg3
I817
sg4
V819
p1639
ssI818
(dp1640
g2
I47
sg3
I818
sg4
V820
p1641
ssI819
(dp1642
g2
I47
sg3
I819
sg4
V821
p1643
ssI820
(dp1644
g2
I47
sg3
I820
sg4
V822
p1645
ssI821
(dp1646
g2
I47
sg3
I821
sg4
V823
p1647
ssI822
(dp1648
g2
I47
sg3
I822
sg4
V824
p1649
ssI823
(dp1650
g2
I47
sg3
I823
sg4
V825
p1651
ssI824
(dp1652
g2
I47
sg3
I824
sg4
V826
p1653
ssI825
(dp1654
g2
I47
sg3
I825
sg4
V827
p1655
ssI826
(dp1656
g2
I47
sg3
I826
sg4
V828
p1657
ssI827
(dp1658
g2
I47
sg3
I827
sg4
V829
p1659
ssI828
(dp1660
g2
I47
sg3
I828
sg4
V830
p1661
ssI829
(dp1662
g2
I47
sg3
I829
sg4
V831
p1663
ssI830
(dp1664
g2
I47
sg3
I830
sg4
V832
p1665
ssI831
(dp1666
g2
I47
sg3
I831
sg4
V833
p1667
ssI832
(dp1668
g2
I47
sg3
I832
sg4
V834
p1669
ssI833
(dp1670
g2
I47
sg3
I833
sg4
V835
p1671
ssI834
(dp1672
g2
I47
sg3
I834
sg4
V836
p1673
ssI835
(dp1674
g2
I47
sg3
I835
sg4
V837
p1675
ssI836
(dp1676
g2
I47
sg3
I836
sg4
V838
p1677
ssI837
(dp1678
g2
I47
sg3
I837
sg4
V839
p1679
ssI838
(dp1680
g2
I47
sg3
I838
sg4
V840
p1681
ssI839
(dp1682
g2
I47
sg3
I839
sg4
V841
p1683
ssI840
(dp1684
g2
I48
sg3
I840
sg4
V842
p1685
ssI841
(dp1686
g2
I48
sg3
I841
sg4
V843
p1687
ssI842
(dp1688
g2
I48
sg3
I842
sg4
V844
p1689
ssI843
(dp1690
g2
I48
sg3
I843
sg4
V845
p1691
ssI844
(dp1692
g2
I48
sg3
I844
sg4
V846
p1693
ssI845
(dp1694
g2
I48
sg3
I845
sg4
V847
p1695
ssI846
(dp1696
g2
I48
sg3
I846
sg4
V848
p1697
ssI847
(dp1698
g2
I48
sg3
I847
sg4
V849
p1699
ssI848
(dp1700
g2
I48
sg3
I848
sg4
V850
p1701
ssI849
(dp1702
g2
I48
sg3
I849
sg4
V851
p1703
ssI850
(dp1704
g2
I48
sg3
I850
sg4
V852
p1705
ssI851
(dp1706
g2
I48
sg3
I851
sg4
V853
p1707
ssI852
(dp1708
g2
I48
sg3
I852
sg4
V854
p1709
ssI853
(dp1710
g2
I48
sg3
I853
sg4
V855
p1711
ssI854
(dp1712
g2
I48
sg3
I854
sg4
V856
p1713
ssI855
(dp1714
g2
I48
sg3
I855
sg4
V857
p1715
ssI856
(dp1716
g2
I48
sg3
I856
sg4
V858
p1717
ssI857
(dp1718
g2
I48
sg3
I857
sg4
V859
p1719
ssI858
(dp1720
g2
I48
sg3
I858
sg4
V860
p1721
ssI859
(dp1722
g2
I49
sg3
I859
sg4
V861
p1723
ssI860
(dp1724
g2
I49
sg3
I860
sg4
V862
p1725
ssI861
(dp1726
g2
I49
sg3
I861
sg4
V863
p1727
ssI862
(dp1728
g2
I49
sg3
I862
sg4
V864
p1729
ssI863
(dp1730
g2
I49
sg3
I863
sg4
V865
p1731
ssI864
(dp1732
g2
I49
sg3
I864
sg4
V866
p1733
ssI865
(dp1734
g2
I49
sg3
I865
sg4
V867
p1735
ssI866
(dp1736
g2
I49
sg3
I866
sg4
V868
p1737
ssI867
(dp1738
g2
I49
sg3
I867
sg4
V869
p1739
ssI868
(dp1740
g2
I49
sg3
I868
sg4
V870
p1741
ssI869
(dp1742
g2
I49
sg3
I869
sg4
V871
p1743
ssI870
(dp1744
g2
I49
sg3
I870
sg4
V872
p1745
ssI871
(dp1746
g2
I49
sg3
I871
sg4
V873
p1747
ssI872
(dp1748
g2
I49
sg3
I872
sg4
V874
p1749
ssI873
(dp1750
g2
I49
sg3
I873
sg4
V875
p1751
ssI874
(dp1752
g2
I49
sg3
I874
sg4
V876
p1753
ssI875
(dp1754
g2
I49
sg3
I875
sg4
V877
p1755
ssI876
(dp1756
g2
I49
sg3
I876
sg4
V878
p1757
ssI877
(dp1758
g2
I49
sg3
I877
sg4
V879
p1759
ssI878
(dp1760
g2
I49
sg3
I878
sg4
V880
p1761
ssI879
(dp1762
g2
I49
sg3
I879
sg4
V881
p1763
ssI880
(dp1764
g2
I49
sg3
I880
sg4
V882
p1765
ssI881
(dp1766
g2
I49
sg3
I881
sg4
V883
p1767
ssI882
(dp1768
g2
I49
sg3
I882
sg4
V884
p1769
ssI883
(dp1770
g2
I49
sg3
I883
sg4
V885
p1771
ssI884
(dp1772
g2
I50
sg3
I884
sg4
V886
p1773
ssI885
(dp1774
g2
I50
sg3
I885
sg4
V887
p1775
ssI886
(dp1776
g2
I50
sg3
I886
sg4
V888
p1777
ssI887
(dp1778
g2
I50
sg3
I887
sg4
V889
p1779
ssI888
(dp1780
g2
I50
sg3
I888
sg4
V890
p1781
ssI889
(dp1782
g2
I50
sg3
I889
sg4
V891
p1783
ssI890
(dp1784
g2
I50
sg3
I890
sg4
V892
p1785
ssI891
(dp1786
g2
I50
sg3
I891
sg4
V893
p1787
ssI892
(dp1788
g2
I50
sg3
I892
sg4
V894
p1789
ssI893
(dp1790
g2
I50
sg3
I893
sg4
V895
p1791
ssI894
(dp1792
g2
I50
sg3
I894
sg4
V896
p1793
ssI895
(dp1794
g2
I50
sg3
I895
sg4
V897
p1795
ssI896
(dp1796
g2
I50
sg3
I896
sg4
V898
p1797
ssI897
(dp1798
g2
I50
sg3
I897
sg4
V899
p1799
ssI898
(dp1800
g2
I50
sg3
I898
sg4
V900
p1801
ssI899
(dp1802
g2
I50
sg3
I899
sg4
V901
p1803
ssI900
(dp1804
g2
I50
sg3
I900
sg4
V902
p1805
ssI901
(dp1806
g2
I50
sg3
I901
sg4
V903
p1807
ssI902
(dp1808
g2
I50
sg3
I902
sg4
V904
p1809
ssI903
(dp1810
g2
I50
sg3
I903
sg4
V905
p1811
ssI904
(dp1812
g2
I50
sg3
I904
sg4
V906
p1813
ssI905
(dp1814
g2
I51
sg3
I905
sg4
V907
p1815
ssI906
(dp1816
g2
I51
sg3
I906
sg4
V908
p1817
ssI907
(dp1818
g2
I51
sg3
I907
sg4
V909
p1819
ssI908
(dp1820
g2
I51
sg3
I908
sg4
V910
p1821
ssI909
(dp1822
g2
I51
sg3
I909
sg4
V911
p1823
ssI910
(dp1824
g2
I51
sg3
I910
sg4
V912
p1825
ssI911
(dp1826
g2
I51
sg3
I911
sg4
V913
p1827
ssI912
(dp1828
g2
I51
sg3
I912
sg4
V914
p1829
ssI913
(dp1830
g2
I51
sg3
I913
sg4
V915
p1831
ssI914
(dp1832
g2
I51
sg3
I914
sg4
V916
p1833
ssI915
(dp1834
g2
I51
sg3
I915
sg4
V917
p1835
ssI916
(dp1836
g2
I51
sg3
I916
sg4
V918
p1837
ssI917
(dp1838
g2
I51
sg3
I917
sg4
V919
p1839
ssI918
(dp1840
g2
I51
sg3
I918
sg4
V920
p1841
ssI919
(dp1842
g2
I51
sg3
I919
sg4
V921
p1843
ssI920
(dp1844
g2
I51
sg3
I920
sg4
V922
p1845
ssI921
(dp1846
g2
I51
sg3
I921
sg4
V923
p1847
ssI922
(dp1848
g2
I51
sg3
I922
sg4
V924
p1849
ssI923
(dp1850
g2
I51
sg3
I923
sg4
V925
p1851
ssI924
(dp1852
g2
I51
sg3
I924
sg4
V926
p1853
ssI925
(dp1854
g2
I51
sg3
I925
sg4
V927
p1855
ssI926
(dp1856
g2
I51
sg3
I926
sg4
V928
p1857
ssI927
(dp1858
g2
I51
sg3
I927
sg4
V929
p1859
ssI928
(dp1860
g2
I51
sg3
I928
sg4
V930
p1861
ssI929
(dp1862
g2
I51
sg3
I929
sg4
V931
p1863
ssI930
(dp1864
g2
I51
sg3
I930
sg4
V932
p1865
ssI931
(dp1866
g2
I51
sg3
I931
sg4
V933
p1867
ssI932
(dp1868
g2
I51
sg3
I932
sg4
V934
p1869
ssI933
(dp1870
g2
I51
sg3
I933
sg4
V935
p1871
ssI934
(dp1872
g2
I51
sg3
I934
sg4
V936
p1873
ssI935
(dp1874
g2
I51
sg3
I935
sg4
V937
p1875
ssI936
(dp1876
g2
I51
sg3
I936
sg4
V938
p1877
ssI937
(dp1878
g2
I52
sg3
I937
sg4
V939
p1879
ssI938
(dp1880
g2
I52
sg3
I938
sg4
V940
p1881
ssI939
(dp1882
g2
I52
sg3
I939
sg4
V941
p1883
ssI940
(dp1884
g2
I52
sg3
I940
sg4
V942
p1885
ssI941
(dp1886
g2
I52
sg3
I941
sg4
V943
p1887
ssI942
(dp1888
g2
I52
sg3
I942
sg4
V944
p1889
ssI943
(dp1890
g2
I52
sg3
I943
sg4
V945
p1891
ssI944
(dp1892
g2
I52
sg3
I944
sg4
V946
p1893
ssI945
(dp1894
g2
I52
sg3
I945
sg4
V947
p1895
ssI946
(dp1896
g2
I52
sg3
I946
sg4
V948
p1897
ssI947
(dp1898
g2
I52
sg3
I947
sg4
V949
p1899
ssI948
(dp1900
g2
I52
sg3
I948
sg4
V950
p1901
ssI949
(dp1902
g2
I52
sg3
I949
sg4
V951
p1903
ssI950
(dp1904
g2
I52
sg3
I950
sg4
V952
p1905
ssI951
(dp1906
g2
I52
sg3
I951
sg4
V953
p1907
ssI952
(dp1908
g2
I52
sg3
I952
sg4
V954
p1909
ssI953
(dp1910
g2
I52
sg3
I953
sg4
V955
p1911
ssI954
(dp1912
g2
I52
sg3
I954
sg4
V956
p1913
ssI955
(dp1914
g2
I52
sg3
I955
sg4
V957
p1915
ssI956
(dp1916
g2
I53
sg3
I956
sg4
V958
p1917
ssI957
(dp1918
g2
I53
sg3
I957
sg4
V959
p1919
ssI958
(dp1920
g2
I53
sg3
I958
sg4
V960
p1921
ssI959
(dp1922
g2
I53
sg3
I959
sg4
V961
p1923
ssI960
(dp1924
g2
I53
sg3
I960
sg4
V962
p1925
ssI961
(dp1926
g2
I53
sg3
I961
sg4
V963
p1927
ssI962
(dp1928
g2
I53
sg3
I962
sg4
V964
p1929
ssI963
(dp1930
g2
I53
sg3
I963
sg4
V965
p1931
ssI964
(dp1932
g2
I53
sg3
I964
sg4
V966
p1933
ssI965
(dp1934
g2
I53
sg3
I965
sg4
V967
p1935
ssI966
(dp1936
g2
I54
sg3
I966
sg4
V968
p1937
ssI967
(dp1938
g2
I54
sg3
I967
sg4
V969
p1939
ssI968
(dp1940
g2
I54
sg3
I968
sg4
V970
p1941
ssI969
(dp1942
g2
I54
sg3
I969
sg4
V971
p1943
ssI970
(dp1944
g2
I54
sg3
I970
sg4
V972
p1945
ssI971
(dp1946
g2
I54
sg3
I971
sg4
V973
p1947
ssI972
(dp1948
g2
I54
sg3
I972
sg4
V974
p1949
ssI973
(dp1950
g2
I54
sg3
I973
sg4
V975
p1951
ssI974
(dp1952
g2
I54
sg3
I974
sg4
V976
p1953
ssI975
(dp1954
g2
I54
sg3
I975
sg4
V977
p1955
ssI976
(dp1956
g2
I54
sg3
I976
sg4
V978
p1957
ssI977
(dp1958
g2
I54
sg3
I977
sg4
V979
p1959
ssI978
(dp1960
g2
I54
sg3
I978
sg4
V980
p1961
ssI979
(dp1962
g2
I54
sg3
I979
sg4
V981
p1963
ssI980
(dp1964
g2
I54
sg3
I980
sg4
V982
p1965
ssI981
(dp1966
g2
I54
sg3
I981
sg4
V983
p1967
ssI982
(dp1968
g2
I54
sg3
I982
sg4
V984
p1969
ssI983
(dp1970
g2
I54
sg3
I983
sg4
V985
p1971
ssI984
(dp1972
g2
I54
sg3
I984
sg4
V986
p1973
ssI985
(dp1974
g2
I54
sg3
I985
sg4
V987
p1975
ssI986
(dp1976
g2
I54
sg3
I986
sg4
V988
p1977
ssI987
(dp1978
g2
I54
sg3
I987
sg4
V989
p1979
ssI988
(dp1980
g2
I54
sg3
I988
sg4
V990
p1981
ssI989
(dp1982
g2
I54
sg3
I989
sg4
V991
p1983
ssI990
(dp1984
g2
I54
sg3
I990
sg4
V992
p1985
ssI991
(dp1986
g2
I54
sg3
I991
sg4
V993
p1987
ssI992
(dp1988
g2
I54
sg3
I992
sg4
V994
p1989
ssI993
(dp1990
g2
I54
sg3
I993
sg4
V995
p1991
ssI994
(dp1992
g2
I54
sg3
I994
sg4
V996
p1993
ssI995
(dp1994
g2
I54
sg3
I995
sg4
V997
p1995
ssI996
(dp1996
g2
I54
sg3
I996
sg4
V998
p1997
ssI997
(dp1998
g2
I54
sg3
I997
sg4
V999
p1999
ssI998
(dp2000
g2
I54
sg3
I998
sg4
V1000
p2001
ssI999
(dp2002
g2
I54
sg3
I999
sg4
V1001
p2003
ssI1000
(dp2004
g2
I54
sg3
I1000
sg4
V1002
p2005
ssI1001
(dp2006
g2
I54
sg3
I1001
sg4
V1003
p2007
ssI1002
(dp2008
g2
I54
sg3
I1002
sg4
V1004
p2009
ssI1003
(dp2010
g2
I55
sg3
I1003
sg4
V1005
p2011
ssI1004
(dp2012
g2
I55
sg3
I1004
sg4
V1006
p2013
ssI1005
(dp2014
g2
I55
sg3
I1005
sg4
V1007
p2015
ssI1006
(dp2016
g2
I55
sg3
I1006
sg4
V1008
p2017
ssI1007
(dp2018
g2
I55
sg3
I1007
sg4
V1009
p2019
ssI1008
(dp2020
g2
I55
sg3
I1008
sg4
V1010
p2021
ssI1009
(dp2022
g2
I55
sg3
I1009
sg4
V1011
p2023
ssI1010
(dp2024
g2
I55
sg3
I1010
sg4
V1012
p2025
ssI1011
(dp2026
g2
I55
sg3
I1011
sg4
V1013
p2027
ssI1012
(dp2028
g2
I55
sg3
I1012
sg4
V1014
p2029
ssI1013
(dp2030
g2
I55
sg3
I1013
sg4
V1015
p2031
ssI1014
(dp2032
g2
I55
sg3
I1014
sg4
V1016
p2033
ssI1015
(dp2034
g2
I55
sg3
I1015
sg4
V1017
p2035
ssI1016
(dp2036
g2
I55
sg3
I1016
sg4
V1018
p2037
ssI1017
(dp2038
g2
I55
sg3
I1017
sg4
V1019
p2039
ssI1018
(dp2040
g2
I55
sg3
I1018
sg4
V1020
p2041
ssI1019
(dp2042
g2
I55
sg3
I1019
sg4
V1021
p2043
ssI1020
(dp2044
g2
I55
sg3
I1020
sg4
V1022
p2045
ssI1021
(dp2046
g2
I55
sg3
I1021
sg4
V1023
p2047
ssI1022
(dp2048
g2
I56
sg3
I1022
sg4
V1024
p2049
ssI1023
(dp2050
g2
I56
sg3
I1023
sg4
V1025
p2051
ssI1024
(dp2052
g2
I56
sg3
I1024
sg4
V1026
p2053
ssI1025
(dp2054
g2
I56
sg3
I1025
sg4
V1027
p2055
ssI1026
(dp2056
g2
I56
sg3
I1026
sg4
V1028
p2057
ssI1027
(dp2058
g2
I56
sg3
I1027
sg4
V1029
p2059
ssI1028
(dp2060
g2
I56
sg3
I1028
sg4
V1030
p2061
ssI1029
(dp2062
g2
I56
sg3
I1029
sg4
V1031
p2063
ssI1030
(dp2064
g2
I56
sg3
I1030
sg4
V1032
p2065
ssI1031
(dp2066
g2
I56
sg3
I1031
sg4
V1033
p2067
ssI1032
(dp2068
g2
I56
sg3
I1032
sg4
V1034
p2069
ssI1033
(dp2070
g2
I56
sg3
I1033
sg4
V1035
p2071
ssI1034
(dp2072
g2
I56
sg3
I1034
sg4
V1036
p2073
ssI1035
(dp2074
g2
I56
sg3
I1035
sg4
V1037
p2075
ssI1036
(dp2076
g2
I56
sg3
I1036
sg4
V1038
p2077
ssI1037
(dp2078
g2
I56
sg3
I1037
sg4
V1039
p2079
ssI1038
(dp2080
g2
I56
sg3
I1038
sg4
V1040
p2081
ssI1039
(dp2082
g2
I56
sg3
I1039
sg4
V1041
p2083
ssI1040
(dp2084
g2
I56
sg3
I1040
sg4
V1042
p2085
ssI1041
(dp2086
g2
I56
sg3
I1041
sg4
V1043
p2087
ssI1042
(dp2088
g2
I56
sg3
I1042
sg4
V1044
p2089
ssI1043
(dp2090
g2
I56
sg3
I1043
sg4
V1045
p2091
ssI1044
(dp2092
g2
I56
sg3
I1044
sg4
V1046
p2093
ssI1045
(dp2094
g2
I56
sg3
I1045
sg4
V1047
p2095
ssI1046
(dp2096
g2
I56
sg3
I1046
sg4
V1048
p2097
ssI1047
(dp2098
g2
I56
sg3
I1047
sg4
V1049
p2099
ssI1048
(dp2100
g2
I56
sg3
I1048
sg4
V1050
p2101
ssI1049
(dp2102
g2
I56
sg3
I1049
sg4
V1051
p2103
ssI1050
(dp2104
g2
I56
sg3
I1050
sg4
V1052
p2105
ssI1051
(dp2106
g2
I56
sg3
I1051
sg4
V1053
p2107
ssI1052
(dp2108
g2
I56
sg3
I1052
sg4
V1054
p2109
ssI1053
(dp2110
g2
I56
sg3
I1053
sg4
V1055
p2111
ssI1054
(dp2112
g2
I56
sg3
I1054
sg4
V1056
p2113
ssI1055
(dp2114
g2
I56
sg3
I1055
sg4
V1057
p2115
ssI1056
(dp2116
g2
I56
sg3
I1056
sg4
V1058
p2117
ssI1057
(dp2118
g2
I57
sg3
I1057
sg4
V1059
p2119
ssI1058
(dp2120
g2
I57
sg3
I1058
sg4
V1060
p2121
ssI1059
(dp2122
g2
I57
sg3
I1059
sg4
V1061
p2123
ssI1060
(dp2124
g2
I57
sg3
I1060
sg4
V1062
p2125
ssI1061
(dp2126
g2
I57
sg3
I1061
sg4
V1063
p2127
ssI1062
(dp2128
g2
I57
sg3
I1062
sg4
V1064
p2129
ssI1063
(dp2130
g2
I57
sg3
I1063
sg4
V1065
p2131
ssI1064
(dp2132
g2
I57
sg3
I1064
sg4
V1066
p2133
ssI1065
(dp2134
g2
I58
sg3
I1065
sg4
V1067
p2135
ssI1066
(dp2136
g2
I58
sg3
I1066
sg4
V1068
p2137
ssI1067
(dp2138
g2
I58
sg3
I1067
sg4
V1069
p2139
ssI1068
(dp2140
g2
I58
sg3
I1068
sg4
V1070
p2141
ssI1069
(dp2142
g2
I58
sg3
I1069
sg4
V1071
p2143
ssI1070
(dp2144
g2
I58
sg3
I1070
sg4
V1072
p2145
ssI1071
(dp2146
g2
I58
sg3
I1071
sg4
V1073
p2147
ssI1072
(dp2148
g2
I58
sg3
I1072
sg4
V1074
p2149
ssI1073
(dp2150
g2
I58
sg3
I1073
sg4
V1075
p2151
ssI1074
(dp2152
g2
I58
sg3
I1074
sg4
V1076
p2153
ssI1075
(dp2154
g2
I58
sg3
I1075
sg4
V1077
p2155
ssI1076
(dp2156
g2
I58
sg3
I1076
sg4
V1078
p2157
ssI1077
(dp2158
g2
I58
sg3
I1077
sg4
V1079
p2159
ssI1078
(dp2160
g2
I58
sg3
I1078
sg4
V1080
p2161
ssI1079
(dp2162
g2
I59
sg3
I1079
sg4
V1081
p2163
ssI1080
(dp2164
g2
I59
sg3
I1080
sg4
V1082
p2165
ssI1081
(dp2166
g2
I59
sg3
I1081
sg4
V1083
p2167
ssI1082
(dp2168
g2
I59
sg3
I1082
sg4
V1084
p2169
ssI1083
(dp2170
g2
I59
sg3
I1083
sg4
V1085
p2171
ssI1084
(dp2172
g2
I59
sg3
I1084
sg4
V1086
p2173
ssI1085
(dp2174
g2
I59
sg3
I1085
sg4
V1087
p2175
ssI1086
(dp2176
g2
I59
sg3
I1086
sg4
V1088
p2177
ssI1087
(dp2178
g2
I59
sg3
I1087
sg4
V1089
p2179
ssI1088
(dp2180
g2
I59
sg3
I1088
sg4
V1090
p2181
ssI1089
(dp2182
g2
I60
sg3
I1089
sg4
V1091
p2183
ssI1090
(dp2184
g2
I60
sg3
I1090
sg4
V1092
p2185
ssI1091
(dp2186
g2
I60
sg3
I1091
sg4
V1093
p2187
ssI1092
(dp2188
g2
I60
sg3
I1092
sg4
V1094
p2189
ssI1093
(dp2190
g2
I60
sg3
I1093
sg4
V1095
p2191
ssI1094
(dp2192
g2
I60
sg3
I1094
sg4
V1096
p2193
ssI1095
(dp2194
g2
I60
sg3
I1095
sg4
V1097
p2195
ssI1096
(dp2196
g2
I60
sg3
I1096
sg4
V1098
p2197
ssI1097
(dp2198
g2
I60
sg3
I1097
sg4
V1099
p2199
ssI1098
(dp2200
g2
I60
sg3
I1098
sg4
V1100
p2201
ssI1099
(dp2202
g2
I60
sg3
I1099
sg4
V1101
p2203
ssI1100
(dp2204
g2
I60
sg3
I1100
sg4
V1102
p2205
ssI1101
(dp2206
g2
I61
sg3
I1101
sg4
V1103
p2207
ssI1102
(dp2208
g2
I61
sg3
I1102
sg4
V1104
p2209
ssI1103
(dp2210
g2
I61
sg3
I1103
sg4
V1105
p2211
ssI1104
(dp2212
g2
I61
sg3
I1104
sg4
V1106
p2213
ssI1105
(dp2214
g2
I61
sg3
I1105
sg4
V1107
p2215
ssI1106
(dp2216
g2
I61
sg3
I1106
sg4
V1108
p2217
ssI1107
(dp2218
g2
I61
sg3
I1107
sg4
V1109
p2219
ssI1108
(dp2220
g2
I61
sg3
I1108
sg4
V1110
p2221
ssI1109
(dp2222
g2
I61
sg3
I1109
sg4
V1111
p2223
ssI1110
(dp2224
g2
I61
sg3
I1110
sg4
V1112
p2225
ssI1111
(dp2226
g2
I61
sg3
I1111
sg4
V1113
p2227
ssI1112
(dp2228
g2
I61
sg3
I1112
sg4
V1114
p2229
ssI1113
(dp2230
g2
I61
sg3
I1113
sg4
V1115
p2231
ssI1114
(dp2232
g2
I61
sg3
I1114
sg4
V1116
p2233
ssI1115
(dp2234
g2
I61
sg3
I1115
sg4
V1117
p2235
ssI1116
(dp2236
g2
I61
sg3
I1116
sg4
V1118
p2237
ssI1117
(dp2238
g2
I61
sg3
I1117
sg4
V1119
p2239
ssI1118
(dp2240
g2
I61
sg3
I1118
sg4
V1120
p2241
ssI1119
(dp2242
g2
I62
sg3
I1119
sg4
V1121
p2243
ssI1120
(dp2244
g2
I62
sg3
I1120
sg4
V1122
p2245
ssI1121
(dp2246
g2
I62
sg3
I1121
sg4
V1123
p2247
ssI1122
(dp2248
g2
I62
sg3
I1122
sg4
V1124
p2249
ssI1123
(dp2250
g2
I62
sg3
I1123
sg4
V1125
p2251
ssI1124
(dp2252
g2
I62
sg3
I1124
sg4
V1126
p2253
ssI1125
(dp2254
g2
I62
sg3
I1125
sg4
V1127
p2255
ssI1126
(dp2256
g2
I62
sg3
I1126
sg4
V1128
p2257
ssI1127
(dp2258
g2
I62
sg3
I1127
sg4
V1129
p2259
ssI1128
(dp2260
g2
I62
sg3
I1128
sg4
V1130
p2261
ssI1129
(dp2262
g2
I63
sg3
I1129
sg4
V1131
p2263
ssI1130
(dp2264
g2
I63
sg3
I1130
sg4
V1132
p2265
ssI1131
(dp2266
g2
I63
sg3
I1131
sg4
V1133
p2267
ssI1132
(dp2268
g2
I63
sg3
I1132
sg4
V1134
p2269
ssI1133
(dp2270
g2
I63
sg3
I1133
sg4
V1135
p2271
ssI1134
(dp2272
g2
I63
sg3
I1134
sg4
V1136
p2273
ssI1135
(dp2274
g2
I63
sg3
I1135
sg4
V1137
p2275
ssI1136
(dp2276
g2
I63
sg3
I1136
sg4
V1138
p2277
ssI1137
(dp2278
g2
I63
sg3
I1137
sg4
V1139
p2279
ssI1138
(dp2280
g2
I63
sg3
I1138
sg4
V1140
p2281
ssI1139
(dp2282
g2
I63
sg3
I1139
sg4
V1141
p2283
ssI1140
(dp2284
g2
I63
sg3
I1140
sg4
V1142
p2285
ssI1141
(dp2286
g2
I63
sg3
I1141
sg4
V1143
p2287
ssI1142
(dp2288
g2
I63
sg3
I1142
sg4
V1144
p2289
ssI1143
(dp2290
g2
I63
sg3
I1143
sg4
V1145
p2291
ssI1144
(dp2292
g2
I63
sg3
I1144
sg4
V1146
p2293
ssI1145
(dp2294
g2
I63
sg3
I1145
sg4
V1147
p2295
ssI1146
(dp2296
g2
I63
sg3
I1146
sg4
V1148
p2297
ssI1147
(dp2298
g2
I64
sg3
I1147
sg4
V1149
p2299
ssI1148
(dp2300
g2
I64
sg3
I1148
sg4
V1150
p2301
ssI1149
(dp2302
g2
I64
sg3
I1149
sg4
V1151
p2303
ssI1150
(dp2304
g2
I64
sg3
I1150
sg4
V1152
p2305
ssI1151
(dp2306
g2
I64
sg3
I1151
sg4
V1153
p2307
ssI1152
(dp2308
g2
I64
sg3
I1152
sg4
V1154
p2309
ssI1153
(dp2310
g2
I64
sg3
I1153
sg4
V1155
p2311
ssI1154
(dp2312
g2
I64
sg3
I1154
sg4
V1156
p2313
ssI1155
(dp2314
g2
I65
sg3
I1155
sg4
V1157
p2315
ssI1156
(dp2316
g2
I65
sg3
I1156
sg4
V1158
p2317
ssI1157
(dp2318
g2
I65
sg3
I1157
sg4
V1159
p2319
ssI1158
(dp2320
g2
I65
sg3
I1158
sg4
V1160
p2321
ssI1159
(dp2322
g2
I65
sg3
I1159
sg4
V1161
p2323
ssI1160
(dp2324
g2
I65
sg3
I1160
sg4
V1162
p2325
ssI1161
(dp2326
g2
I65
sg3
I1161
sg4
V1163
p2327
ssI1162
(dp2328
g2
I65
sg3
I1162
sg4
V1164
p2329
ssI1163
(dp2330
g2
I65
sg3
I1163
sg4
V1165
p2331
ssI1164
(dp2332
g2
I65
sg3
I1164
sg4
V1166
p2333
ssI1165
(dp2334
g2
I65
sg3
I1165
sg4
V1167
p2335
ssI1166
(dp2336
g2
I65
sg3
I1166
sg4
V1168
p2337
ssI1167
(dp2338
g2
I65
sg3
I1167
sg4
V1169
p2339
ssI1168
(dp2340
g2
I66
sg3
I1168
sg4
V1170
p2341
ssI1169
(dp2342
g2
I66
sg3
I1169
sg4
V1171
p2343
ssI1170
(dp2344
g2
I66
sg3
I1170
sg4
V1172
p2345
ssI1171
(dp2346
g2
I66
sg3
I1171
sg4
V1173
p2347
ssI1172
(dp2348
g2
I66
sg3
I1172
sg4
V1174
p2349
ssI1173
(dp2350
g2
I66
sg3
I1173
sg4
V1175
p2351
ssI1174
(dp2352
g2
I66
sg3
I1174
sg4
V1176
p2353
ssI1175
(dp2354
g2
I66
sg3
I1175
sg4
V1177
p2355
ssI1176
(dp2356
g2
I67
sg3
I1176
sg4
V1178
p2357
ssI1177
(dp2358
g2
I67
sg3
I1177
sg4
V1179
p2359
ssI1178
(dp2360
g2
I67
sg3
I1178
sg4
V1180
p2361
ssI1179
(dp2362
g2
I67
sg3
I1179
sg4
V1181
p2363
ssI1180
(dp2364
g2
I67
sg3
I1180
sg4
V1182
p2365
ssI1181
(dp2366
g2
I67
sg3
I1181
sg4
V1183
p2367
ssI1182
(dp2368
g2
I67
sg3
I1182
sg4
V1184
p2369
ssI1183
(dp2370
g2
I68
sg3
I1183
sg4
V1185
p2371
ssI1184
(dp2372
g2
I68
sg3
I1184
sg4
V1186
p2373
ssI1185
(dp2374
g2
I68
sg3
I1185
sg4
V1187
p2375
ssI1186
(dp2376
g2
I68
sg3
I1186
sg4
V1188
p2377
ssI1187
(dp2378
g2
I68
sg3
I1187
sg4
V1189
p2379
ssI1188
(dp2380
g2
I68
sg3
I1188
sg4
V1190
p2381
ssI1189
(dp2382
g2
I68
sg3
I1189
sg4
V1191
p2383
ssI1190
(dp2384
g2
I68
sg3
I1190
sg4
V1192
p2385
ssI1191
(dp2386
g2
I68
sg3
I1191
sg4
V1193
p2387
ssI1192
(dp2388
g2
I68
sg3
I1192
sg4
V1194
p2389
ssI1193
(dp2390
g2
I68
sg3
I1193
sg4
V1195
p2391
ssI1194
(dp2392
g2
I69
sg3
I1194
sg4
V1196
p2393
ssI1195
(dp2394
g2
I69
sg3
I1195
sg4
V1197
p2395
ssI1196
(dp2396
g2
I69
sg3
I1196
sg4
V1198
p2397
ssI1197
(dp2398
g2
I69
sg3
I1197
sg4
V1199
p2399
ssI1198
(dp2400
g2
I69
sg3
I1198
sg4
V1200
p2401
ssI1199
(dp2402
g2
I69
sg3
I1199
sg4
V1201
p2403
ssI1200
(dp2404
g2
I69
sg3
I1200
sg4
V1202
p2405
ssI1201
(dp2406
g2
I69
sg3
I1201
sg4
V1203
p2407
ssI1202
(dp2408
g2
I69
sg3
I1202
sg4
V1204
p2409
ssI1203
(dp2410
g2
I69
sg3
I1203
sg4
V1205
p2411
ssI1204
(dp2412
g2
I69
sg3
I1204
sg4
V1206
p2413
ssI1205
(dp2414
g2
I69
sg3
I1205
sg4
V1207
p2415
ssI1206
(dp2416
g2
I69
sg3
I1206
sg4
V1208
p2417
ssI1207
(dp2418
g2
I69
sg3
I1207
sg4
V1209
p2419
ssI1208
(dp2420
g2
I70
sg3
I1208
sg4
V1210
p2421
ssI1209
(dp2422
g2
I70
sg3
I1209
sg4
V1211
p2423
ssI1210
(dp2424
g2
I70
sg3
I1210
sg4
V1212
p2425
ssI1211
(dp2426
g2
I70
sg3
I1211
sg4
V1213
p2427
ssI1212
(dp2428
g2
I70
sg3
I1212
sg4
V1214
p2429
ssI1213
(dp2430
g2
I70
sg3
I1213
sg4
V1215
p2431
ssI1214
(dp2432
g2
I70
sg3
I1214
sg4
V1216
p2433
ssI1215
(dp2434
g2
I70
sg3
I1215
sg4
V1217
p2435
ssI1216
(dp2436
g2
I70
sg3
I1216
sg4
V1218
p2437
ssI1217
(dp2438
g2
I70
sg3
I1217
sg4
V1219
p2439
ssI1218
(dp2440
g2
I70
sg3
I1218
sg4
V1220
p2441
ssI1219
(dp2442
g2
I70
sg3
I1219
sg4
V1221
p2443
ssI1220
(dp2444
g2
I70
sg3
I1220
sg4
V1222
p2445
ssI1221
(dp2446
g2
I70
sg3
I1221
sg4
V1223
p2447
ssI1222
(dp2448
g2
I70
sg3
I1222
sg4
V1224
p2449
ssI1223
(dp2450
g2
I71
sg3
I1223
sg4
V1225
p2451
ssI1224
(dp2452
g2
I71
sg3
I1224
sg4
V1226
p2453
ssI1225
(dp2454
g2
I71
sg3
I1225
sg4
V1227
p2455
ssI1226
(dp2456
g2
I71
sg3
I1226
sg4
V1228
p2457
ssI1227
(dp2458
g2
I71
sg3
I1227
sg4
V1229
p2459
ssI1228
(dp2460
g2
I71
sg3
I1228
sg4
V1230
p2461
ssI1229
(dp2462
g2
I72
sg3
I1229
sg4
V1231
p2463
ssI1230
(dp2464
g2
I72
sg3
I1230
sg4
V1232
p2465
ssI1231
(dp2466
g2
I72
sg3
I1231
sg4
V1233
p2467
ssI1232
(dp2468
g2
I72
sg3
I1232
sg4
V1234
p2469
ssI1233
(dp2470
g2
I72
sg3
I1233
sg4
V1235
p2471
ssI1234
(dp2472
g2
I72
sg3
I1234
sg4
V1236
p2473
ssI1235
(dp2474
g2
I72
sg3
I1235
sg4
V1237
p2475
ssI1236
(dp2476
g2
I73
sg3
I1236
sg4
V1238
p2477
ssI1237
(dp2478
g2
I73
sg3
I1237
sg4
V1239
p2479
ssI1238
(dp2480
g2
I73
sg3
I1238
sg4
V1240
p2481
ssI1239
(dp2482
g2
I73
sg3
I1239
sg4
V1241
p2483
ssI1240
(dp2484
g2
I73
sg3
I1240
sg4
V1242
p2485
ssI1241
(dp2486
g2
I74
sg3
I1241
sg4
V1243
p2487
ssI1242
(dp2488
g2
I74
sg3
I1242
sg4
V1244
p2489
ssI1243
(dp2490
g2
I74
sg3
I1243
sg4
V1245
p2491
ssI1244
(dp2492
g2
I74
sg3
I1244
sg4
V1246
p2493
ssI1245
(dp2494
g2
I74
sg3
I1245
sg4
V1247
p2495
ssI1246
(dp2496
g2
I74
sg3
I1246
sg4
V1248
p2497
ssI1247
(dp2498
g2
I74
sg3
I1247
sg4
V1249
p2499
ssI1248
(dp2500
g2
I74
sg3
I1248
sg4
V1250
p2501
ssI1249
(dp2502
g2
I74
sg3
I1249
sg4
V1251
p2503
ssI1250
(dp2504
g2
I74
sg3
I1250
sg4
V1252
p2505
ssI1251
(dp2506
g2
I74
sg3
I1251
sg4
V1253
p2507
ssI1252
(dp2508
g2
I74
sg3
I1252
sg4
V1254
p2509
ssI1253
(dp2510
g2
I74
sg3
I1253
sg4
V1255
p2511
ssI1254
(dp2512
g2
I74
sg3
I1254
sg4
V1256
p2513
ssI1255
(dp2514
g2
I74
sg3
I1255
sg4
V1257
p2515
ssI1256
(dp2516
g2
I74
sg3
I1256
sg4
V1258
p2517
ssI1257
(dp2518
g2
I74
sg3
I1257
sg4
V1259
p2519
ssI1258
(dp2520
g2
I75
sg3
I1258
sg4
V1260
p2521
ssI1259
(dp2522
g2
I75
sg3
I1259
sg4
V1261
p2523
ssI1260
(dp2524
g2
I75
sg3
I1260
sg4
V1262
p2525
ssI1261
(dp2526
g2
I75
sg3
I1261
sg4
V1263
p2527
ssI1262
(dp2528
g2
I75
sg3
I1262
sg4
V1264
p2529
ssI1263
(dp2530
g2
I75
sg3
I1263
sg4
V1265
p2531
ssI1264
(dp2532
g2
I75
sg3
I1264
sg4
V1266
p2533
ssI1265
(dp2534
g2
I75
sg3
I1265
sg4
V1267
p2535
ssI1266
(dp2536
g2
I75
sg3
I1266
sg4
V1268
p2537
ssI1267
(dp2538
g2
I75
sg3
I1267
sg4
V1269
p2539
ssI1268
(dp2540
g2
I75
sg3
I1268
sg4
V1270
p2541
ssI1269
(dp2542
g2
I75
sg3
I1269
sg4
V1271
p2543
ssI1270
(dp2544
g2
I75
sg3
I1270
sg4
V1272
p2545
ssI1271
(dp2546
g2
I75
sg3
I1271
sg4
V1273
p2547
ssI1272
(dp2548
g2
I75
sg3
I1272
sg4
V1274
p2549
ssI1273
(dp2550
g2
I75
sg3
I1273
sg4
V1275
p2551
ssI1274
(dp2552
g2
I75
sg3
I1274
sg4
V1276
p2553
ssI1275
(dp2554
g2
I75
sg3
I1275
sg4
V1277
p2555
ssI1276
(dp2556
g2
I76
sg3
I1276
sg4
V1278
p2557
ssI1277
(dp2558
g2
I76
sg3
I1277
sg4
V1279
p2559
ssI1278
(dp2560
g2
I76
sg3
I1278
sg4
V1280
p2561
ssI1279
(dp2562
g2
I76
sg3
I1279
sg4
V1281
p2563
ssI1280
(dp2564
g2
I76
sg3
I1280
sg4
V1282
p2565
ssI1281
(dp2566
g2
I76
sg3
I1281
sg4
V1283
p2567
ssI1282
(dp2568
g2
I76
sg3
I1282
sg4
V1284
p2569
ssI1283
(dp2570
g2
I77
sg3
I1283
sg4
V1285
p2571
ssI1284
(dp2572
g2
I77
sg3
I1284
sg4
V1286
p2573
ssI1285
(dp2574
g2
I77
sg3
I1285
sg4
V1287
p2575
ssI1286
(dp2576
g2
I77
sg3
I1286
sg4
V1288
p2577
ssI1287
(dp2578
g2
I77
sg3
I1287
sg4
V1289
p2579
ssI1288
(dp2580
g2
I77
sg3
I1288
sg4
V1290
p2581
ssI1289
(dp2582
g2
I77
sg3
I1289
sg4
V1291
p2583
ssI1290
(dp2584
g2
I77
sg3
I1290
sg4
V1292
p2585
ssI1291
(dp2586
g2
I77
sg3
I1291
sg4
V1293
p2587
ssI1292
(dp2588
g2
I78
sg3
I1292
sg4
V1294
p2589
ssI1293
(dp2590
g2
I78
sg3
I1293
sg4
V1295
p2591
ssI1294
(dp2592
g2
I78
sg3
I1294
sg4
V1296
p2593
ssI1295
(dp2594
g2
I78
sg3
I1295
sg4
V1297
p2595
ssI1296
(dp2596
g2
I78
sg3
I1296
sg4
V1298
p2597
ssI1297
(dp2598
g2
I78
sg3
I1297
sg4
V1299
p2599
ssI1298
(dp2600
g2
I78
sg3
I1298
sg4
V1300
p2601
ssI1299
(dp2602
g2
I78
sg3
I1299
sg4
V1301
p2603
ssI1300
(dp2604
g2
I78
sg3
I1300
sg4
V1302
p2605
ssI1301
(dp2606
g2
I78
sg3
I1301
sg4
V1303
p2607
ssI1302
(dp2608
g2
I78
sg3
I1302
sg4
V1304
p2609
ssI1303
(dp2610
g2
I78
sg3
I1303
sg4
V1305
p2611
ssI1304
(dp2612
g2
I78
sg3
I1304
sg4
V1306
p2613
ssI1305
(dp2614
g2
I78
sg3
I1305
sg4
V1307
p2615
ssI1306
(dp2616
g2
I78
sg3
I1306
sg4
V1308
p2617
ssI1307
(dp2618
g2
I78
sg3
I1307
sg4
V1309
p2619
ssI1308
(dp2620
g2
I78
sg3
I1308
sg4
V1310
p2621
ssI1309
(dp2622
g2
I78
sg3
I1309
sg4
V1311
p2623
ssI1310
(dp2624
g2
I78
sg3
I1310
sg4
V1312
p2625
ssI1311
(dp2626
g2
I78
sg3
I1311
sg4
V1313
p2627
ssI1312
(dp2628
g2
I78
sg3
I1312
sg4
V1314
p2629
ssI1313
(dp2630
g2
I78
sg3
I1313
sg4
V1315
p2631
ssI1314
(dp2632
g2
I78
sg3
I1314
sg4
V1316
p2633
ssI1315
(dp2634
g2
I78
sg3
I1315
sg4
V1317
p2635
ssI1316
(dp2636
g2
I78
sg3
I1316
sg4
V1318
p2637
ssI1317
(dp2638
g2
I78
sg3
I1317
sg4
V1319
p2639
ssI1318
(dp2640
g2
I78
sg3
I1318
sg4
V1320
p2641
ssI1319
(dp2642
g2
I78
sg3
I1319
sg4
V1321
p2643
ssI1320
(dp2644
g2
I79
sg3
I1320
sg4
V1322
p2645
ssI1321
(dp2646
g2
I79
sg3
I1321
sg4
V1323
p2647
ssI1322
(dp2648
g2
I79
sg3
I1322
sg4
V1324
p2649
ssI1323
(dp2650
g2
I79
sg3
I1323
sg4
V1325
p2651
ssI1324
(dp2652
g2
I79
sg3
I1324
sg4
V1326
p2653
ssI1325
(dp2654
g2
I79
sg3
I1325
sg4
V1327
p2655
ssI1326
(dp2656
g2
I79
sg3
I1326
sg4
V1328
p2657
ssI1327
(dp2658
g2
I79
sg3
I1327
sg4
V1329
p2659
ssI1328
(dp2660
g2
I79
sg3
I1328
sg4
V1330
p2661
ssI1329
(dp2662
g2
I79
sg3
I1329
sg4
V1331
p2663
ssI1330
(dp2664
g2
I79
sg3
I1330
sg4
V1332
p2665
ssI1331
(dp2666
g2
I79
sg3
I1331
sg4
V1333
p2667
ssI1332
(dp2668
g2
I79
sg3
I1332
sg4
V1334
p2669
ssI1333
(dp2670
g2
I79
sg3
I1333
sg4
V1335
p2671
ssI1334
(dp2672
g2
I79
sg3
I1334
sg4
V1336
p2673
ssI1335
(dp2674
g2
I79
sg3
I1335
sg4
V1337
p2675
ssI1336
(dp2676
g2
I79
sg3
I1336
sg4
V1338
p2677
ssI1337
(dp2678
g2
I79
sg3
I1337
sg4
V1339
p2679
ssI1338
(dp2680
g2
I79
sg3
I1338
sg4
V1340
p2681
ssI1339
(dp2682
g2
I79
sg3
I1339
sg4
V1341
p2683
ssI1340
(dp2684
g2
I79
sg3
I1340
sg4
V1342
p2685
ssI1341
(dp2686
g2
I79
sg3
I1341
sg4
V1343
p2687
ssI1342
(dp2688
g2
I79
sg3
I1342
sg4
V1344
p2689
ssI1343
(dp2690
g2
I79
sg3
I1343
sg4
V1345
p2691
ssI1344
(dp2692
g2
I79
sg3
I1344
sg4
V1346
p2693
ssI1345
(dp2694
g2
I80
sg3
I1345
sg4
V1347
p2695
ssI1346
(dp2696
g2
I80
sg3
I1346
sg4
V1348
p2697
ssI1347
(dp2698
g2
I80
sg3
I1347
sg4
V1349
p2699
ssI1348
(dp2700
g2
I80
sg3
I1348
sg4
V1350
p2701
ssI1349
(dp2702
g2
I80
sg3
I1349
sg4
V1351
p2703
ssI1350
(dp2704
g2
I80
sg3
I1350
sg4
V1352
p2705
ssI1351
(dp2706
g2
I80
sg3
I1351
sg4
V1353
p2707
ssI1352
(dp2708
g2
I80
sg3
I1352
sg4
V1354
p2709
ssI1353
(dp2710
g2
I80
sg3
I1353
sg4
V1355
p2711
ssI1354
(dp2712
g2
I80
sg3
I1354
sg4
V1356
p2713
ssI1355
(dp2714
g2
I80
sg3
I1355
sg4
V1357
p2715
ssI1356
(dp2716
g2
I80
sg3
I1356
sg4
V1358
p2717
ssI1357
(dp2718
g2
I80
sg3
I1357
sg4
V1359
p2719
ssI1358
(dp2720
g2
I80
sg3
I1358
sg4
V1360
p2721
ssI1359
(dp2722
g2
I80
sg3
I1359
sg4
V1361
p2723
ssI1360
(dp2724
g2
I80
sg3
I1360
sg4
V1362
p2725
ssI1361
(dp2726
g2
I80
sg3
I1361
sg4
V1363
p2727
ssI1362
(dp2728
g2
I80
sg3
I1362
sg4
V1364
p2729
ssI1363
(dp2730
g2
I80
sg3
I1363
sg4
V1365
p2731
ssI1364
(dp2732
g2
I80
sg3
I1364
sg4
V1366
p2733
ssI1365
(dp2734
g2
I80
sg3
I1365
sg4
V1367
p2735
ssI1366
(dp2736
g2
I81
sg3
I1366
sg4
V1368
p2737
ssI1367
(dp2738
g2
I81
sg3
I1367
sg4
V1369
p2739
ssI1368
(dp2740
g2
I81
sg3
I1368
sg4
V1370
p2741
ssI1369
(dp2742
g2
I81
sg3
I1369
sg4
V1371
p2743
ssI1370
(dp2744
g2
I81
sg3
I1370
sg4
V1372
p2745
ssI1371
(dp2746
g2
I81
sg3
I1371
sg4
V1373
p2747
ssI1372
(dp2748
g2
I81
sg3
I1372
sg4
V1374
p2749
ssI1373
(dp2750
g2
I81
sg3
I1373
sg4
V1375
p2751
ssI1374
(dp2752
g2
I81
sg3
I1374
sg4
V1376
p2753
ssI1375
(dp2754
g2
I81
sg3
I1375
sg4
V1377
p2755
ssI1376
(dp2756
g2
I81
sg3
I1376
sg4
V1378
p2757
ssI1377
(dp2758
g2
I81
sg3
I1377
sg4
V1379
p2759
ssI1378
(dp2760
g2
I81
sg3
I1378
sg4
V1380
p2761
ssI1379
(dp2762
g2
I81
sg3
I1379
sg4
V1381
p2763
ssI1380
(dp2764
g2
I81
sg3
I1380
sg4
V1382
p2765
ssI1381
(dp2766
g2
I81
sg3
I1381
sg4
V1383
p2767
ssI1382
(dp2768
g2
I81
sg3
I1382
sg4
V1384
p2769
ssI1383
(dp2770
g2
I81
sg3
I1383
sg4
V1385
p2771
ssI1384
(dp2772
g2
I81
sg3
I1384
sg4
V1386
p2773
ssI1385
(dp2774
g2
I81
sg3
I1385
sg4
V1387
p2775
ssI1386
(dp2776
g2
I81
sg3
I1386
sg4
V1388
p2777
ssI1387
(dp2778
g2
I81
sg3
I1387
sg4
V1389
p2779
ssI1388
(dp2780
g2
I81
sg3
I1388
sg4
V1390
p2781
ssI1389
(dp2782
g2
I81
sg3
I1389
sg4
V1391
p2783
ssI1390
(dp2784
g2
I81
sg3
I1390
sg4
V1392
p2785
ssI1391
(dp2786
g2
I81
sg3
I1391
sg4
V1393
p2787
ssI1392
(dp2788
g2
I81
sg3
I1392
sg4
V1394
p2789
ssI1393
(dp2790
g2
I82
sg3
I1393
sg4
V1395
p2791
ssI1394
(dp2792
g2
I82
sg3
I1394
sg4
V1396
p2793
ssI1395
(dp2794
g2
I82
sg3
I1395
sg4
V1397
p2795
ssI1396
(dp2796
g2
I82
sg3
I1396
sg4
V1398
p2797
ssI1397
(dp2798
g2
I82
sg3
I1397
sg4
V1399
p2799
ssI1398
(dp2800
g2
I82
sg3
I1398
sg4
V1400
p2801
ssI1399
(dp2802
g2
I82
sg3
I1399
sg4
V1401
p2803
ssI1400
(dp2804
g2
I82
sg3
I1400
sg4
V1402
p2805
ssI1401
(dp2806
g2
I82
sg3
I1401
sg4
V1403
p2807
ssI1402
(dp2808
g2
I82
sg3
I1402
sg4
V1404
p2809
ssI1403
(dp2810
g2
I82
sg3
I1403
sg4
V1405
p2811
ssI1404
(dp2812
g2
I82
sg3
I1404
sg4
V1406
p2813
ssI1405
(dp2814
g2
I82
sg3
I1405
sg4
V1407
p2815
ssI1406
(dp2816
g2
I82
sg3
I1406
sg4
V1408
p2817
ssI1407
(dp2818
g2
I82
sg3
I1407
sg4
V1409
p2819
ssI1408
(dp2820
g2
I82
sg3
I1408
sg4
V1410
p2821
ssI1409
(dp2822
g2
I82
sg3
I1409
sg4
V1411
p2823
ssI1410
(dp2824
g2
I82
sg3
I1410
sg4
V1412
p2825
ssI1411
(dp2826
g2
I82
sg3
I1411
sg4
V1413
p2827
ssI1412
(dp2828
g2
I82
sg3
I1412
sg4
V1414
p2829
ssI1413
(dp2830
g2
I82
sg3
I1413
sg4
V1415
p2831
ssI1414
(dp2832
g2
I83
sg3
I1414
sg4
V1416
p2833
ssI1415
(dp2834
g2
I83
sg3
I1415
sg4
V1417
p2835
ssI1416
(dp2836
g2
I83
sg3
I1416
sg4
V1418
p2837
ssI1417
(dp2838
g2
I83
sg3
I1417
sg4
V1419
p2839
ssI1418
(dp2840
g2
I83
sg3
I1418
sg4
V1420
p2841
ssI1419
(dp2842
g2
I83
sg3
I1419
sg4
V1421
p2843
ssI1420
(dp2844
g2
I83
sg3
I1420
sg4
V1422
p2845
ssI1421
(dp2846
g2
I83
sg3
I1421
sg4
V1423
p2847
ssI1422
(dp2848
g2
I83
sg3
I1422
sg4
V1424
p2849
ssI1423
(dp2850
g2
I83
sg3
I1423
sg4
V1425
p2851
ssI1424
(dp2852
g2
I83
sg3
I1424
sg4
V1426
p2853
ssI1425
(dp2854
g2
I83
sg3
I1425
sg4
V1427
p2855
ssI1426
(dp2856
g2
I83
sg3
I1426
sg4
V1428
p2857
ssI1427
(dp2858
g2
I84
sg3
I1427
sg4
V1429
p2859
ssI1428
(dp2860
g2
I84
sg3
I1428
sg4
V1430
p2861
ssI1429
(dp2862
g2
I85
sg3
I1429
sg4
V1431
p2863
ssI1430
(dp2864
g2
I85
sg3
I1430
sg4
V1432
p2865
ssI1431
(dp2866
g2
I85
sg3
I1431
sg4
V1433
p2867
ssI1432
(dp2868
g2
I85
sg3
I1432
sg4
V1434
p2869
ssI1433
(dp2870
g2
I85
sg3
I1433
sg4
V1435
p2871
ssI1434
(dp2872
g2
I85
sg3
I1434
sg4
V1436
p2873
ssI1435
(dp2874
g2
I85
sg3
I1435
sg4
V1437
p2875
ssI1436
(dp2876
g2
I85
sg3
I1436
sg4
V1438
p2877
ssI1437
(dp2878
g2
I85
sg3
I1437
sg4
V1439
p2879
ssI1438
(dp2880
g2
I85
sg3
I1438
sg4
V1440
p2881
ssI1439
(dp2882
g2
I85
sg3
I1439
sg4
V1441
p2883
ssI1440
(dp2884
g2
I85
sg3
I1440
sg4
V1442
p2885
ssI1441
(dp2886
g2
I85
sg3
I1441
sg4
V1443
p2887
ssI1442
(dp2888
g2
I85
sg3
I1442
sg4
V1444
p2889
ssI1443
(dp2890
g2
I85
sg3
I1443
sg4
V1445
p2891
ssI1444
(dp2892
g2
I85
sg3
I1444
sg4
V1446
p2893
ssI1445
(dp2894
g2
I85
sg3
I1445
sg4
V1447
p2895
ssI1446
(dp2896
g2
I85
sg3
I1446
sg4
V1448
p2897
ssI1447
(dp2898
g2
I85
sg3
I1447
sg4
V1449
p2899
ssI1448
(dp2900
g2
I85
sg3
I1448
sg4
V1450
p2901
ssI1449
(dp2902
g2
I85
sg3
I1449
sg4
V1451
p2903
ssI1450
(dp2904
g2
I85
sg3
I1450
sg4
V1452
p2905
ssI1451
(dp2906
g2
I85
sg3
I1451
sg4
V1453
p2907
ssI1452
(dp2908
g2
I86
sg3
I1452
sg4
V1454
p2909
ssI1453
(dp2910
g2
I86
sg3
I1453
sg4
V1455
p2911
ssI1454
(dp2912
g2
I87
sg3
I1454
sg4
V1456
p2913
ssI1455
(dp2914
g2
I87
sg3
I1455
sg4
V1457
p2915
ssI1456
(dp2916
g2
I87
sg3
I1456
sg4
V1458
p2917
ssI1457
(dp2918
g2
I87
sg3
I1457
sg4
V1459
p2919
ssI1458
(dp2920
g2
I87
sg3
I1458
sg4
V1460
p2921
ssI1459
(dp2922
g2
I87
sg3
I1459
sg4
V1461
p2923
ssI1460
(dp2924
g2
I87
sg3
I1460
sg4
V1462
p2925
ssI1461
(dp2926
g2
I87
sg3
I1461
sg4
V1463
p2927
ssI1462
(dp2928
g2
I87
sg3
I1462
sg4
V1464
p2929
ssI1463
(dp2930
g2
I87
sg3
I1463
sg4
V1465
p2931
ssI1464
(dp2932
g2
I87
sg3
I1464
sg4
V1466
p2933
ssI1465
(dp2934
g2
I87
sg3
I1465
sg4
V1467
p2935
ssI1466
(dp2936
g2
I87
sg3
I1466
sg4
V1468
p2937
ssI1467
(dp2938
g2
I87
sg3
I1467
sg4
V1469
p2939
ssI1468
(dp2940
g2
I87
sg3
I1468
sg4
V1470
p2941
ssI1469
(dp2942
g2
I87
sg3
I1469
sg4
V1471
p2943
ssI1470
(dp2944
g2
I87
sg3
I1470
sg4
V1472
p2945
ssI1471
(dp2946
g2
I87
sg3
I1471
sg4
V1473
p2947
ssI1472
(dp2948
g2
I87
sg3
I1472
sg4
V1474
p2949
ssI1473
(dp2950
g2
I87
sg3
I1473
sg4
V1475
p2951
ssI1474
(dp2952
g2
I87
sg3
I1474
sg4
V1476
p2953
ssI1475
(dp2954
g2
I87
sg3
I1475
sg4
V1477
p2955
ssI1476
(dp2956
g2
I87
sg3
I1476
sg4
V1478
p2957
ssI1477
(dp2958
g2
I87
sg3
I1477
sg4
V1479
p2959
ssI1478
(dp2960
g2
I88
sg3
I1478
sg4
V1480
p2961
ssI1479
(dp2962
g2
I88
sg3
I1479
sg4
V1481
p2963
ssI1480
(dp2964
g2
I89
sg3
I1480
sg4
V1482
p2965
ssI1481
(dp2966
g2
I89
sg3
I1481
sg4
V1483
p2967
ssI1482
(dp2968
g2
I89
sg3
I1482
sg4
V1484
p2969
ssI1483
(dp2970
g2
I89
sg3
I1483
sg4
V1485
p2971
ssI1484
(dp2972
g2
I89
sg3
I1484
sg4
V1486
p2973
ssI1485
(dp2974
g2
I89
sg3
I1485
sg4
V1487
p2975
ssI1486
(dp2976
g2
I89
sg3
I1486
sg4
V1488
p2977
ssI1487
(dp2978
g2
I89
sg3
I1487
sg4
V1489
p2979
ssI1488
(dp2980
g2
I89
sg3
I1488
sg4
V1490
p2981
ssI1489
(dp2982
g2
I89
sg3
I1489
sg4
V1491
p2983
ssI1490
(dp2984
g2
I89
sg3
I1490
sg4
V1492
p2985
ssI1491
(dp2986
g2
I89
sg3
I1491
sg4
V1493
p2987
ssI1492
(dp2988
g2
I90
sg3
I1492
sg4
V1494
p2989
ssI1493
(dp2990
g2
I90
sg3
I1493
sg4
V1495
p2991
ssI1494
(dp2992
g2
I90
sg3
I1494
sg4
V1496
p2993
ssI1495
(dp2994
g2
I90
sg3
I1495
sg4
V1497
p2995
ssI1496
(dp2996
g2
I90
sg3
I1496
sg4
V1498
p2997
ssI1497
(dp2998
g2
I90
sg3
I1497
sg4
V1499
p2999
ssI1498
(dp3000
g2
I90
sg3
I1498
sg4
V1500
p3001
ssI1499
(dp3002
g2
I90
sg3
I1499
sg4
V1501
p3003
ssI1500
(dp3004
g2
I91
sg3
I1500
sg4
V1502
p3005
ssI1501
(dp3006
g2
I91
sg3
I1501
sg4
V1503
p3007
ssI1502
(dp3008
g2
I91
sg3
I1502
sg4
V1504
p3009
ssI1503
(dp3010
g2
I91
sg3
I1503
sg4
V1505
p3011
ssI1504
(dp3012
g2
I91
sg3
I1504
sg4
V1506
p3013
ssI1505
(dp3014
g2
I91
sg3
I1505
sg4
V1507
p3015
ssI1506
(dp3016
g2
I91
sg3
I1506
sg4
V1508
p3017
ssI1507
(dp3018
g2
I91
sg3
I1507
sg4
V1509
p3019
ssI1508
(dp3020
g2
I91
sg3
I1508
sg4
V1510
p3021
ssI1509
(dp3022
g2
I91
sg3
I1509
sg4
V1511
p3023
ssI1510
(dp3024
g2
I92
sg3
I1510
sg4
V1512
p3025
ssI1511
(dp3026
g2
I92
sg3
I1511
sg4
V1513
p3027
ssI1512
(dp3028
g2
I92
sg3
I1512
sg4
V1514
p3029
ssI1513
(dp3030
g2
I92
sg3
I1513
sg4
V1515
p3031
ssI1514
(dp3032
g2
I92
sg3
I1514
sg4
V1516
p3033
ssI1515
(dp3034
g2
I92
sg3
I1515
sg4
V1517
p3035
ssI1516
(dp3036
g2
I92
sg3
I1516
sg4
V1518
p3037
ssI1517
(dp3038
g2
I92
sg3
I1517
sg4
V1519
p3039
ssI1518
(dp3040
g2
I92
sg3
I1518
sg4
V1520
p3041
ssI1519
(dp3042
g2
I92
sg3
I1519
sg4
V1521
p3043
ssI1520
(dp3044
g2
I92
sg3
I1520
sg4
V1522
p3045
ssI1521
(dp3046
g2
I92
sg3
I1521
sg4
V1523
p3047
ssI1522
(dp3048
g2
I92
sg3
I1522
sg4
V1524
p3049
ssI1523
(dp3050
g2
I92
sg3
I1523
sg4
V1525
p3051
ssI1524
(dp3052
g2
I93
sg3
I1524
sg4
V1526
p3053
ssI1525
(dp3054
g2
I93
sg3
I1525
sg4
V1527
p3055
ssI1526
(dp3056
g2
I93
sg3
I1526
sg4
V1528
p3057
ssI1527
(dp3058
g2
I93
sg3
I1527
sg4
V1529
p3059
ssI1528
(dp3060
g2
I93
sg3
I1528
sg4
V1530
p3061
ssI1529
(dp3062
g2
I93
sg3
I1529
sg4
V1531
p3063
ssI1530
(dp3064
g2
I93
sg3
I1530
sg4
V1532
p3065
ssI1531
(dp3066
g2
I93
sg3
I1531
sg4
V1533
p3067
ssI1532
(dp3068
g2
I93
sg3
I1532
sg4
V1534
p3069
ssI1533
(dp3070
g2
I93
sg3
I1533
sg4
V1535
p3071
ssI1534
(dp3072
g2
I93
sg3
I1534
sg4
V1536
p3073
ssI1535
(dp3074
g2
I93
sg3
I1535
sg4
V1537
p3075
ssI1536
(dp3076
g2
I93
sg3
I1536
sg4
V1538
p3077
ssI1537
(dp3078
g2
I93
sg3
I1537
sg4
V1539
p3079
ssI1538
(dp3080
g2
I93
sg3
I1538
sg4
V1540
p3081
ssI1539
(dp3082
g2
I93
sg3
I1539
sg4
V1541
p3083
ssI1540
(dp3084
g2
I94
sg3
I1540
sg4
V1542
p3085
ssI1541
(dp3086
g2
I94
sg3
I1541
sg4
V1543
p3087
ssI1542
(dp3088
g2
I94
sg3
I1542
sg4
V1544
p3089
ssI1543
(dp3090
g2
I94
sg3
I1543
sg4
V1545
p3091
ssI1544
(dp3092
g2
I94
sg3
I1544
sg4
V1546
p3093
ssI1545
(dp3094
g2
I94
sg3
I1545
sg4
V1547
p3095
ssI1546
(dp3096
g2
I94
sg3
I1546
sg4
V1548
p3097
ssI1547
(dp3098
g2
I94
sg3
I1547
sg4
V1549
p3099
ssI1548
(dp3100
g2
I94
sg3
I1548
sg4
V1550
p3101
ssI1549
(dp3102
g2
I95
sg3
I1549
sg4
V1551
p3103
ssI1550
(dp3104
g2
I95
sg3
I1550
sg4
V1552
p3105
ssI1551
(dp3106
g2
I95
sg3
I1551
sg4
V1553
p3107
ssI1552
(dp3108
g2
I95
sg3
I1552
sg4
V1554
p3109
ssI1553
(dp3110
g2
I95
sg3
I1553
sg4
V1555
p3111
ssI1554
(dp3112
g2
I95
sg3
I1554
sg4
V1556
p3113
ssI1555
(dp3114
g2
I95
sg3
I1555
sg4
V1557
p3115
ssI1556
(dp3116
g2
I95
sg3
I1556
sg4
V1558
p3117
ssI1557
(dp3118
g2
I95
sg3
I1557
sg4
V1559
p3119
ssI1558
(dp3120
g2
I95
sg3
I1558
sg4
V1560
p3121
ssI1559
(dp3122
g2
I95
sg3
I1559
sg4
V1561
p3123
ssI1560
(dp3124
g2
I95
sg3
I1560
sg4
V1562
p3125
ssI1561
(dp3126
g2
I95
sg3
I1561
sg4
V1563
p3127
ssI1562
(dp3128
g2
I95
sg3
I1562
sg4
V1564
p3129
ssI1563
(dp3130
g2
I95
sg3
I1563
sg4
V1565
p3131
ssI1564
(dp3132
g2
I95
sg3
I1564
sg4
V1566
p3133
ssI1565
(dp3134
g2
I96
sg3
I1565
sg4
V1567
p3135
ssI1566
(dp3136
g2
I96
sg3
I1566
sg4
V1568
p3137
ssI1567
(dp3138
g2
I96
sg3
I1567
sg4
V1569
p3139
ssI1568
(dp3140
g2
I96
sg3
I1568
sg4
V1570
p3141
ssI1569
(dp3142
g2
I96
sg3
I1569
sg4
V1571
p3143
ssI1570
(dp3144
g2
I96
sg3
I1570
sg4
V1572
p3145
ssI1571
(dp3146
g2
I96
sg3
I1571
sg4
V1573
p3147
ssI1572
(dp3148
g2
I96
sg3
I1572
sg4
V1574
p3149
ssI1573
(dp3150
g2
I96
sg3
I1573
sg4
V1575
p3151
ssI1574
(dp3152
g2
I96
sg3
I1574
sg4
V1576
p3153
ssI1575
(dp3154
g2
I96
sg3
I1575
sg4
V1577
p3155
ssI1576
(dp3156
g2
I96
sg3
I1576
sg4
V1578
p3157
ssI1577
(dp3158
g2
I96
sg3
I1577
sg4
V1579
p3159
ssI1578
(dp3160
g2
I96
sg3
I1578
sg4
V1580
p3161
ssI1579
(dp3162
g2
I96
sg3
I1579
sg4
V1581
p3163
ssI1580
(dp3164
g2
I96
sg3
I1580
sg4
V1582
p3165
ssI1581
(dp3166
g2
I97
sg3
I1581
sg4
V1583
p3167
ssI1582
(dp3168
g2
I97
sg3
I1582
sg4
V1584
p3169
ssI1583
(dp3170
g2
I97
sg3
I1583
sg4
V1585
p3171
ssI1584
(dp3172
g2
I97
sg3
I1584
sg4
V1586
p3173
ssI1585
(dp3174
g2
I97
sg3
I1585
sg4
V1587
p3175
ssI1586
(dp3176
g2
I97
sg3
I1586
sg4
V1588
p3177
ssI1587
(dp3178
g2
I97
sg3
I1587
sg4
V1589
p3179
ssI1588
(dp3180
g2
I97
sg3
I1588
sg4
V1590
p3181
ssI1589
(dp3182
g2
I97
sg3
I1589
sg4
V1591
p3183
ssI1590
(dp3184
g2
I97
sg3
I1590
sg4
V1592
p3185
ssI1591
(dp3186
g2
I97
sg3
I1591
sg4
V1593
p3187
ssI1592
(dp3188
g2
I97
sg3
I1592
sg4
V1594
p3189
ssI1593
(dp3190
g2
I98
sg3
I1593
sg4
V1595
p3191
ssI1594
(dp3192
g2
I98
sg3
I1594
sg4
V1596
p3193
ssI1595
(dp3194
g2
I98
sg3
I1595
sg4
V1597
p3195
ssI1596
(dp3196
g2
I98
sg3
I1596
sg4
V1598
p3197
ssI1597
(dp3198
g2
I98
sg3
I1597
sg4
V1599
p3199
ssI1598
(dp3200
g2
I98
sg3
I1598
sg4
V1600
p3201
ssI1599
(dp3202
g2
I98
sg3
I1599
sg4
V1601
p3203
ssI1600
(dp3204
g2
I98
sg3
I1600
sg4
V1602
p3205
ssI1601
(dp3206
g2
I98
sg3
I1601
sg4
V1603
p3207
ssI1602
(dp3208
g2
I98
sg3
I1602
sg4
V1604
p3209
ssI1603
(dp3210
g2
I99
sg3
I1603
sg4
V1605
p3211
ssI1604
(dp3212
g2
I99
sg3
I1604
sg4
V1606
p3213
ssI1605
(dp3214
g2
I99
sg3
I1605
sg4
V1607
p3215
ssI1606
(dp3216
g2
I99
sg3
I1606
sg4
V1608
p3217
ssI1607
(dp3218
g2
I99
sg3
I1607
sg4
V1609
p3219
ssI1608
(dp3220
g2
I99
sg3
I1608
sg4
V1610
p3221
ssI1609
(dp3222
g2
I99
sg3
I1609
sg4
V1611
p3223
ssI1610
(dp3224
g2
I99
sg3
I1610
sg4
V1612
p3225
ssI1611
(dp3226
g2
I99
sg3
I1611
sg4
V1613
p3227
ssI1612
(dp3228
g2
I99
sg3
I1612
sg4
V1614
p3229
ssI1613
(dp3230
g2
I100
sg3
I1613
sg4
V1615
p3231
ssI1614
(dp3232
g2
I100
sg3
I1614
sg4
V1616
p3233
ssI1615
(dp3234
g2
I100
sg3
I1615
sg4
V1617
p3235
ssI1616
(dp3236
g2
I100
sg3
I1616
sg4
V1618
p3237
ssI1617
(dp3238
g2
I100
sg3
I1617
sg4
V1619
p3239
ssI1618
(dp3240
g2
I100
sg3
I1618
sg4
V1620
p3241
ssI1619
(dp3242
g2
I100
sg3
I1619
sg4
V1621
p3243
ssI1620
(dp3244
g2
I100
sg3
I1620
sg4
V1622
p3245
ssI1621
(dp3246
g2
I100
sg3
I1621
sg4
V1623
p3247
ssI1622
(dp3248
g2
I100
sg3
I1622
sg4
V1624
p3249
ssI1623
(dp3250
g2
I100
sg3
I1623
sg4
V1625
p3251
ssI1624
(dp3252
g2
I100
sg3
I1624
sg4
V1626
p3253
ss.