(dp0
I0
(dp1
S'label'
p2
V\u6771\u937e
p3
sS'id'
p4
I0
sS'number'
p5
V1
p6
ssI1
(dp7
g2
V\u6c5f\u967d
p8
sg4
I1
sg5
V2
p9
ssI2
(dp10
g2
V\u652f\u601d
p11
sg4
I2
sg5
V3
p12
ssI3
(dp13
g2
V\u9f4a\u5fae
p14
sg4
I3
sg5
V4
p15
ssI4
(dp16
g2
V\u9b5a\u6a21
p17
sg4
I4
sg5
V5
p18
ssI5
(dp19
g2
V\u7686\u4f86
p20
sg4
I5
sg5
V6
p21
ssI6
(dp22
g2
V\u771f\u6587
p23
sg4
I6
sg5
V7
p24
ssI7
(dp25
g2
V\u5bd2\u5c71
p26
sg4
I7
sg5
V8
p27
ssI8
(dp28
g2
V\u6853\u6b61
p29
sg4
I8
sg5
V9
p30
ssI9
(dp31
g2
V\u5148\u5929
p32
sg4
I9
sg5
V10
p33
ssI10
(dp34
g2
V\u856d\u8c6a
p35
sg4
I10
sg5
V11
p36
ssI11
(dp37
g2
V\u6b4c\u6208
p38
sg4
I11
sg5
V12
p39
ssI12
(dp40
g2
V\u5bb6\u9ebb
p41
sg4
I12
sg5
V13
p42
ssI13
(dp43
g2
V\u8eca\u906e
p44
sg4
I13
sg5
V14
p45
ssI14
(dp46
g2
V\u5e9a\u9752
p47
sg4
I14
sg5
V15
p48
ssI15
(dp49
g2
V\u5c24\u4faf
p50
sg4
I15
sg5
V16
p51
ssI16
(dp52
g2
V\u4fb5\u5c0b
p53
sg4
I16
sg5
V17
p54
ssI17
(dp55
g2
V\u76e3\u9e79
p56
sg4
I17
sg5
V18
p57
ssI18
(dp58
g2
V\u5ec9\u7e96
p59
sg4
I18
sg5
V19
p60
ss.