(dp0
I0
(dp1
S'tonenumber'
p2
V1
p3
sS'rhyme'
p4
I0
sS'number'
p5
S'1'
p6
sS'label'
p7
V\u5e73\u8072\u9670
p8
sS'toneletter'
p9
Va
p10
sS'id'
p11
I0
ssI1
(dp12
g2
V2
p13
sg4
I0
sg5
S'2'
p14
sg7
V\u5e73\u8072\u967d
p15
sg9
Vb
p16
sg11
I1
ssI2
(dp17
g2
V3
p18
sg4
I0
sg5
S'3'
p19
sg7
V\u4e0a\u8072
p20
sg9
Vc
p21
sg11
I2
ssI3
(dp22
g2
V4
p23
sg4
I0
sg5
S'4'
p24
sg7
V\u53bb\u8072
p25
sg9
Vd
p26
sg11
I3
ssI4
(dp27
g2
g3
sg4
I1
sg5
S'5'
p28
sg7
V\u5e73\u8072\u9670
p29
sg9
g10
sg11
I4
ssI5
(dp30
g2
g13
sg4
I1
sg5
S'6'
p31
sg7
V\u5e73\u8072\u967d
p32
sg9
g16
sg11
I5
ssI6
(dp33
g2
g18
sg4
I1
sg5
S'7'
p34
sg7
V\u4e0a\u8072
p35
sg9
g21
sg11
I6
ssI7
(dp36
g2
g23
sg4
I1
sg5
S'8'
p37
sg7
V\u53bb\u8072
p38
sg9
g26
sg11
I7
ssI8
(dp39
g2
g3
sg4
I2
sg5
S'9'
p40
sg7
V\u5e73\u8072\u9670
p41
sg9
g10
sg11
I8
ssI9
(dp42
g2
g13
sg4
I2
sg5
S'10'
p43
sg7
V\u5e73\u8072\u967d
p44
sg9
g16
sg11
I9
ssI10
(dp45
g2
g18
sg4
I2
sg5
S'11'
p46
sg7
V\u4e0a\u8072
p47
sg9
g21
sg11
I10
ssI11
(dp48
g2
g18
sg4
I2
sg5
S'12'
p49
sg7
V\u5165\u8072\u4f5c\u4e0a\u8072
p50
sg9
Vc\u2018
p51
sg11
I11
ssI12
(dp52
g2
g23
sg4
I2
sg5
S'13'
p53
sg7
V\u53bb\u8072
p54
sg9
g26
sg11
I12
ssI13
(dp55
g2
g3
sg4
I3
sg5
S'14'
p56
sg7
V\u5e73\u8072\u9670
p57
sg9
g10
sg11
I13
ssI14
(dp58
g2
g13
sg4
I3
sg5
S'15'
p59
sg7
V\u5e73\u8072\u967d
p60
sg9
g16
sg11
I14
ssI15
(dp61
g2
g13
sg4
I3
sg5
S'16'
p62
sg7
V\u5165\u8072\u4f5c\u5e73\u8072\u967d\u5f8c\u540c
p63
sg9
Vb\u2018
p64
sg11
I15
ssI16
(dp65
g2
g18
sg4
I3
sg5
S'17'
p66
sg7
V\u4e0a\u8072
p67
sg9
g21
sg11
I16
ssI17
(dp68
g2
g18
sg4
I3
sg5
S'18'
p69
sg7
V\u5165\u8072\u4f5c\u4e0a\u8072
p70
sg9
Vc\u2018
p71
sg11
I17
ssI18
(dp72
g2
g23
sg4
I3
sg5
S'19'
p73
sg7
V\u53bb\u8072
p74
sg9
g26
sg11
I18
ssI19
(dp75
g2
g23
sg4
I3
sg5
S'20'
p76
sg7
V\u5165\u8072\u4f5c\u53bb\u8072
p77
sg9
Vd\u2018
p78
sg11
I19
ssI20
(dp79
g2
g3
sg4
I4
sg5
S'21'
p80
sg7
V\u5e73\u8072\u9670
p81
sg9
g10
sg11
I20
ssI21
(dp82
g2
g13
sg4
I4
sg5
S'22'
p83
sg7
V\u5e73\u8072\u967d
p84
sg9
g16
sg11
I21
ssI22
(dp85
g2
g13
sg4
I4
sg5
S'23'
p86
sg7
V\u5165\u8072\u4f5c\u5e73\u8072
p87
sg9
Vb\u2018
p88
sg11
I22
ssI23
(dp89
g2
g18
sg4
I4
sg5
S'24'
p90
sg7
V\u4e0a\u8072
p91
sg9
g21
sg11
I23
ssI24
(dp92
g2
g18
sg4
I4
sg5
S'25'
p93
sg7
V\u5165\u8072\u4f5c\u4e0a\u8072
p94
sg9
Vc\u2018
p95
sg11
I24
ssI25
(dp96
g2
g23
sg4
I4
sg5
S'26'
p97
sg7
V\u53bb\u8072
p98
sg9
g26
sg11
I25
ssI26
(dp99
g2
g23
sg4
I4
sg5
S'27'
p100
sg7
V\u5165\u8072\u4f5c\u53bb\u8072
p101
sg9
Vd\u2018
p102
sg11
I26
ssI27
(dp103
g2
g3
sg4
I5
sg5
S'28'
p104
sg7
V\u5e73\u8072\u9670
p105
sg9
g10
sg11
I27
ssI28
(dp106
g2
g13
sg4
I5
sg5
S'29'
p107
sg7
V\u5e73\u8072\u967d
p108
sg9
g16
sg11
I28
ssI29
(dp109
g2
g13
sg4
I5
sg5
S'30'
p110
sg7
V\u5165\u8072\u4f5c\u5e73\u8072
p111
sg9
Vb\u2018
p112
sg11
I29
ssI30
(dp113
g2
g18
sg4
I5
sg5
S'31'
p114
sg7
V\u4e0a\u8072
p115
sg9
g21
sg11
I30
ssI31
(dp116
g2
g18
sg4
I5
sg5
S'32'
p117
sg7
V\u5165\u8072\u4f5c\u4e0a\u8072
p118
sg9
Vc\u2018
p119
sg11
I31
ssI32
(dp120
g2
g23
sg4
I5
sg5
S'33'
p121
sg7
V\u53bb\u8072
p122
sg9
g26
sg11
I32
ssI33
(dp123
g2
g23
sg4
I5
sg5
S'34'
p124
sg7
V\u5165\u8072\u4f5c\u53bb\u8072
p125
sg9
Vd\u2018
p126
sg11
I33
ssI34
(dp127
g2
g3
sg4
I6
sg5
S'35'
p128
sg7
V\u5e73\u8072\u9670
p129
sg9
g10
sg11
I34
ssI35
(dp130
g2
g13
sg4
I6
sg5
S'36'
p131
sg7
V\u5e73\u8072\u967d
p132
sg9
g16
sg11
I35
ssI36
(dp133
g2
g18
sg4
I6
sg5
S'37'
p134
sg7
V\u4e0a\u8072
p135
sg9
g21
sg11
I36
ssI37
(dp136
g2
g23
sg4
I6
sg5
S'38'
p137
sg7
V\u53bb\u8072
p138
sg9
g26
sg11
I37
ssI38
(dp139
g2
g3
sg4
I7
sg5
S'39'
p140
sg7
V\u5e73\u8072\u9670
p141
sg9
g10
sg11
I38
ssI39
(dp142
g2
g18
sg4
I7
sg5
S'40'
p143
sg7
V\u4e0a\u8072
p144
sg9
g21
sg11
I39
ssI40
(dp145
g2
g13
sg4
I7
sg5
S'41'
p146
sg7
V\u5e73\u8072\u967d
p147
sg9
g16
sg11
I40
ssI41
(dp148
g2
g18
sg4
I7
sg5
S'42'
p149
sg7
V\u4e0a\u8072
p150
sg9
g21
sg11
I41
ssI42
(dp151
g2
g23
sg4
I7
sg5
S'43'
p152
sg7
V\u53bb\u8072
p153
sg9
g26
sg11
I42
ssI43
(dp154
g2
g3
sg4
I8
sg5
S'44'
p155
sg7
V\u5e73\u8072\u9670
p156
sg9
g10
sg11
I43
ssI44
(dp157
g2
g13
sg4
I8
sg5
S'45'
p158
sg7
V\u5e73\u8072\u967d
p159
sg9
g16
sg11
I44
ssI45
(dp160
g2
g18
sg4
I8
sg5
S'46'
p161
sg7
V\u4e0a\u8072
p162
sg9
g21
sg11
I45
ssI46
(dp163
g2
g23
sg4
I8
sg5
S'47'
p164
sg7
V\u53bb\u8072
p165
sg9
g26
sg11
I46
ssI47
(dp166
g2
g3
sg4
I9
sg5
S'48'
p167
sg7
V\u5e73\u8072\u9670
p168
sg9
g10
sg11
I47
ssI48
(dp169
g2
g13
sg4
I9
sg5
S'49'
p170
sg7
V\u5e73\u8072\u967d
p171
sg9
g16
sg11
I48
ssI49
(dp172
g2
g18
sg4
I9
sg5
S'50'
p173
sg7
V\u4e0a\u8072
p174
sg9
g21
sg11
I49
ssI50
(dp175
g2
g23
sg4
I9
sg5
S'51'
p176
sg7
V\u53bb\u8072
p177
sg9
g26
sg11
I50
ssI51
(dp178
g2
g3
sg4
I10
sg5
S'52'
p179
sg7
V\u5e73\u8072\u9670
p180
sg9
g10
sg11
I51
ssI52
(dp181
g2
g13
sg4
I10
sg5
S'53'
p182
sg7
V\u5e73\u8072\u967d
p183
sg9
g16
sg11
I52
ssI53
(dp184
g2
g13
sg4
I10
sg5
S'54'
p185
sg7
V\u5165\u8072\u4f5c\u5e73\u8072
p186
sg9
Vb\u2018
p187
sg11
I53
ssI54
(dp188
g2
g18
sg4
I10
sg5
S'55'
p189
sg7
V\u4e0a\u8072
p190
sg9
g21
sg11
I54
ssI55
(dp191
g2
g18
sg4
I10
sg5
S'56'
p192
sg7
V\u5165\u8072\u4f5c\u4e0a\u8072
p193
sg9
Vc\u2018
p194
sg11
I55
ssI56
(dp195
g2
g23
sg4
I10
sg5
S'57'
p196
sg7
V\u53bb\u8072
p197
sg9
g26
sg11
I56
ssI57
(dp198
g2
g23
sg4
I10
sg5
S'58'
p199
sg7
V\u5165\u8072\u4f5c\u53bb\u8072
p200
sg9
Vd\u2018
p201
sg11
I57
ssI58
(dp202
g2
g3
sg4
I11
sg5
S'59'
p203
sg7
V\u5e73\u8072\u9670
p204
sg9
g10
sg11
I58
ssI59
(dp205
g2
g13
sg4
I11
sg5
S'60'
p206
sg7
V\u5e73\u8072\u967d
p207
sg9
g16
sg11
I59
ssI60
(dp208
g2
g13
sg4
I11
sg5
S'61'
p209
sg7
V\u5165\u8072\u4f5c\u5e73\u8072
p210
sg9
Vb\u2018
p211
sg11
I60
ssI61
(dp212
g2
g18
sg4
I11
sg5
S'62'
p213
sg7
V\u4e0a\u8072
p214
sg9
g21
sg11
I61
ssI62
(dp215
g2
g18
sg4
I11
sg5
S'63'
p216
sg7
V\u5165\u8072\u4f5c\u4e0a\u8072
p217
sg9
Vc\u2018
p218
sg11
I62
ssI63
(dp219
g2
g23
sg4
I11
sg5
S'64'
p220
sg7
V\u53bb\u8072
p221
sg9
g26
sg11
I63
ssI64
(dp222
g2
g23
sg4
I11
sg5
S'65'
p223
sg7
V\u5165\u8072\u4f5c\u53bb\u8072
p224
sg9
Vd\u2018
p225
sg11
I64
ssI65
(dp226
g2
g3
sg4
I12
sg5
S'66'
p227
sg7
V\u5e73\u8072\u9670
p228
sg9
g10
sg11
I65
ssI66
(dp229
g2
g13
sg4
I12
sg5
S'67'
p230
sg7
V\u5e73\u8072\u967d
p231
sg9
g16
sg11
I66
ssI67
(dp232
g2
g13
sg4
I12
sg5
S'68'
p233
sg7
V\u5165\u8072\u4f5c\u5e73\u8072
p234
sg9
Vb\u2018
p235
sg11
I67
ssI68
(dp236
g2
g18
sg4
I12
sg5
S'69'
p237
sg7
V\u4e0a\u8072
p238
sg9
g21
sg11
I68
ssI69
(dp239
g2
g18
sg4
I12
sg5
S'70'
p240
sg7
V\u5165\u8072\u4f5c\u4e0a\u8072
p241
sg9
Vc\u2018
p242
sg11
I69
ssI70
(dp243
g2
g23
sg4
I12
sg5
S'71'
p244
sg7
V\u53bb\u8072
p245
sg9
g26
sg11
I70
ssI71
(dp246
g2
g23
sg4
I12
sg5
S'72'
p247
sg7
V\u5165\u8072\u4f5c\u53bb\u8072
p248
sg9
Vd\u2018
p249
sg11
I71
ssI72
(dp250
g2
g3
sg4
I13
sg5
S'73'
p251
sg7
V\u5e73\u8072\u9670
p252
sg9
g10
sg11
I72
ssI73
(dp253
g2
g13
sg4
I13
sg5
S'74'
p254
sg7
V\u5e73\u8072\u967d
p255
sg9
g16
sg11
I73
ssI74
(dp256
g2
g13
sg4
I13
sg5
S'75'
p257
sg7
V\u5165\u8072\u4f5c\u5e73\u8072
p258
sg9
Vb\u2018
p259
sg11
I74
ssI75
(dp260
g2
g18
sg4
I13
sg5
S'76'
p261
sg7
V\u5165\u8072\u4f5c\u4e0a\u8072
p262
sg9
Vc\u2018
p263
sg11
I75
ssI76
(dp264
g2
g23
sg4
I13
sg5
S'77'
p265
sg7
V\u53bb\u8072
p266
sg9
g26
sg11
I76
ssI77
(dp267
g2
g23
sg4
I13
sg5
S'78'
p268
sg7
V\u5165\u8072\u4f5c\u53bb\u8072
p269
sg9
Vd\u2018
p270
sg11
I77
ssI78
(dp271
g2
g3
sg4
I14
sg5
S'79'
p272
sg7
V\u5e73\u8072\u9670
p273
sg9
g10
sg11
I78
ssI79
(dp274
g2
g13
sg4
I14
sg5
S'80'
p275
sg7
V\u5e73\u8072\u967d
p276
sg9
g16
sg11
I79
ssI80
(dp277
g2
g18
sg4
I14
sg5
S'81'
p278
sg7
V\u4e0a\u8072
p279
sg9
g21
sg11
I80
ssI81
(dp280
g2
g23
sg4
I14
sg5
S'82'
p281
sg7
V\u53bb\u8072
p282
sg9
g26
sg11
I81
ssI82
(dp283
g2
g3
sg4
I15
sg5
S'83'
p284
sg7
V\u5e73\u8072\u9670
p285
sg9
g10
sg11
I82
ssI83
(dp286
g2
g13
sg4
I15
sg5
S'84'
p287
sg7
V\u5e73\u8072\u967d
p288
sg9
g16
sg11
I83
ssI84
(dp289
g2
g13
sg4
I15
sg5
S'85'
p290
sg7
V\u5165\u8072\u4f5c\u5e73\u8072
p291
sg9
Vb\u2018
p292
sg11
I84
ssI85
(dp293
g2
g18
sg4
I15
sg5
S'86'
p294
sg7
V\u4e0a\u8072
p295
sg9
g21
sg11
I85
ssI86
(dp296
g2
g18
sg4
I15
sg5
S'87'
p297
sg7
V\u5165\u8072\u4f5c\u4e0a\u8072
p298
sg9
Vc\u2018
p299
sg11
I86
ssI87
(dp300
g2
g23
sg4
I15
sg5
S'88'
p301
sg7
V\u53bb\u8072
p302
sg9
g26
sg11
I87
ssI88
(dp303
g2
g23
sg4
I15
sg5
S'89'
p304
sg7
V\u5165\u8072\u4f5c\u53bb\u8072
p305
sg9
Vd\u2018
p306
sg11
I88
ssI89
(dp307
g2
g3
sg4
I16
sg5
S'90'
p308
sg7
V\u5e73\u8072\u9670
p309
sg9
g10
sg11
I89
ssI90
(dp310
g2
g13
sg4
I16
sg5
S'91'
p311
sg7
V\u5e73\u8072\u967d
p312
sg9
g16
sg11
I90
ssI91
(dp313
g2
g18
sg4
I16
sg5
S'92'
p314
sg7
V\u4e0a\u8072
p315
sg9
g21
sg11
I91
ssI92
(dp316
g2
g23
sg4
I16
sg5
S'93'
p317
sg7
V\u53bb\u8072
p318
sg9
g26
sg11
I92
ssI93
(dp319
g2
g3
sg4
I17
sg5
S'94'
p320
sg7
V\u5e73\u8072\u9670
p321
sg9
g10
sg11
I93
ssI94
(dp322
g2
g13
sg4
I17
sg5
S'95'
p323
sg7
V\u5e73\u8072\u967d
p324
sg9
g16
sg11
I94
ssI95
(dp325
g2
g18
sg4
I17
sg5
S'96'
p326
sg7
V\u4e0a\u8072
p327
sg9
g21
sg11
I95
ssI96
(dp328
g2
g23
sg4
I17
sg5
S'97'
p329
sg7
V\u53bb\u8072
p330
sg9
g26
sg11
I96
ssI97
(dp331
g2
g3
sg4
I18
sg5
S'98'
p332
sg7
V\u5e73\u8072\u9670
p333
sg9
g10
sg11
I97
ssI98
(dp334
g2
g13
sg4
I18
sg5
S'99'
p335
sg7
V\u5e73\u8072\u967d
p336
sg9
g16
sg11
I98
ssI99
(dp337
g2
g18
sg4
I18
sg5
S'100'
p338
sg7
V\u4e0a\u8072
p339
sg9
g21
sg11
I99
ssI100
(dp340
g2
g23
sg4
I18
sg5
S'101'
p341
sg7
V\u53bb\u8072
p342
sg9
g26
sg11
I100
ss.